---
triple:          'arm64-apple-darwin'
binary-path:     'SakiAgentSSH-Client/Resources/sakissh'
relocations:
  - { offset: 0xF3, size: 0x8, addend: 0x0, symName: '__ZN93_$LT$http_body_util..combinators..map_err..MapErr$LT$B$C$F$GT$$u20$as$u20$http_body..Body$GT$10poll_frame17h14f69e18c23613aaE', symObjAddr: 0x17158, symBinAddr: 0x10001782C, symSize: 0x134 }
  - { offset: 0x32B, size: 0x8, addend: 0x0, symName: '__ZN93_$LT$http_body_util..combinators..map_err..MapErr$LT$B$C$F$GT$$u20$as$u20$http_body..Body$GT$13is_end_stream17h4615126b4fbac128E', symObjAddr: 0x1728C, symBinAddr: 0x100017960, symSize: 0x10 }
  - { offset: 0x35D, size: 0x8, addend: 0x0, symName: '__ZN93_$LT$http_body_util..combinators..map_err..MapErr$LT$B$C$F$GT$$u20$as$u20$http_body..Body$GT$13is_end_stream17h4615126b4fbac128E', symObjAddr: 0x1728C, symBinAddr: 0x100017960, symSize: 0x10 }
  - { offset: 0x3BF, size: 0x8, addend: 0x0, symName: '__ZN93_$LT$http_body_util..combinators..map_err..MapErr$LT$B$C$F$GT$$u20$as$u20$http_body..Body$GT$9size_hint17h4a7b6a198f341460E', symObjAddr: 0x1729C, symBinAddr: 0x100017970, symSize: 0x4 }
  - { offset: 0x83A, size: 0x8, addend: 0x0, symName: '__ZN58_$LT$bytes..bytes..Bytes$u20$as$u20$core..clone..Clone$GT$5clone17h6cc95e341a21b98dE', symObjAddr: 0x3284, symBinAddr: 0x100003B7C, symSize: 0x1C }
  - { offset: 0x88E, size: 0x8, addend: 0x0, symName: __ZN5bytes5bytes11static_drop17h7787cd70c1de2b0eE, symObjAddr: 0x3590, symBinAddr: 0x100003E88, symSize: 0x4 }
  - { offset: 0x8C1, size: 0x8, addend: 0x0, symName: __ZN5bytes5bytes16static_is_unique17h280a84a858f9a94fE, symObjAddr: 0x3594, symBinAddr: 0x100003E8C, symSize: 0x4 }
  - { offset: 0x902, size: 0x8, addend: 0x0, symName: '__ZN65_$LT$bytes..bytes..Bytes$u20$as$u20$bytes..buf..buf_impl..Buf$GT$7advance17h4c1f323c23511045E', symObjAddr: 0x5C40, symBinAddr: 0x10000640C, symSize: 0x60 }
  - { offset: 0xC8E, size: 0x8, addend: 0x0, symName: '__ZN74_$LT$bytes..bytes_mut..BytesMut$u20$as$u20$bytes..buf..buf_mut..BufMut$GT$11advance_mut17h813ecb1d98c4b8baE', symObjAddr: 0x738C, symBinAddr: 0x100007A60, symSize: 0x30 }
  - { offset: 0xE23, size: 0x8, addend: 0x0, symName: '__ZN59_$LT$$RF$mut$u20$T$u20$as$u20$bytes..buf..buf_impl..Buf$GT$5chunk17hb1236545f09ff77eE', symObjAddr: 0x32A0, symBinAddr: 0x100003B98, symSize: 0xC }
  - { offset: 0xE51, size: 0x8, addend: 0x0, symName: '__ZN59_$LT$$RF$mut$u20$T$u20$as$u20$bytes..buf..buf_impl..Buf$GT$5chunk17hb1236545f09ff77eE', symObjAddr: 0x32A0, symBinAddr: 0x100003B98, symSize: 0xC }
  - { offset: 0xE93, size: 0x8, addend: 0x0, symName: '__ZN59_$LT$$RF$mut$u20$T$u20$as$u20$bytes..buf..buf_impl..Buf$GT$5chunk17hbbc708f0cd48c4f3E', symObjAddr: 0x32AC, symBinAddr: 0x100003BA4, symSize: 0x10 }
  - { offset: 0xEC1, size: 0x8, addend: 0x0, symName: '__ZN59_$LT$$RF$mut$u20$T$u20$as$u20$bytes..buf..buf_impl..Buf$GT$5chunk17hbbc708f0cd48c4f3E', symObjAddr: 0x32AC, symBinAddr: 0x100003BA4, symSize: 0x10 }
  - { offset: 0xED6, size: 0x8, addend: 0x0, symName: '__ZN59_$LT$$RF$mut$u20$T$u20$as$u20$bytes..buf..buf_impl..Buf$GT$5chunk17hbbc708f0cd48c4f3E', symObjAddr: 0x32AC, symBinAddr: 0x100003BA4, symSize: 0x10 }
  - { offset: 0xEEA, size: 0x8, addend: 0x0, symName: '__ZN59_$LT$$RF$mut$u20$T$u20$as$u20$bytes..buf..buf_impl..Buf$GT$5chunk17hbbc708f0cd48c4f3E', symObjAddr: 0x32AC, symBinAddr: 0x100003BA4, symSize: 0x10 }
  - { offset: 0xF06, size: 0x8, addend: 0x0, symName: '__ZN59_$LT$$RF$mut$u20$T$u20$as$u20$bytes..buf..buf_impl..Buf$GT$5chunk17hbbc708f0cd48c4f3E', symObjAddr: 0x32AC, symBinAddr: 0x100003BA4, symSize: 0x10 }
  - { offset: 0xF76, size: 0x8, addend: 0x0, symName: '__ZN59_$LT$$RF$mut$u20$T$u20$as$u20$bytes..buf..buf_impl..Buf$GT$7advance17h65fb2c6d7d29fb99E', symObjAddr: 0x32BC, symBinAddr: 0x100003BB4, symSize: 0x4 }
  - { offset: 0xFAE, size: 0x8, addend: 0x0, symName: '__ZN59_$LT$$RF$mut$u20$T$u20$as$u20$bytes..buf..buf_impl..Buf$GT$7advance17h65fb2c6d7d29fb99E', symObjAddr: 0x32BC, symBinAddr: 0x100003BB4, symSize: 0x4 }
  - { offset: 0x1290, size: 0x8, addend: 0x0, symName: '__ZN62_$LT$$RF$$u5b$u8$u5d$$u20$as$u20$bytes..buf..buf_impl..Buf$GT$7advance17h291cebad0ecae8e2E', symObjAddr: 0x5B80, symBinAddr: 0x10000634C, symSize: 0x30 }
  - { offset: 0x1387, size: 0x8, addend: 0x0, symName: __ZN5bytes3buf8buf_impl3Buf13copy_to_bytes17had801ccf3657394bE, symObjAddr: 0x34B8, symBinAddr: 0x100003DB0, symSize: 0xD8 }
  - { offset: 0x1707, size: 0x8, addend: 0x0, symName: __ZN5bytes3buf7buf_mut6BufMut6put_u817h59b18704909b1d90E, symObjAddr: 0x34A0, symBinAddr: 0x100003D98, symSize: 0x18 }
  - { offset: 0x5414, size: 0x8, addend: 0x0, symName: '__ZN4core3ptr100drop_in_place$LT$sakissh..exec_command..$u7b$$u7b$closure$u7d$$u7d$..$u7b$$u7b$closure$u7d$$u7d$$GT$17hc85a8ac452f2d4d1E', symObjAddr: 0xCB0, symBinAddr: 0x1000015C0, symSize: 0x90 }
  - { offset: 0x551B, size: 0x8, addend: 0x0, symName: '__ZN4core3ptr101drop_in_place$LT$anyhow..error..ContextError$LT$alloc..string..String$C$std..io..error..Error$GT$$GT$17hff9357ba9299518fE', symObjAddr: 0xD40, symBinAddr: 0x100001650, symSize: 0x24 }
  - { offset: 0x558C, size: 0x8, addend: 0x0, symName: '__ZN4core3ptr104drop_in_place$LT$tonic..transport..channel..endpoint..Endpoint..connect..$u7b$$u7b$closure$u7d$$u7d$$GT$17hb5d0f9706d4254c5E', symObjAddr: 0xD64, symBinAddr: 0x100001674, symSize: 0x18 }
  - { offset: 0x561F, size: 0x8, addend: 0x0, symName: '__ZN4core3ptr107drop_in_place$LT$tokio..fs..open_options..OpenOptions..open$LT$$RF$str$GT$..$u7b$$u7b$closure$u7d$$u7d$$GT$17h588671d13b0bf008E', symObjAddr: 0xD7C, symBinAddr: 0x10000168C, symSize: 0x18 }
  - { offset: 0x56BF, size: 0x8, addend: 0x0, symName: '__ZN4core3ptr110drop_in_place$LT$tokio..fs..file..File..open$LT$$RF$alloc..string..String$GT$..$u7b$$u7b$closure$u7d$$u7d$$GT$17h8e17be41535c5831E', symObjAddr: 0xD94, symBinAddr: 0x1000016A4, symSize: 0x18 }
  - { offset: 0x5928, size: 0x8, addend: 0x0, symName: '__ZN4core3ptr111drop_in_place$LT$sakissh..sakissh..saki_ssh_client..SakiSshClient$LT$tonic..transport..channel..Channel$GT$$GT$17h04c87fe21ed38effE', symObjAddr: 0xDAC, symBinAddr: 0x1000016BC, symSize: 0xEC }
  - { offset: 0x5F50, size: 0x8, addend: 0x0, symName: '__ZN4core3ptr111drop_in_place$LT$std..sync..poison..PoisonError$LT$std..sync..poison..mutex..MutexGuard$LT$$LP$$RP$$GT$$GT$$GT$17h8952de8e8c32b2b6E', symObjAddr: 0xE98, symBinAddr: 0x1000017A8, symSize: 0x10 }
  - { offset: 0x5F80, size: 0x8, addend: 0x0, symName: '__ZN4core3ptr111drop_in_place$LT$tokio..fs..open_options..OpenOptions..std_open$LT$$RF$str$GT$..$u7b$$u7b$closure$u7d$$u7d$$GT$17hffc8531b594eb829E', symObjAddr: 0xEA8, symBinAddr: 0x1000017B8, symSize: 0x18 }
  - { offset: 0x605A, size: 0x8, addend: 0x0, symName: '__ZN4core3ptr113drop_in_place$LT$tonic..request..Request$LT$tokio_stream..once..Once$LT$sakissh..sakissh..PingRequest$GT$$GT$$GT$17h05f17c661d2b10fbE', symObjAddr: 0xEC0, symBinAddr: 0x1000017D0, symSize: 0x1C }
  - { offset: 0x60E8, size: 0x8, addend: 0x0, symName: '__ZN4core3ptr114drop_in_place$LT$core..option..Option$LT$tokio..sync..mpsc..block..Read$LT$sakissh..sakissh..FileChunk$GT$$GT$$GT$17hc3747ed206f46c22E', symObjAddr: 0xEDC, symBinAddr: 0x1000017EC, symSize: 0x1C }
  - { offset: 0x6149, size: 0x8, addend: 0x0, symName: '__ZN4core3ptr115drop_in_place$LT$tonic..request..Request$LT$tokio_stream..once..Once$LT$sakissh..sakissh..CancelRequest$GT$$GT$$GT$17h27c437559caaef3cE', symObjAddr: 0xEF8, symBinAddr: 0x100001808, symSize: 0x20 }
  - { offset: 0x6199, size: 0x8, addend: 0x0, symName: '__ZN4core3ptr115drop_in_place$LT$tonic..request..Request$LT$tokio_stream..once..Once$LT$sakissh..sakissh..SignalRequest$GT$$GT$$GT$17h12d31e38a5811274E', symObjAddr: 0xF18, symBinAddr: 0x100001828, symSize: 0x20 }
  - { offset: 0x61E9, size: 0x8, addend: 0x0, symName: '__ZN4core3ptr118drop_in_place$LT$alloc..boxed..Box$LT$dyn$u20$core..error..Error$u2b$core..marker..Sync$u2b$core..marker..Send$GT$$GT$17h6db03a539a3182feE', symObjAddr: 0xF38, symBinAddr: 0x100001848, symSize: 0x34 }
  - { offset: 0x6302, size: 0x8, addend: 0x0, symName: '__ZN4core3ptr118drop_in_place$LT$tokio..fs..create_dir_all..create_dir_all$LT$$RF$std..path..Path$GT$..$u7b$$u7b$closure$u7d$$u7d$$GT$17h6c824bef907a0f5bE', symObjAddr: 0xF6C, symBinAddr: 0x10000187C, symSize: 0x18 }
  - { offset: 0x6372, size: 0x8, addend: 0x0, symName: '__ZN4core3ptr121drop_in_place$LT$core..option..Option$LT$alloc..boxed..Box$LT$tokio..runtime..scheduler..current_thread..Core$GT$$GT$$GT$17h822d0350996ce98cE', symObjAddr: 0xF84, symBinAddr: 0x100001894, symSize: 0xC }
  - { offset: 0x639E, size: 0x8, addend: 0x0, symName: '__ZN4core3ptr122drop_in_place$LT$tokio..sync..mutex..Mutex$LT$bool$GT$..lock..$u7b$$u7b$closure$u7d$$u7d$..$u7b$$u7b$closure$u7d$$u7d$$GT$17hbbbe9160598d5071E', symObjAddr: 0xF90, symBinAddr: 0x1000018A0, symSize: 0x18 }
  - { offset: 0x63FB, size: 0x8, addend: 0x0, symName: '__ZN4core3ptr123drop_in_place$LT$anyhow..error..ErrorImpl$LT$tokio..sync..mpsc..error..SendError$LT$sakissh..sakissh..FileChunk$GT$$GT$$GT$17h448c5cbe8b4ed82bE', symObjAddr: 0xFA8, symBinAddr: 0x1000018B8, symSize: 0x20 }
  - { offset: 0x6475, size: 0x8, addend: 0x0, symName: '__ZN4core3ptr125drop_in_place$LT$core..result..Result$LT$tokio..task..coop..with_budget..ResetGuard$C$std..thread..local..AccessError$GT$$GT$17h94fe4ce3b45b8aa4E', symObjAddr: 0xFC8, symBinAddr: 0x1000018D8, symSize: 0x18 }
  - { offset: 0x64CC, size: 0x8, addend: 0x0, symName: '__ZN4core3ptr125drop_in_place$LT$tokio..fs..open_options..OpenOptions..open$LT$$RF$alloc..string..String$GT$..$u7b$$u7b$closure$u7d$$u7d$$GT$17h7969d25d562c5e71E', symObjAddr: 0xFE0, symBinAddr: 0x1000018F0, symSize: 0x18 }
  - { offset: 0x656C, size: 0x8, addend: 0x0, symName: '__ZN4core3ptr125drop_in_place$LT$tokio..sync..mpsc..bounded..Sender$LT$sakissh..sakissh..FileChunk$GT$..send..$u7b$$u7b$closure$u7d$$u7d$$GT$17h7b13f974f65c69c3E', symObjAddr: 0xFF8, symBinAddr: 0x100001908, symSize: 0x44 }
  - { offset: 0x667D, size: 0x8, addend: 0x0, symName: '__ZN4core3ptr127drop_in_place$LT$core..option..Option$LT$alloc..vec..into_iter..IntoIter$LT$clap_builder..util..any_value..AnyValue$GT$$GT$$GT$17h53c0bcc8bbdbf1dbE', symObjAddr: 0x103C, symBinAddr: 0x10000194C, symSize: 0x64 }
  - { offset: 0x6857, size: 0x8, addend: 0x0, symName: '__ZN4core3ptr128drop_in_place$LT$core..task..poll..Poll$LT$core..result..Result$LT$$LP$$RP$$C$tokio..runtime..task..error..JoinError$GT$$GT$$GT$17hbf466f2a9e5194a5E', symObjAddr: 0x10A0, symBinAddr: 0x1000019B0, symSize: 0x10 }
  - { offset: 0x6887, size: 0x8, addend: 0x0, symName: '__ZN4core3ptr128drop_in_place$LT$tokio..sync..mpsc..bounded..Sender$LT$sakissh..sakissh..FileChunk$GT$..reserve..$u7b$$u7b$closure$u7d$$u7d$$GT$17h23ffb059e0656cc8E', symObjAddr: 0x10B0, symBinAddr: 0x1000019C0, symSize: 0x18 }
  - { offset: 0x6922, size: 0x8, addend: 0x0, symName: '__ZN4core3ptr129drop_in_place$LT$sakissh..exec_command..$u7b$$u7b$closure$u7d$$u7d$..$u7b$$u7b$closure$u7d$$u7d$..$u7b$$u7b$closure$u7d$$u7d$$GT$17h411c8e2692120461E', symObjAddr: 0x10C8, symBinAddr: 0x1000019D8, symSize: 0x3C }
  - { offset: 0x69F9, size: 0x8, addend: 0x0, symName: '__ZN4core3ptr129drop_in_place$LT$tokio..fs..open_options..OpenOptions..std_open$LT$$RF$alloc..string..String$GT$..$u7b$$u7b$closure$u7d$$u7d$$GT$17hcec84e3ff4d91930E', symObjAddr: 0x1104, symBinAddr: 0x100001A14, symSize: 0x18 }
  - { offset: 0x6AB4, size: 0x8, addend: 0x0, symName: '__ZN4core3ptr130drop_in_place$LT$alloc..sync..Arc$LT$tokio..sync..mpsc..chan..Chan$LT$$LP$$RP$$C$tokio..sync..mpsc..bounded..Semaphore$GT$$GT$$GT$17h5b680a01a633028eE', symObjAddr: 0x111C, symBinAddr: 0x100001A2C, symSize: 0x1C }
  - { offset: 0x6B63, size: 0x8, addend: 0x0, symName: '__ZN4core3ptr130drop_in_place$LT$core..result..Result$LT$$LP$$RP$$C$alloc..boxed..Box$LT$dyn$u20$core..any..Any$u2b$core..marker..Send$GT$$GT$$GT$17had0128cc36e9d1a5E', symObjAddr: 0x1138, symBinAddr: 0x100001A48, symSize: 0xC }
  - { offset: 0x6B8F, size: 0x8, addend: 0x0, symName: '__ZN4core3ptr133drop_in_place$LT$anyhow..error..ErrorImpl$LT$anyhow..error..ContextError$LT$alloc..string..String$C$std..io..error..Error$GT$$GT$$GT$17h8499b66ccebe7368E', symObjAddr: 0x1144, symBinAddr: 0x100001A54, symSize: 0x20 }
  - { offset: 0x6BBF, size: 0x8, addend: 0x0, symName: '__ZN4core3ptr134drop_in_place$LT$tokio..sync..mpsc..bounded..Sender$LT$sakissh..sakissh..FileChunk$GT$..reserve_inner..$u7b$$u7b$closure$u7d$$u7d$$GT$17h64c75ad64a425d94E', symObjAddr: 0x1164, symBinAddr: 0x100001A74, symSize: 0x18 }
  - { offset: 0x6C63, size: 0x8, addend: 0x0, symName: '__ZN4core3ptr139drop_in_place$LT$tonic..request..Request$LT$tokio_stream..wrappers..mpsc_bounded..ReceiverStream$LT$sakissh..sakissh..FileChunk$GT$$GT$$GT$17h3e3ea6e5a7447625E', symObjAddr: 0x117C, symBinAddr: 0x100001A8C, symSize: 0x24 }
  - { offset: 0x6CD3, size: 0x8, addend: 0x0, symName: '__ZN4core3ptr140drop_in_place$LT$tokio..runtime..task..core..Stage$LT$sakissh..upload_file..$u7b$$u7b$closure$u7d$$u7d$..$u7b$$u7b$closure$u7d$$u7d$$GT$$GT$17h15ec722aa2601005E', symObjAddr: 0x11A0, symBinAddr: 0x100001AB0, symSize: 0x24 }
  - { offset: 0x6D03, size: 0x8, addend: 0x0, symName: '__ZN4core3ptr141drop_in_place$LT$tokio..runtime..task..core..Stage$LT$sakissh..exec_command..$u7b$$u7b$closure$u7d$$u7d$..$u7b$$u7b$closure$u7d$$u7d$$GT$$GT$17hcb8a82037775f24fE', symObjAddr: 0x11C4, symBinAddr: 0x100001AD4, symSize: 0x24 }
  - { offset: 0x6D71, size: 0x8, addend: 0x0, symName: '__ZN4core3ptr141drop_in_place$LT$tonic..transport..channel..service..connector..Connector$LT$hyper_util..client..legacy..connect..http..HttpConnector$GT$$GT$17hc5593e80d8b5bb76E', symObjAddr: 0x11E8, symBinAddr: 0x100001AF8, symSize: 0x1C }
  - { offset: 0x6D99, size: 0x8, addend: 0x0, symName: '__ZN4core3ptr141drop_in_place$LT$tonic..transport..channel..service..connector..Connector$LT$hyper_util..client..legacy..connect..http..HttpConnector$GT$$GT$17hc5593e80d8b5bb76E', symObjAddr: 0x11E8, symBinAddr: 0x100001AF8, symSize: 0x1C }
  - { offset: 0x6DB5, size: 0x8, addend: 0x0, symName: '__ZN4core3ptr141drop_in_place$LT$tonic..transport..channel..service..connector..Connector$LT$hyper_util..client..legacy..connect..http..HttpConnector$GT$$GT$17hc5593e80d8b5bb76E', symObjAddr: 0x11E8, symBinAddr: 0x100001AF8, symSize: 0x1C }
  - { offset: 0x6DD1, size: 0x8, addend: 0x0, symName: '__ZN4core3ptr141drop_in_place$LT$tonic..transport..channel..service..connector..Connector$LT$hyper_util..client..legacy..connect..http..HttpConnector$GT$$GT$17hc5593e80d8b5bb76E', symObjAddr: 0x11E8, symBinAddr: 0x100001AF8, symSize: 0x1C }
  - { offset: 0x6DED, size: 0x8, addend: 0x0, symName: '__ZN4core3ptr141drop_in_place$LT$tonic..transport..channel..service..connector..Connector$LT$hyper_util..client..legacy..connect..http..HttpConnector$GT$$GT$17hc5593e80d8b5bb76E', symObjAddr: 0x11E8, symBinAddr: 0x100001AF8, symSize: 0x1C }
  - { offset: 0x6E09, size: 0x8, addend: 0x0, symName: '__ZN4core3ptr141drop_in_place$LT$tonic..transport..channel..service..connector..Connector$LT$hyper_util..client..legacy..connect..http..HttpConnector$GT$$GT$17hc5593e80d8b5bb76E', symObjAddr: 0x11E8, symBinAddr: 0x100001AF8, symSize: 0x1C }
  - { offset: 0x6E28, size: 0x8, addend: 0x0, symName: '__ZN4core3ptr149drop_in_place$LT$alloc..sync..Arc$LT$tokio..sync..mpsc..chan..Chan$LT$sakissh..sakissh..FileChunk$C$tokio..sync..mpsc..bounded..Semaphore$GT$$GT$$GT$17hfb92ae94af4b8d64E', symObjAddr: 0x1204, symBinAddr: 0x100001B14, symSize: 0x1C }
  - { offset: 0x6ED7, size: 0x8, addend: 0x0, symName: '__ZN4core3ptr150drop_in_place$LT$core..result..Result$LT$core..result..Result$LT$$LP$$RP$$C$std..io..error..Error$GT$$C$tokio..runtime..task..error..JoinError$GT$$GT$17h182891562ca09d9bE', symObjAddr: 0x1220, symBinAddr: 0x100001B30, symSize: 0x18 }
  - { offset: 0x6FA2, size: 0x8, addend: 0x0, symName: '__ZN4core3ptr155drop_in_place$LT$core..result..Result$LT$core..result..Result$LT$std..fs..File$C$std..io..error..Error$GT$$C$tokio..runtime..task..error..JoinError$GT$$GT$17hfe81fbf68958a266E', symObjAddr: 0x1238, symBinAddr: 0x100001B48, symSize: 0x24 }
  - { offset: 0x7098, size: 0x8, addend: 0x0, symName: '__ZN4core3ptr156drop_in_place$LT$http..response..Response$LT$http_body_util..combinators..box_body..UnsyncBoxBody$LT$bytes..bytes..Bytes$C$tonic..status..Status$GT$$GT$$GT$17h340992f82fc087afE', symObjAddr: 0x125C, symBinAddr: 0x100001B6C, symSize: 0x24 }
  - { offset: 0x71C1, size: 0x8, addend: 0x0, symName: '__ZN4core3ptr168drop_in_place$LT$core..iter..adapters..flatten..Flatten$LT$alloc..vec..into_iter..IntoIter$LT$alloc..vec..Vec$LT$clap_builder..util..any_value..AnyValue$GT$$GT$$GT$$GT$17hd1d67efc7c5119cbE', symObjAddr: 0x1280, symBinAddr: 0x100001B90, symSize: 0x68 }
  - { offset: 0x73DE, size: 0x8, addend: 0x0, symName: '__ZN4core3ptr180drop_in_place$LT$core..task..poll..Poll$LT$core..result..Result$LT$core..result..Result$LT$$LP$$RP$$C$std..io..error..Error$GT$$C$tokio..runtime..task..error..JoinError$GT$$GT$$GT$17h63e6f2e0d9d5a89dE', symObjAddr: 0x12E8, symBinAddr: 0x100001BF8, symSize: 0x10 }
  - { offset: 0x740E, size: 0x8, addend: 0x0, symName: '__ZN4core3ptr185drop_in_place$LT$core..task..poll..Poll$LT$core..result..Result$LT$core..result..Result$LT$std..fs..File$C$std..io..error..Error$GT$$C$tokio..runtime..task..error..JoinError$GT$$GT$$GT$17h93450e210ffb873aE', symObjAddr: 0x12F8, symBinAddr: 0x100001C08, symSize: 0x10 }
  - { offset: 0x745D, size: 0x8, addend: 0x0, symName: '__ZN4core3ptr200drop_in_place$LT$core..option..Option$LT$alloc..sync..Arc$LT$dyn$u20$core..ops..function..Fn$LT$$LP$$RP$$GT$$u2b$Output$u20$$u3d$$u20$$LP$$RP$$u2b$core..marker..Sync$u2b$core..marker..Send$GT$$GT$$GT$17h3cf5a0cf0104a09cE', symObjAddr: 0x1308, symBinAddr: 0x100001C18, symSize: 0x20 }
  - { offset: 0x7551, size: 0x8, addend: 0x0, symName: '__ZN4core3ptr212drop_in_place$LT$tokio..fs..asyncify$LT$tokio..fs..open_options..OpenOptions..std_open$LT$$RF$str$GT$..$u7b$$u7b$closure$u7d$$u7d$..$u7b$$u7b$closure$u7d$$u7d$$C$std..fs..File$GT$..$u7b$$u7b$closure$u7d$$u7d$$GT$17hc12eb2c310e4f575E', symObjAddr: 0x1328, symBinAddr: 0x100001C38, symSize: 0x34 }
  - { offset: 0x7649, size: 0x8, addend: 0x0, symName: '__ZN4core3ptr214drop_in_place$LT$sakissh..sakissh..saki_ssh_client..SakiSshClient$LT$tonic..transport..channel..Channel$GT$..ping$LT$tonic..request..Request$LT$sakissh..sakissh..PingRequest$GT$$GT$..$u7b$$u7b$closure$u7d$$u7d$$GT$17h97ac97ba31b66533E', symObjAddr: 0x135C, symBinAddr: 0x100001C6C, symSize: 0x5C }
  - { offset: 0x773A, size: 0x8, addend: 0x0, symName: '__ZN4core3ptr214drop_in_place$LT$tokio..fs..asyncify$LT$tokio..fs..create_dir_all..create_dir_all$LT$$RF$std..path..Path$GT$..$u7b$$u7b$closure$u7d$$u7d$..$u7b$$u7b$closure$u7d$$u7d$$C$$LP$$RP$$GT$..$u7b$$u7b$closure$u7d$$u7d$$GT$17h2cfd39d06dcf8dd4E', symObjAddr: 0x13B8, symBinAddr: 0x100001CC8, symSize: 0x34 }
  - { offset: 0x7A26, size: 0x8, addend: 0x0, symName: '__ZN4core3ptr215drop_in_place$LT$tokio..time..timeout..Timeout$LT$sakissh..sakissh..saki_ssh_client..SakiSshClient$LT$tonic..transport..channel..Channel$GT$..connect$LT$alloc..string..String$GT$..$u7b$$u7b$closure$u7d$$u7d$$GT$$GT$17h5a50fa571ebb0064E', symObjAddr: 0x13EC, symBinAddr: 0x100001CFC, symSize: 0x70 }
  - { offset: 0x7C28, size: 0x8, addend: 0x0, symName: '__ZN4core3ptr218drop_in_place$LT$sakissh..sakissh..saki_ssh_client..SakiSshClient$LT$tonic..transport..channel..Channel$GT$..cancel$LT$tonic..request..Request$LT$sakissh..sakissh..CancelRequest$GT$$GT$..$u7b$$u7b$closure$u7d$$u7d$$GT$17hfc11d851783eb6e8E', symObjAddr: 0x145C, symBinAddr: 0x100001D6C, symSize: 0x5C }
  - { offset: 0x7CFA, size: 0x8, addend: 0x0, symName: '__ZN4core3ptr218drop_in_place$LT$sakissh..sakissh..saki_ssh_client..SakiSshClient$LT$tonic..transport..channel..Channel$GT$..signal$LT$tonic..request..Request$LT$sakissh..sakissh..SignalRequest$GT$$GT$..$u7b$$u7b$closure$u7d$$u7d$$GT$17h290b3c1372f879cdE', symObjAddr: 0x14B8, symBinAddr: 0x100001DC8, symSize: 0x5C }
  - { offset: 0x7DCC, size: 0x8, addend: 0x0, symName: '__ZN4core3ptr221drop_in_place$LT$tonic..transport..channel..Channel..connect$LT$tonic..transport..channel..service..connector..Connector$LT$hyper_util..client..legacy..connect..http..HttpConnector$GT$$GT$..$u7b$$u7b$closure$u7d$$u7d$$GT$17h9af897f5bcef5568E', symObjAddr: 0x1514, symBinAddr: 0x100001E24, symSize: 0x54 }
  - { offset: 0x7E7C, size: 0x8, addend: 0x0, symName: '__ZN4core3ptr227drop_in_place$LT$sakissh..sakissh..saki_ssh_client..SakiSshClient$LT$tonic..transport..channel..Channel$GT$..execute_stream$LT$tonic..request..Request$LT$sakissh..sakissh..ExecuteRequest$GT$$GT$..$u7b$$u7b$closure$u7d$$u7d$$GT$17h1899acbddb556fd0E', symObjAddr: 0x1568, symBinAddr: 0x100001E78, symSize: 0x5C }
  - { offset: 0x7F4E, size: 0x8, addend: 0x0, symName: '__ZN4core3ptr231drop_in_place$LT$sakissh..sakissh..saki_ssh_client..SakiSshClient$LT$tonic..transport..channel..Channel$GT$..file_download$LT$tonic..request..Request$LT$sakissh..sakissh..FileDownloadRequest$GT$$GT$..$u7b$$u7b$closure$u7d$$u7d$$GT$17h4ee7351279b3d1f4E', symObjAddr: 0x15C4, symBinAddr: 0x100001ED4, symSize: 0x5C }
  - { offset: 0x805E, size: 0x8, addend: 0x0, symName: '__ZN4core3ptr233drop_in_place$LT$tokio..runtime..task..core..Stage$LT$tokio..runtime..blocking..task..BlockingTask$LT$tokio..fs..open_options..OpenOptions..std_open$LT$$RF$str$GT$..$u7b$$u7b$closure$u7d$$u7d$..$u7b$$u7b$closure$u7d$$u7d$$GT$$GT$$GT$17hea0491723b08292cE', symObjAddr: 0x1620, symBinAddr: 0x100001F30, symSize: 0x38 }
  - { offset: 0x8176, size: 0x8, addend: 0x0, symName: '__ZN4core3ptr240drop_in_place$LT$tokio..runtime..task..core..Stage$LT$tokio..runtime..blocking..task..BlockingTask$LT$tokio..fs..create_dir_all..create_dir_all$LT$$RF$std..path..Path$GT$..$u7b$$u7b$closure$u7d$$u7d$..$u7b$$u7b$closure$u7d$$u7d$$GT$$GT$$GT$17h21fb473f757a97ecE', symObjAddr: 0x1658, symBinAddr: 0x100001F68, symSize: 0x38 }
  - { offset: 0x8250, size: 0x8, addend: 0x0, symName: '__ZN4core3ptr245drop_in_place$LT$tonic..transport..channel..service..connection..Connection..connect$LT$tonic..transport..channel..service..connector..Connector$LT$hyper_util..client..legacy..connect..http..HttpConnector$GT$$GT$..$u7b$$u7b$closure$u7d$$u7d$$GT$17h131b84264dff3ec3E', symObjAddr: 0x1690, symBinAddr: 0x100001FA0, symSize: 0x50 }
  - { offset: 0x82EB, size: 0x8, addend: 0x0, symName: '__ZN4core3ptr246drop_in_place$LT$core..option..Option$LT$tokio_stream..stream_ext..map..Map$LT$tokio_stream..once..Once$LT$sakissh..sakissh..ExecuteRequest$GT$$C$core..result..Result$LT$sakissh..sakissh..ExecuteRequest$C$tonic..status..Status$GT$..Ok$GT$$GT$$GT$17h98911b6894528e62E', symObjAddr: 0x16E0, symBinAddr: 0x100001FF0, symSize: 0x1C }
  - { offset: 0x83B2, size: 0x8, addend: 0x0, symName: '__ZN4core3ptr255drop_in_place$LT$tower..util..ready..ReadyOneshot$LT$tonic..transport..channel..service..connection..Connection$C$http..request..Request$LT$http_body_util..combinators..box_body..UnsyncBoxBody$LT$bytes..bytes..Bytes$C$tonic..status..Status$GT$$GT$$GT$$GT$17h92792a9f1d4b1613E', symObjAddr: 0x16FC, symBinAddr: 0x10000200C, symSize: 0x38 }
  - { offset: 0x8542, size: 0x8, addend: 0x0, symName: '__ZN4core3ptr264drop_in_place$LT$core..option..Option$LT$tokio_stream..stream_ext..map..Map$LT$tokio_stream..wrappers..mpsc_bounded..ReceiverStream$LT$sakissh..sakissh..FileChunk$GT$$C$core..result..Result$LT$sakissh..sakissh..FileChunk$C$tonic..status..Status$GT$..Ok$GT$$GT$$GT$17h77c9f834e91e6b6dE', symObjAddr: 0x1734, symBinAddr: 0x100002044, symSize: 0xC }
  - { offset: 0x8691, size: 0x8, addend: 0x0, symName: '__ZN4core3ptr276drop_in_place$LT$std..thread..Builder..spawn_unchecked_$LT$ctrlc..set_handler_inner$LT$sakissh..exec_command..$u7b$$u7b$closure$u7d$$u7d$..$u7b$$u7b$closure$u7d$$u7d$..$u7b$$u7b$closure$u7d$$u7d$$GT$..$u7b$$u7b$closure$u7d$$u7d$$C$$LP$$RP$$GT$..$u7b$$u7b$closure$u7d$$u7d$$GT$17h82f2a011153b82fcE', symObjAddr: 0x1740, symBinAddr: 0x100002050, symSize: 0x50 }
  - { offset: 0x87C6, size: 0x8, addend: 0x0, symName: '__ZN4core3ptr279drop_in_place$LT$sakissh..sakissh..saki_ssh_client..SakiSshClient$LT$tonic..transport..channel..Channel$GT$..file_upload$LT$tonic..request..Request$LT$tokio_stream..wrappers..mpsc_bounded..ReceiverStream$LT$sakissh..sakissh..FileChunk$GT$$GT$$GT$..$u7b$$u7b$closure$u7d$$u7d$$GT$17h2404310aa706bffcE', symObjAddr: 0x1790, symBinAddr: 0x1000020A0, symSize: 0x5C }
  - { offset: 0x88D6, size: 0x8, addend: 0x0, symName: '__ZN4core3ptr298drop_in_place$LT$tonic..client..grpc..Grpc$LT$tonic..transport..channel..Channel$GT$..unary$LT$sakissh..sakissh..PingRequest$C$sakissh..sakissh..PingResponse$C$tonic..codec..prost..ProstCodec$LT$sakissh..sakissh..PingRequest$C$sakissh..sakissh..PingResponse$GT$$GT$..$u7b$$u7b$closure$u7d$$u7d$$GT$17h3d6575a55e2eb386E', symObjAddr: 0x17EC, symBinAddr: 0x1000020FC, symSize: 0x4C }
  - { offset: 0x89E2, size: 0x8, addend: 0x0, symName: '__ZN4core3ptr306drop_in_place$LT$tonic..client..grpc..Grpc$LT$tonic..transport..channel..Channel$GT$..unary$LT$sakissh..sakissh..CancelRequest$C$sakissh..sakissh..CancelResponse$C$tonic..codec..prost..ProstCodec$LT$sakissh..sakissh..CancelRequest$C$sakissh..sakissh..CancelResponse$GT$$GT$..$u7b$$u7b$closure$u7d$$u7d$$GT$17h7a81bf215bb681d3E', symObjAddr: 0x1838, symBinAddr: 0x100002148, symSize: 0x4C }
  - { offset: 0x8AEE, size: 0x8, addend: 0x0, symName: '__ZN4core3ptr306drop_in_place$LT$tonic..client..grpc..Grpc$LT$tonic..transport..channel..Channel$GT$..unary$LT$sakissh..sakissh..SignalRequest$C$sakissh..sakissh..SignalResponse$C$tonic..codec..prost..ProstCodec$LT$sakissh..sakissh..SignalRequest$C$sakissh..sakissh..SignalResponse$GT$$GT$..$u7b$$u7b$closure$u7d$$u7d$$GT$17hb0a09fd599e6c7faE', symObjAddr: 0x1884, symBinAddr: 0x100002194, symSize: 0x4C }
  - { offset: 0x8C76, size: 0x8, addend: 0x0, symName: '__ZN4core3ptr310drop_in_place$LT$core..option..Option$LT$alloc..boxed..Box$LT$std..collections..hash..map..HashMap$LT$core..any..TypeId$C$alloc..boxed..Box$LT$dyn$u20$http..extensions..AnyClone$u2b$core..marker..Sync$u2b$core..marker..Send$GT$$C$core..hash..BuildHasherDefault$LT$http..extensions..IdHasher$GT$$GT$$GT$$GT$$GT$17h30b8dc030402c304E', symObjAddr: 0x18D0, symBinAddr: 0x1000021E0, symSize: 0x28 }
  - { offset: 0x8DCF, size: 0x8, addend: 0x0, symName: '__ZN4core3ptr319drop_in_place$LT$tonic..client..grpc..Grpc$LT$tonic..transport..channel..Channel$GT$..server_streaming$LT$sakissh..sakissh..ExecuteRequest$C$sakissh..sakissh..StreamResponse$C$tonic..codec..prost..ProstCodec$LT$sakissh..sakissh..ExecuteRequest$C$sakissh..sakissh..StreamResponse$GT$$GT$..$u7b$$u7b$closure$u7d$$u7d$$GT$17h02a1912fee1dee26E', symObjAddr: 0x18F8, symBinAddr: 0x100002208, symSize: 0x4C }
  - { offset: 0x8EE6, size: 0x8, addend: 0x0, symName: '__ZN4core3ptr319drop_in_place$LT$tonic..client..grpc..Grpc$LT$tonic..transport..channel..Channel$GT$..server_streaming$LT$sakissh..sakissh..FileDownloadRequest$C$sakissh..sakissh..FileChunk$C$tonic..codec..prost..ProstCodec$LT$sakissh..sakissh..FileDownloadRequest$C$sakissh..sakissh..FileChunk$GT$$GT$..$u7b$$u7b$closure$u7d$$u7d$$GT$17hdcefc63bded3d671E', symObjAddr: 0x1944, symBinAddr: 0x100002254, symSize: 0x4C }
  - { offset: 0x905A, size: 0x8, addend: 0x0, symName: '__ZN4core3ptr325drop_in_place$LT$tonic..codec..encode..EncodeBody$LT$tonic..codec..prost..ProstEncoder$LT$sakissh..sakissh..PingRequest$GT$$C$tokio_stream..stream_ext..map..Map$LT$tokio_stream..once..Once$LT$sakissh..sakissh..PingRequest$GT$$C$core..result..Result$LT$sakissh..sakissh..PingRequest$C$tonic..status..Status$GT$..Ok$GT$$GT$$GT$17hf9390c1c0075920dE', symObjAddr: 0x1990, symBinAddr: 0x1000022A0, symSize: 0x2C }
  - { offset: 0x90F0, size: 0x8, addend: 0x0, symName: '__ZN4core3ptr331drop_in_place$LT$tonic..codec..encode..EncodeBody$LT$tonic..codec..prost..ProstEncoder$LT$sakissh..sakissh..CancelRequest$GT$$C$tokio_stream..stream_ext..map..Map$LT$tokio_stream..once..Once$LT$sakissh..sakissh..CancelRequest$GT$$C$core..result..Result$LT$sakissh..sakissh..CancelRequest$C$tonic..status..Status$GT$..Ok$GT$$GT$$GT$17h30e418dd9a9b1e80E', symObjAddr: 0x19BC, symBinAddr: 0x1000022CC, symSize: 0x2C }
  - { offset: 0x917F, size: 0x8, addend: 0x0, symName: '__ZN4core3ptr331drop_in_place$LT$tonic..codec..encode..EncodeBody$LT$tonic..codec..prost..ProstEncoder$LT$sakissh..sakissh..SignalRequest$GT$$C$tokio_stream..stream_ext..map..Map$LT$tokio_stream..once..Once$LT$sakissh..sakissh..SignalRequest$GT$$C$core..result..Result$LT$sakissh..sakissh..SignalRequest$C$tonic..status..Status$GT$..Ok$GT$$GT$$GT$17h7c511ee78920cd30E', symObjAddr: 0x19E8, symBinAddr: 0x1000022F8, symSize: 0x2C }
  - { offset: 0x922D, size: 0x8, addend: 0x0, symName: '__ZN4core3ptr334drop_in_place$LT$tonic..codec..encode..EncodeBody$LT$tonic..codec..prost..ProstEncoder$LT$sakissh..sakissh..ExecuteRequest$GT$$C$tokio_stream..stream_ext..map..Map$LT$tokio_stream..once..Once$LT$sakissh..sakissh..ExecuteRequest$GT$$C$core..result..Result$LT$sakissh..sakissh..ExecuteRequest$C$tonic..status..Status$GT$..Ok$GT$$GT$$GT$17h4da5e14e16b219b1E', symObjAddr: 0x1A14, symBinAddr: 0x100002324, symSize: 0x34 }
  - { offset: 0x92F7, size: 0x8, addend: 0x0, symName: '__ZN4core3ptr347drop_in_place$LT$tonic..codec..encode..EncodeBody$LT$tonic..codec..prost..ProstEncoder$LT$sakissh..sakissh..FileChunk$GT$$C$tokio_stream..stream_ext..map..Map$LT$tokio_stream..wrappers..mpsc_bounded..ReceiverStream$LT$sakissh..sakissh..FileChunk$GT$$C$core..result..Result$LT$sakissh..sakissh..FileChunk$C$tonic..status..Status$GT$..Ok$GT$$GT$$GT$17hd472b8c8ac23ff4aE', symObjAddr: 0x1A48, symBinAddr: 0x100002358, symSize: 0x34 }
  - { offset: 0x940A, size: 0x8, addend: 0x0, symName: '__ZN4core3ptr35drop_in_place$LT$http..uri..Uri$GT$17h56d1a01b799bdedbE', symObjAddr: 0x1A7C, symBinAddr: 0x10000238C, symSize: 0x38 }
  - { offset: 0x94E9, size: 0x8, addend: 0x0, symName: '__ZN4core3ptr366drop_in_place$LT$tonic..client..grpc..Grpc$LT$tonic..transport..channel..Channel$GT$..streaming$LT$tokio_stream..once..Once$LT$sakissh..sakissh..PingRequest$GT$$C$sakissh..sakissh..PingRequest$C$sakissh..sakissh..PingResponse$C$tonic..codec..prost..ProstCodec$LT$sakissh..sakissh..PingRequest$C$sakissh..sakissh..PingResponse$GT$$GT$..$u7b$$u7b$closure$u7d$$u7d$$GT$17h73c16b84eb33892dE', symObjAddr: 0x1AB4, symBinAddr: 0x1000023C4, symSize: 0x48 }
  - { offset: 0x963A, size: 0x8, addend: 0x0, symName: '__ZN4core3ptr373drop_in_place$LT$tonic..client..grpc..Grpc$LT$tonic..transport..channel..Channel$GT$..client_streaming$LT$tokio_stream..once..Once$LT$sakissh..sakissh..PingRequest$GT$$C$sakissh..sakissh..PingRequest$C$sakissh..sakissh..PingResponse$C$tonic..codec..prost..ProstCodec$LT$sakissh..sakissh..PingRequest$C$sakissh..sakissh..PingResponse$GT$$GT$..$u7b$$u7b$closure$u7d$$u7d$$GT$17hf2286a02facd6fceE', symObjAddr: 0x1AFC, symBinAddr: 0x10000240C, symSize: 0x84 }
  - { offset: 0x97AD, size: 0x8, addend: 0x0, symName: '__ZN4core3ptr376drop_in_place$LT$tonic..client..grpc..Grpc$LT$tonic..transport..channel..Channel$GT$..streaming$LT$tokio_stream..once..Once$LT$sakissh..sakissh..CancelRequest$GT$$C$sakissh..sakissh..CancelRequest$C$sakissh..sakissh..CancelResponse$C$tonic..codec..prost..ProstCodec$LT$sakissh..sakissh..CancelRequest$C$sakissh..sakissh..CancelResponse$GT$$GT$..$u7b$$u7b$closure$u7d$$u7d$$GT$17h7009b8befa99b4eeE', symObjAddr: 0x1B80, symBinAddr: 0x100002490, symSize: 0x48 }
  - { offset: 0x98DF, size: 0x8, addend: 0x0, symName: '__ZN4core3ptr376drop_in_place$LT$tonic..client..grpc..Grpc$LT$tonic..transport..channel..Channel$GT$..streaming$LT$tokio_stream..once..Once$LT$sakissh..sakissh..SignalRequest$GT$$C$sakissh..sakissh..SignalRequest$C$sakissh..sakissh..SignalResponse$C$tonic..codec..prost..ProstCodec$LT$sakissh..sakissh..SignalRequest$C$sakissh..sakissh..SignalResponse$GT$$GT$..$u7b$$u7b$closure$u7d$$u7d$$GT$17hc1e050c88b470e33E', symObjAddr: 0x1BC8, symBinAddr: 0x1000024D8, symSize: 0x48 }
  - { offset: 0x9A30, size: 0x8, addend: 0x0, symName: '__ZN4core3ptr379drop_in_place$LT$tonic..client..grpc..Grpc$LT$tonic..transport..channel..Channel$GT$..streaming$LT$tokio_stream..once..Once$LT$sakissh..sakissh..ExecuteRequest$GT$$C$sakissh..sakissh..ExecuteRequest$C$sakissh..sakissh..StreamResponse$C$tonic..codec..prost..ProstCodec$LT$sakissh..sakissh..ExecuteRequest$C$sakissh..sakissh..StreamResponse$GT$$GT$..$u7b$$u7b$closure$u7d$$u7d$$GT$17h54f7eaea2a507f0bE', symObjAddr: 0x1C10, symBinAddr: 0x100002520, symSize: 0x54 }
  - { offset: 0x9BBE, size: 0x8, addend: 0x0, symName: '__ZN4core3ptr383drop_in_place$LT$tonic..client..grpc..Grpc$LT$tonic..transport..channel..Channel$GT$..client_streaming$LT$tokio_stream..once..Once$LT$sakissh..sakissh..CancelRequest$GT$$C$sakissh..sakissh..CancelRequest$C$sakissh..sakissh..CancelResponse$C$tonic..codec..prost..ProstCodec$LT$sakissh..sakissh..CancelRequest$C$sakissh..sakissh..CancelResponse$GT$$GT$..$u7b$$u7b$closure$u7d$$u7d$$GT$17h6da2df91b6b998b0E', symObjAddr: 0x1C64, symBinAddr: 0x100002574, symSize: 0x88 }
  - { offset: 0x9DBB, size: 0x8, addend: 0x0, symName: '__ZN4core3ptr383drop_in_place$LT$tonic..client..grpc..Grpc$LT$tonic..transport..channel..Channel$GT$..client_streaming$LT$tokio_stream..once..Once$LT$sakissh..sakissh..SignalRequest$GT$$C$sakissh..sakissh..SignalRequest$C$sakissh..sakissh..SignalResponse$C$tonic..codec..prost..ProstCodec$LT$sakissh..sakissh..SignalRequest$C$sakissh..sakissh..SignalResponse$GT$$GT$..$u7b$$u7b$closure$u7d$$u7d$$GT$17hf2de9acaa107cbbeE', symObjAddr: 0x1CEC, symBinAddr: 0x1000025FC, symSize: 0x88 }
  - { offset: 0x9FB8, size: 0x8, addend: 0x0, symName: '__ZN4core3ptr384drop_in_place$LT$tonic..client..grpc..Grpc$LT$tonic..transport..channel..Channel$GT$..streaming$LT$tokio_stream..once..Once$LT$sakissh..sakissh..FileDownloadRequest$GT$$C$sakissh..sakissh..FileDownloadRequest$C$sakissh..sakissh..FileChunk$C$tonic..codec..prost..ProstCodec$LT$sakissh..sakissh..FileDownloadRequest$C$sakissh..sakissh..FileChunk$GT$$GT$..$u7b$$u7b$closure$u7d$$u7d$$GT$17h8e11625e26dff5a6E', symObjAddr: 0x1D74, symBinAddr: 0x100002684, symSize: 0x50 }
  - { offset: 0xA127, size: 0x8, addend: 0x0, symName: '__ZN4core3ptr404drop_in_place$LT$tonic..client..grpc..Grpc$LT$tonic..transport..channel..Channel$GT$..streaming$LT$tokio_stream..wrappers..mpsc_bounded..ReceiverStream$LT$sakissh..sakissh..FileChunk$GT$$C$sakissh..sakissh..FileChunk$C$sakissh..sakissh..FileTransferResponse$C$tonic..codec..prost..ProstCodec$LT$sakissh..sakissh..FileChunk$C$sakissh..sakissh..FileTransferResponse$GT$$GT$..$u7b$$u7b$closure$u7d$$u7d$$GT$17hdfb2307ea2c7cfc4E', symObjAddr: 0x1DC4, symBinAddr: 0x1000026D4, symSize: 0x48 }
  - { offset: 0xA259, size: 0x8, addend: 0x0, symName: '__ZN4core3ptr40drop_in_place$LT$bytes..bytes..Bytes$GT$17h08bcebb16f7f0b14E', symObjAddr: 0x1E0C, symBinAddr: 0x10000271C, symSize: 0x4 }
  - { offset: 0xA29C, size: 0x8, addend: 0x0, symName: '__ZN4core3ptr411drop_in_place$LT$tonic..client..grpc..Grpc$LT$tonic..transport..channel..Channel$GT$..client_streaming$LT$tokio_stream..wrappers..mpsc_bounded..ReceiverStream$LT$sakissh..sakissh..FileChunk$GT$$C$sakissh..sakissh..FileChunk$C$sakissh..sakissh..FileTransferResponse$C$tonic..codec..prost..ProstCodec$LT$sakissh..sakissh..FileChunk$C$sakissh..sakissh..FileTransferResponse$GT$$GT$..$u7b$$u7b$closure$u7d$$u7d$$GT$17h1f579a7d1f3c301eE', symObjAddr: 0x1E10, symBinAddr: 0x100002720, symSize: 0x88 }
  - { offset: 0xA4D7, size: 0x8, addend: 0x0, symName: '__ZN4core3ptr42drop_in_place$LT$std..io..error..Error$GT$17h050b6c38bab77691E', symObjAddr: 0x1E98, symBinAddr: 0x1000027A8, symSize: 0x34 }
  - { offset: 0xA74D, size: 0x8, addend: 0x0, symName: '__ZN4core3ptr42drop_in_place$LT$tokio..fs..file..File$GT$17h1d98295d916c3f07E', symObjAddr: 0x1ECC, symBinAddr: 0x1000027DC, symSize: 0x6C }
  - { offset: 0xA92B, size: 0x8, addend: 0x0, symName: '__ZN4core3ptr42drop_in_place$LT$tonic..status..Status$GT$17h8f8c29d7e4c01b64E', symObjAddr: 0x1F38, symBinAddr: 0x100002848, symSize: 0x4C }
  - { offset: 0xAA03, size: 0x8, addend: 0x0, symName: '__ZN4core3ptr48drop_in_place$LT$tonic..codec..decode..State$GT$17h8cabd28d7fae1eddE', symObjAddr: 0x1F84, symBinAddr: 0x100002894, symSize: 0x1C }
  - { offset: 0xAAAD, size: 0x8, addend: 0x0, symName: '__ZN4core3ptr49drop_in_place$LT$http..header..map..HeaderMap$GT$17h1f24a5b5881efcb0E', symObjAddr: 0x1FA0, symBinAddr: 0x1000028B0, symSize: 0x50 }
  - { offset: 0xAC16, size: 0x8, addend: 0x0, symName: '__ZN4core3ptr51drop_in_place$LT$sakissh..sakissh..PingResponse$GT$17h6a3119e15ff3a6daE', symObjAddr: 0x1FF0, symBinAddr: 0x100002900, symSize: 0x30 }
  - { offset: 0xAE53, size: 0x8, addend: 0x0, symName: '__ZN4core3ptr53drop_in_place$LT$sakissh..sakissh..ExecuteRequest$GT$17h1a21e21b4c2b67b2E', symObjAddr: 0x2020, symBinAddr: 0x100002930, symSize: 0xE4 }
  - { offset: 0xB484, size: 0x8, addend: 0x0, symName: '__ZN4core3ptr58drop_in_place$LT$tokio..sync..batch_semaphore..Acquire$GT$17h150873cc3448dd64E', symObjAddr: 0x2104, symBinAddr: 0x100002A14, symSize: 0x34 }
  - { offset: 0xB666, size: 0x8, addend: 0x0, symName: '__ZN4core3ptr60drop_in_place$LT$clap_builder..builder..command..Command$GT$17h9f569e58d73809aeE', symObjAddr: 0x2138, symBinAddr: 0x100002A48, symSize: 0x50 }
  - { offset: 0xB79E, size: 0x8, addend: 0x0, symName: '__ZN4core3ptr60drop_in_place$LT$clap_builder..util..any_value..AnyValue$GT$17h4642c7706d7c8012E', symObjAddr: 0x2188, symBinAddr: 0x100002A98, symSize: 0x1C }
  - { offset: 0xB7C6, size: 0x8, addend: 0x0, symName: '__ZN4core3ptr60drop_in_place$LT$clap_builder..util..any_value..AnyValue$GT$17h4642c7706d7c8012E', symObjAddr: 0x2188, symBinAddr: 0x100002A98, symSize: 0x1C }
  - { offset: 0xB7E2, size: 0x8, addend: 0x0, symName: '__ZN4core3ptr60drop_in_place$LT$clap_builder..util..any_value..AnyValue$GT$17h4642c7706d7c8012E', symObjAddr: 0x2188, symBinAddr: 0x100002A98, symSize: 0x1C }
  - { offset: 0xB7FE, size: 0x8, addend: 0x0, symName: '__ZN4core3ptr60drop_in_place$LT$clap_builder..util..any_value..AnyValue$GT$17h4642c7706d7c8012E', symObjAddr: 0x2188, symBinAddr: 0x100002A98, symSize: 0x1C }
  - { offset: 0xB81A, size: 0x8, addend: 0x0, symName: '__ZN4core3ptr60drop_in_place$LT$clap_builder..util..any_value..AnyValue$GT$17h4642c7706d7c8012E', symObjAddr: 0x2188, symBinAddr: 0x100002A98, symSize: 0x1C }
  - { offset: 0xB930, size: 0x8, addend: 0x0, symName: '__ZN4core3ptr62drop_in_place$LT$tonic..transport..channel..ResponseFuture$GT$17h4a70aa5f254e4d4bE', symObjAddr: 0x21A4, symBinAddr: 0x100002AB4, symSize: 0x90 }
  - { offset: 0xBB7F, size: 0x8, addend: 0x0, symName: '__ZN4core3ptr63drop_in_place$LT$sakissh..main..$u7b$$u7b$closure$u7d$$u7d$$GT$17h0cccd67b3cacbc6bE', symObjAddr: 0x2234, symBinAddr: 0x100002B44, symSize: 0x160 }
  - { offset: 0xBEA1, size: 0x8, addend: 0x0, symName: '__ZN4core3ptr63drop_in_place$LT$tokio..sync..mutex..MutexGuard$LT$bool$GT$$GT$17ha5885b29fc4251f5E', symObjAddr: 0x2394, symBinAddr: 0x100002CA4, symSize: 0x8 }
  - { offset: 0xBEC7, size: 0x8, addend: 0x0, symName: '__ZN4core3ptr63drop_in_place$LT$tokio..sync..mutex..MutexGuard$LT$bool$GT$$GT$17ha5885b29fc4251f5E', symObjAddr: 0x2394, symBinAddr: 0x100002CA4, symSize: 0x8 }
  - { offset: 0xBF3F, size: 0x8, addend: 0x0, symName: '__ZN4core3ptr66drop_in_place$LT$tonic..transport..channel..endpoint..Endpoint$GT$17h9ba3a157cb263183E', symObjAddr: 0x239C, symBinAddr: 0x100002CAC, symSize: 0x4C }
  - { offset: 0xBFA8, size: 0x8, addend: 0x0, symName: '__ZN4core3ptr68drop_in_place$LT$sakissh..copy_file..$u7b$$u7b$closure$u7d$$u7d$$GT$17h5affbb98c3e98193E', symObjAddr: 0x23E8, symBinAddr: 0x100002CF8, symSize: 0x28 }
  - { offset: 0xC0EA, size: 0x8, addend: 0x0, symName: '__ZN4core3ptr70drop_in_place$LT$core..option..Option$LT$tonic..status..Status$GT$$GT$17ha164070fcd0cb3bfE', symObjAddr: 0x2410, symBinAddr: 0x100002D20, symSize: 0x14 }
  - { offset: 0xC118, size: 0x8, addend: 0x0, symName: '__ZN4core3ptr70drop_in_place$LT$sakissh..ping_daemon..$u7b$$u7b$closure$u7d$$u7d$$GT$17h1266df69b1c97f2aE', symObjAddr: 0x2424, symBinAddr: 0x100002D34, symSize: 0x18 }
  - { offset: 0xC172, size: 0x8, addend: 0x0, symName: '__ZN4core3ptr70drop_in_place$LT$sakissh..upload_file..$u7b$$u7b$closure$u7d$$u7d$$GT$17hf8156377d4fa5970E', symObjAddr: 0x243C, symBinAddr: 0x100002D4C, symSize: 0x68 }
  - { offset: 0xC2E9, size: 0x8, addend: 0x0, symName: '__ZN4core3ptr70drop_in_place$LT$tokio..runtime..context..current..SetCurrentGuard$GT$17h3c358a5666cdbd19E', symObjAddr: 0x24A4, symBinAddr: 0x100002DB4, symSize: 0x38 }
  - { offset: 0xC330, size: 0x8, addend: 0x0, symName: '__ZN4core3ptr71drop_in_place$LT$sakissh..exec_command..$u7b$$u7b$closure$u7d$$u7d$$GT$17h210f81e5ffdc00baE', symObjAddr: 0x24DC, symBinAddr: 0x100002DEC, symSize: 0x8C }
  - { offset: 0xC4F8, size: 0x8, addend: 0x0, symName: '__ZN4core3ptr72drop_in_place$LT$sakissh..download_file..$u7b$$u7b$closure$u7d$$u7d$$GT$17hd3f35b64541ca1e8E', symObjAddr: 0x2568, symBinAddr: 0x100002E78, symSize: 0xB0 }
  - { offset: 0xC679, size: 0x8, addend: 0x0, symName: '__ZN4core3ptr72drop_in_place$LT$tokio..runtime..context..runtime..EnterRuntimeGuard$GT$17hd992c2f3ddeb66d2E', symObjAddr: 0x2618, symBinAddr: 0x100002F28, symSize: 0x2C }
  - { offset: 0xC6A9, size: 0x8, addend: 0x0, symName: '__ZN4core3ptr73drop_in_place$LT$std..sync..poison..mutex..MutexGuard$LT$$LP$$RP$$GT$$GT$17h220e15146c894e1bE', symObjAddr: 0x2644, symBinAddr: 0x100002F54, symSize: 0x3C }
  - { offset: 0xC83D, size: 0x8, addend: 0x0, symName: '__ZN4core3ptr73drop_in_place$LT$tokio..sync..mpsc..bounded..Receiver$LT$$LP$$RP$$GT$$GT$17hd3e511b4b7ac1d14E', symObjAddr: 0x2680, symBinAddr: 0x100002F90, symSize: 0x54 }
  - { offset: 0xC988, size: 0x8, addend: 0x0, symName: '__ZN4core3ptr74drop_in_place$LT$anyhow..error..ErrorImpl$LT$std..io..error..Error$GT$$GT$17h3f4071da0a00e64bE', symObjAddr: 0x26D4, symBinAddr: 0x100002FE4, symSize: 0x20 }
  - { offset: 0xC9B8, size: 0x8, addend: 0x0, symName: '__ZN4core3ptr74drop_in_place$LT$anyhow..error..ErrorImpl$LT$tonic..status..Status$GT$$GT$17hb8d7cd7c80346ff9E', symObjAddr: 0x26F4, symBinAddr: 0x100003004, symSize: 0x20 }
  - { offset: 0xCA45, size: 0x8, addend: 0x0, symName: '__ZN4core3ptr74drop_in_place$LT$core..option..Option$LT$std..backtrace..Backtrace$GT$$GT$17h65573048fddc9996E', symObjAddr: 0x2714, symBinAddr: 0x100003024, symSize: 0x14 }
  - { offset: 0xCB7E, size: 0x8, addend: 0x0, symName: '__ZN4core3ptr75drop_in_place$LT$clap_builder..parser..matches..arg_matches..ArgMatches$GT$17h1f9c507f9310e003E', symObjAddr: 0x2728, symBinAddr: 0x100003038, symSize: 0x44 }
  - { offset: 0xCD20, size: 0x8, addend: 0x0, symName: '__ZN4core3ptr77drop_in_place$LT$tonic..transport..channel..service..executor..SharedExec$GT$17h3ca5f0543d219592E', symObjAddr: 0x276C, symBinAddr: 0x10000307C, symSize: 0x1C }
  - { offset: 0xCD48, size: 0x8, addend: 0x0, symName: '__ZN4core3ptr77drop_in_place$LT$tonic..transport..channel..service..executor..SharedExec$GT$17h3ca5f0543d219592E', symObjAddr: 0x276C, symBinAddr: 0x10000307C, symSize: 0x1C }
  - { offset: 0xCD64, size: 0x8, addend: 0x0, symName: '__ZN4core3ptr77drop_in_place$LT$tonic..transport..channel..service..executor..SharedExec$GT$17h3ca5f0543d219592E', symObjAddr: 0x276C, symBinAddr: 0x10000307C, symSize: 0x1C }
  - { offset: 0xCD80, size: 0x8, addend: 0x0, symName: '__ZN4core3ptr77drop_in_place$LT$tonic..transport..channel..service..executor..SharedExec$GT$17h3ca5f0543d219592E', symObjAddr: 0x276C, symBinAddr: 0x10000307C, symSize: 0x1C }
  - { offset: 0xCD9C, size: 0x8, addend: 0x0, symName: '__ZN4core3ptr77drop_in_place$LT$tonic..transport..channel..service..executor..SharedExec$GT$17h3ca5f0543d219592E', symObjAddr: 0x276C, symBinAddr: 0x10000307C, symSize: 0x1C }
  - { offset: 0xCDD9, size: 0x8, addend: 0x0, symName: '__ZN4core3ptr79drop_in_place$LT$core..result..Result$LT$$LP$$RP$$C$ctrlc..error..Error$GT$$GT$17h751d3ed0fee0fdabE', symObjAddr: 0x2788, symBinAddr: 0x100003098, symSize: 0x14 }
  - { offset: 0xCE26, size: 0x8, addend: 0x0, symName: '__ZN4core3ptr802drop_in_place$LT$http_body_util..combinators..map_err..MapErr$LT$http_body_util..combinators..map_frame..MapFrame$LT$http_body_util..combinators..box_body..UnsyncBoxBody$LT$bytes..bytes..Bytes$C$tonic..status..Status$GT$$C$tonic..codec..decode..Streaming$LT$sakissh..sakissh..FileChunk$GT$..new$LT$http_body_util..combinators..box_body..UnsyncBoxBody$LT$bytes..bytes..Bytes$C$tonic..status..Status$GT$$C$tonic..codec..prost..ProstDecoder$LT$sakissh..sakissh..FileChunk$GT$$GT$..$u7b$$u7b$closure$u7d$$u7d$$GT$$C$tonic..codec..decode..Streaming$LT$sakissh..sakissh..FileChunk$GT$..new$LT$http_body_util..combinators..box_body..UnsyncBoxBody$LT$bytes..bytes..Bytes$C$tonic..status..Status$GT$$C$tonic..codec..prost..ProstDecoder$LT$sakissh..sakissh..FileChunk$GT$$GT$..$u7b$$u7b$closure$u7d$$u7d$$GT$$GT$17hc3c86d5e7c9e5da1E', symObjAddr: 0x279C, symBinAddr: 0x1000030AC, symSize: 0x4 }
  - { offset: 0xCE88, size: 0x8, addend: 0x0, symName: '__ZN4core3ptr80drop_in_place$LT$sakissh..connect_with_failover..$u7b$$u7b$closure$u7d$$u7d$$GT$17ha771510cdabba5a2E', symObjAddr: 0x27A0, symBinAddr: 0x1000030B0, symSize: 0x38 }
  - { offset: 0xCF7C, size: 0x8, addend: 0x0, symName: '__ZN4core3ptr81drop_in_place$LT$core..result..Result$LT$$LP$$RP$$C$std..io..error..Error$GT$$GT$17h8b67bf3ebcdbf2deE', symObjAddr: 0x27D8, symBinAddr: 0x1000030E8, symSize: 0x10 }
  - { offset: 0xCFAA, size: 0x8, addend: 0x0, symName: '__ZN4core3ptr81drop_in_place$LT$tonic..request..Request$LT$sakissh..sakissh..PingRequest$GT$$GT$17h8954c69cd3f7581eE', symObjAddr: 0x27E8, symBinAddr: 0x1000030F8, symSize: 0x1C }
  - { offset: 0xCFFA, size: 0x8, addend: 0x0, symName: '__ZN4core3ptr82drop_in_place$LT$alloc..sync..Arc$LT$tokio..sync..mutex..Mutex$LT$bool$GT$$GT$$GT$17h86b71cac9b160274E', symObjAddr: 0x2804, symBinAddr: 0x100003114, symSize: 0x24 }
  - { offset: 0xD024, size: 0x8, addend: 0x0, symName: '__ZN4core3ptr82drop_in_place$LT$alloc..sync..Arc$LT$tokio..sync..mutex..Mutex$LT$bool$GT$$GT$$GT$17h86b71cac9b160274E', symObjAddr: 0x2804, symBinAddr: 0x100003114, symSize: 0x24 }
  - { offset: 0xD042, size: 0x8, addend: 0x0, symName: '__ZN4core3ptr82drop_in_place$LT$alloc..sync..Arc$LT$tokio..sync..mutex..Mutex$LT$bool$GT$$GT$$GT$17h86b71cac9b160274E', symObjAddr: 0x2804, symBinAddr: 0x100003114, symSize: 0x24 }
  - { offset: 0xD05E, size: 0x8, addend: 0x0, symName: '__ZN4core3ptr82drop_in_place$LT$alloc..sync..Arc$LT$tokio..sync..mutex..Mutex$LT$bool$GT$$GT$$GT$17h86b71cac9b160274E', symObjAddr: 0x2804, symBinAddr: 0x100003114, symSize: 0x24 }
  - { offset: 0xD096, size: 0x8, addend: 0x0, symName: '__ZN4core3ptr83drop_in_place$LT$tonic..request..Request$LT$sakissh..sakissh..CancelRequest$GT$$GT$17heae30040f668f201E', symObjAddr: 0x2828, symBinAddr: 0x100003138, symSize: 0x20 }
  - { offset: 0xD0E6, size: 0x8, addend: 0x0, symName: '__ZN4core3ptr83drop_in_place$LT$tonic..request..Request$LT$sakissh..sakissh..SignalRequest$GT$$GT$17h954c040ecda8fe19E', symObjAddr: 0x2848, symBinAddr: 0x100003158, symSize: 0x20 }
  - { offset: 0xD136, size: 0x8, addend: 0x0, symName: '__ZN4core3ptr84drop_in_place$LT$tonic..request..Request$LT$sakissh..sakissh..ExecuteRequest$GT$$GT$17hbcf9fd506a8f9758E', symObjAddr: 0x2868, symBinAddr: 0x100003178, symSize: 0x24 }
  - { offset: 0xD202, size: 0x8, addend: 0x0, symName: '__ZN4core3ptr85drop_in_place$LT$tokio_stream..once..Once$LT$sakissh..sakissh..ExecuteRequest$GT$$GT$17h2e04ee03f18aa0d1E', symObjAddr: 0x288C, symBinAddr: 0x10000319C, symSize: 0x1C }
  - { offset: 0xD2AB, size: 0x8, addend: 0x0, symName: '__ZN4core3ptr86drop_in_place$LT$core..option..Option$LT$sakissh..sakissh..file_chunk..Payload$GT$$GT$17hf527a3dd70af5aeaE', symObjAddr: 0x28A8, symBinAddr: 0x1000031B8, symSize: 0x34 }
  - { offset: 0xD382, size: 0x8, addend: 0x0, symName: '__ZN4core3ptr87drop_in_place$LT$tonic..codec..decode..Streaming$LT$sakissh..sakissh..FileChunk$GT$$GT$17h458b314bc92d5665E', symObjAddr: 0x28DC, symBinAddr: 0x1000031EC, symSize: 0x70 }
  - { offset: 0xD4EC, size: 0x8, addend: 0x0, symName: '__ZN4core3ptr88drop_in_place$LT$tokio..io..util..buf_reader..BufReader$LT$tokio..fs..file..File$GT$$GT$17h8e601a7e8f0c35fbE', symObjAddr: 0x294C, symBinAddr: 0x10000325C, symSize: 0x30 }
  - { offset: 0xD617, size: 0x8, addend: 0x0, symName: '__ZN4core3ptr90drop_in_place$LT$tokio..sync..mpsc..bounded..Sender$LT$sakissh..sakissh..FileChunk$GT$$GT$17h1bdff39a2a746bd1E', symObjAddr: 0x297C, symBinAddr: 0x10000328C, symSize: 0x3C }
  - { offset: 0xD6CF, size: 0x8, addend: 0x0, symName: '__ZN4core3ptr91drop_in_place$LT$tokio..sync..mpsc..error..SendError$LT$sakissh..sakissh..FileChunk$GT$$GT$17h856571d9335775adE', symObjAddr: 0x29B8, symBinAddr: 0x1000032C8, symSize: 0x4 }
  - { offset: 0xD6ED, size: 0x8, addend: 0x0, symName: '__ZN4core3ptr91drop_in_place$LT$tokio..sync..mpsc..error..SendError$LT$sakissh..sakissh..FileChunk$GT$$GT$17h856571d9335775adE', symObjAddr: 0x29B8, symBinAddr: 0x1000032C8, symSize: 0x4 }
  - { offset: 0xD745, size: 0x8, addend: 0x0, symName: '__ZN4core3ptr92drop_in_place$LT$tokio..sync..mpsc..bounded..Receiver$LT$sakissh..sakissh..FileChunk$GT$$GT$17hf7222f02fd283931E', symObjAddr: 0x29BC, symBinAddr: 0x1000032CC, symSize: 0x54 }
  - { offset: 0xDBB6, size: 0x8, addend: 0x0, symName: '__ZN4core3ptr93drop_in_place$LT$alloc..boxed..Box$LT$tokio..runtime..scheduler..current_thread..Core$GT$$GT$17h6fa7ea77ab5a5a01E', symObjAddr: 0x2A10, symBinAddr: 0x100003320, symSize: 0x88 }
  - { offset: 0xE0CA, size: 0x8, addend: 0x0, symName: '__ZN4core3ptr93drop_in_place$LT$tokio..sync..mutex..Mutex$LT$bool$GT$..lock..$u7b$$u7b$closure$u7d$$u7d$$GT$17hd136a807a6bbaf74E', symObjAddr: 0x2A98, symBinAddr: 0x1000033A8, symSize: 0x18 }
  - { offset: 0xE142, size: 0x8, addend: 0x0, symName: '__ZN4core3ptr94drop_in_place$LT$tokio..fs..file..File..create$LT$$RF$str$GT$..$u7b$$u7b$closure$u7d$$u7d$$GT$17h72954e5ac8b17e43E', symObjAddr: 0x2AB0, symBinAddr: 0x1000033C0, symSize: 0x18 }
  - { offset: 0xE198, size: 0x8, addend: 0x0, symName: '__ZN4core3ptr96drop_in_place$LT$tokio..sync..mutex..Mutex$LT$bool$GT$..acquire..$u7b$$u7b$closure$u7d$$u7d$$GT$17h4774f82062074c02E', symObjAddr: 0x2AC8, symBinAddr: 0x1000033D8, symSize: 0x18 }
  - { offset: 0xE252, size: 0x8, addend: 0x0, symName: '__ZN4core3ptr97drop_in_place$LT$core..option..Option$LT$clap_builder..builder..value_parser..ValueParser$GT$$GT$17h36bfecd10ab1a322E', symObjAddr: 0x2AE0, symBinAddr: 0x1000033F0, symSize: 0x48 }
  - { offset: 0xE3BC, size: 0x8, addend: 0x0, symName: '__ZN4core3ptr98drop_in_place$LT$core..result..Result$LT$$LP$$RP$$C$tokio..runtime..task..error..JoinError$GT$$GT$17hbfc69c37ce18ec32E', symObjAddr: 0x2B28, symBinAddr: 0x100003438, symSize: 0x10 }
  - { offset: 0xE3EA, size: 0x8, addend: 0x0, symName: '__ZN4core3ptr99drop_in_place$LT$sakissh..upload_file..$u7b$$u7b$closure$u7d$$u7d$..$u7b$$u7b$closure$u7d$$u7d$$GT$17he3019d1db82aaeb8E', symObjAddr: 0x2B38, symBinAddr: 0x100003448, symSize: 0x70 }
  - { offset: 0x2074B, size: 0x8, addend: 0x0, symName: __ZN4core3mem4drop17h39ecc8a91877e572E, symObjAddr: 0xC1C, symBinAddr: 0x10000152C, symSize: 0x4 }
  - { offset: 0x21024, size: 0x8, addend: 0x0, symName: '__ZN36_$LT$T$u20$as$u20$core..any..Any$GT$7type_id17h691516fac14fdce8E', symObjAddr: 0xAE0, symBinAddr: 0x1000013F0, symSize: 0xC }
  - { offset: 0x21050, size: 0x8, addend: 0x0, symName: '__ZN36_$LT$T$u20$as$u20$core..any..Any$GT$7type_id17h691516fac14fdce8E', symObjAddr: 0xAE0, symBinAddr: 0x1000013F0, symSize: 0xC }
  - { offset: 0x2134D, size: 0x8, addend: 0x0, symName: __ZN4core3fmt5Write10write_char17h7829d72ca1ccdc32E, symObjAddr: 0xBE0, symBinAddr: 0x1000014F0, symSize: 0x2C }
  - { offset: 0x213DC, size: 0x8, addend: 0x0, symName: __ZN4core3fmt5Write9write_fmt17h852637b278c3eb1cE, symObjAddr: 0xC0C, symBinAddr: 0x10000151C, symSize: 0x10 }
  - { offset: 0x21468, size: 0x8, addend: 0x0, symName: __ZN4core9panicking13panic_display17h70d9470cd7e5c375E, symObjAddr: 0x2FD8, symBinAddr: 0x1000A4C5C, symSize: 0x18 }
  - { offset: 0x21613, size: 0x8, addend: 0x0, symName: '__ZN81_$LT$core..str..pattern..CharSearcher$u20$as$u20$core..str..pattern..Searcher$GT$10next_match17hd9622b60637cc87aE', symObjAddr: 0x148F8, symBinAddr: 0x100014FCC, symSize: 0xE8 }
  - { offset: 0x2191B, size: 0x8, addend: 0x0, symName: '__ZN52_$LT$char$u20$as$u20$core..str..pattern..Pattern$GT$13into_searcher17h8d7daf88cb0bd805E', symObjAddr: 0x31C8, symBinAddr: 0x100003AC0, symSize: 0x28 }
  - { offset: 0x21A54, size: 0x8, addend: 0x0, symName: '__ZN4core3str6traits54_$LT$impl$u20$core..cmp..PartialEq$u20$for$u20$str$GT$2eq17h21f396bbb47802e4E', symObjAddr: 0x2BA8, symBinAddr: 0x1000034B8, symSize: 0x24 }
  - { offset: 0x21A93, size: 0x8, addend: 0x0, symName: '__ZN4core3str6traits54_$LT$impl$u20$core..cmp..PartialEq$u20$for$u20$str$GT$2eq17h21f396bbb47802e4E', symObjAddr: 0x2BA8, symBinAddr: 0x1000034B8, symSize: 0x24 }
  - { offset: 0x21AA7, size: 0x8, addend: 0x0, symName: '__ZN4core3str6traits54_$LT$impl$u20$core..cmp..PartialEq$u20$for$u20$str$GT$2eq17h21f396bbb47802e4E', symObjAddr: 0x2BA8, symBinAddr: 0x1000034B8, symSize: 0x24 }
  - { offset: 0x21ACE, size: 0x8, addend: 0x0, symName: '__ZN4core3str6traits54_$LT$impl$u20$core..cmp..PartialEq$u20$for$u20$str$GT$2eq17h21f396bbb47802e4E', symObjAddr: 0x2BA8, symBinAddr: 0x1000034B8, symSize: 0x24 }
  - { offset: 0x21F34, size: 0x8, addend: 0x0, symName: '__ZN4core3ops8function6FnOnce40call_once$u7b$$u7b$vtable.shim$u7d$$u7d$17h1f48147198274d06E', symObjAddr: 0xC20, symBinAddr: 0x100001530, symSize: 0x90 }
  - { offset: 0x23F35, size: 0x8, addend: 0x0, symName: '__ZN102_$LT$core..iter..adapters..map..Map$LT$I$C$F$GT$$u20$as$u20$core..iter..traits..iterator..Iterator$GT$4next17hbfdaafd7ad8e0eb7E', symObjAddr: 0x0, symBinAddr: 0x100000910, symSize: 0x198 }
  - { offset: 0x24CB5, size: 0x8, addend: 0x0, symName: '__ZN106_$LT$core..iter..adapters..flatten..Flatten$LT$I$GT$$u20$as$u20$core..iter..traits..iterator..Iterator$GT$4next17h19bc94eacd786729E', symObjAddr: 0x198, symBinAddr: 0x100000AA8, symSize: 0xA4 }
  - { offset: 0x24EA0, size: 0x8, addend: 0x0, symName: __ZN4core4iter8adapters7flatten17and_then_or_clear17hc66dc6a3129dd10bE, symObjAddr: 0x2DD4, symBinAddr: 0x1000036E4, symSize: 0x80 }
  - { offset: 0x25434, size: 0x8, addend: 0x0, symName: __ZN4core4iter6traits8iterator8Iterator7collect17h19d2cd0309aef231E, symObjAddr: 0x2CBC, symBinAddr: 0x1000035CC, symSize: 0x118 }
  - { offset: 0x25DE6, size: 0x8, addend: 0x0, symName: '__ZN110_$LT$core..ops..range..RangeFrom$LT$usize$GT$$u20$as$u20$core..slice..index..SliceIndex$LT$$u5b$T$u5d$$GT$$GT$9index_mut17ha22da638a5e6c21eE', symObjAddr: 0x23C, symBinAddr: 0x100000B4C, symSize: 0x20 }
  - { offset: 0x27D2E, size: 0x8, addend: 0x0, symName: __ZN4core4char7methods15encode_utf8_raw17h46413447ea6afad2E, symObjAddr: 0x2BF8, symBinAddr: 0x100003508, symSize: 0x44 }
  - { offset: 0x27DC6, size: 0x8, addend: 0x0, symName: __ZN4core4char7methods25encode_utf8_raw_unchecked17ha04c911e1e9d4f09E, symObjAddr: 0x2C3C, symBinAddr: 0x10000354C, symSize: 0x80 }
  - { offset: 0x27E00, size: 0x8, addend: 0x0, symName: __ZN4core4char7methods25encode_utf8_raw_unchecked17ha04c911e1e9d4f09E, symObjAddr: 0x2C3C, symBinAddr: 0x10000354C, symSize: 0x80 }
  - { offset: 0x27ED6, size: 0x8, addend: 0x0, symName: __ZN4core5error5Error5cause17h41e66d0c4ae95e18E, symObjAddr: 0x2E74, symBinAddr: 0x100003784, symSize: 0x10 }
  - { offset: 0x27F06, size: 0x8, addend: 0x0, symName: __ZN4core5error5Error5cause17h41e66d0c4ae95e18E, symObjAddr: 0x2E74, symBinAddr: 0x100003784, symSize: 0x10 }
  - { offset: 0x27F28, size: 0x8, addend: 0x0, symName: __ZN4core5error5Error5cause17h5dcec8df5d6fe60cE, symObjAddr: 0x2E84, symBinAddr: 0x100003794, symSize: 0x18 }
  - { offset: 0x27F72, size: 0x8, addend: 0x0, symName: __ZN4core5error5Error7type_id17h25cc59d9dd4400bdE, symObjAddr: 0x2E9C, symBinAddr: 0x1000037AC, symSize: 0xC }
  - { offset: 0x27FA5, size: 0x8, addend: 0x0, symName: __ZN4core5error5Error7type_id17h25cc59d9dd4400bdE, symObjAddr: 0x2E9C, symBinAddr: 0x1000037AC, symSize: 0xC }
  - { offset: 0x27FBF, size: 0x8, addend: 0x0, symName: __ZN4core5error5Error7type_id17h447832f55172b6aaE, symObjAddr: 0x2EA8, symBinAddr: 0x1000037B8, symSize: 0xC }
  - { offset: 0x27FF2, size: 0x8, addend: 0x0, symName: __ZN4core5error5Error7type_id17h447832f55172b6aaE, symObjAddr: 0x2EA8, symBinAddr: 0x1000037B8, symSize: 0xC }
  - { offset: 0x2800C, size: 0x8, addend: 0x0, symName: __ZN4core5error5Error7type_id17h821331701cf51eddE, symObjAddr: 0x2EB4, symBinAddr: 0x1000037C4, symSize: 0xC }
  - { offset: 0x2803F, size: 0x8, addend: 0x0, symName: __ZN4core5error5Error7type_id17h821331701cf51eddE, symObjAddr: 0x2EB4, symBinAddr: 0x1000037C4, symSize: 0xC }
  - { offset: 0x28059, size: 0x8, addend: 0x0, symName: __ZN4core5error5Error7type_id17h9924b6a676e3f731E, symObjAddr: 0x2EC0, symBinAddr: 0x1000037D0, symSize: 0xC }
  - { offset: 0x2808C, size: 0x8, addend: 0x0, symName: __ZN4core5error5Error7type_id17h9924b6a676e3f731E, symObjAddr: 0x2EC0, symBinAddr: 0x1000037D0, symSize: 0xC }
  - { offset: 0x280A6, size: 0x8, addend: 0x0, symName: __ZN4core5error5Error7type_id17had076397ddf294b5E, symObjAddr: 0x2ECC, symBinAddr: 0x1000037DC, symSize: 0xC }
  - { offset: 0x280D9, size: 0x8, addend: 0x0, symName: __ZN4core5error5Error7type_id17had076397ddf294b5E, symObjAddr: 0x2ECC, symBinAddr: 0x1000037DC, symSize: 0xC }
  - { offset: 0x280F3, size: 0x8, addend: 0x0, symName: __ZN4core5error5Error7type_id17hdb1bfbfad999e86bE, symObjAddr: 0x2ED8, symBinAddr: 0x1000037E8, symSize: 0xC }
  - { offset: 0x28126, size: 0x8, addend: 0x0, symName: __ZN4core5error5Error7type_id17hdb1bfbfad999e86bE, symObjAddr: 0x2ED8, symBinAddr: 0x1000037E8, symSize: 0xC }
  - { offset: 0x28140, size: 0x8, addend: 0x0, symName: __ZN4core5error5Error7type_id17hf11a2b74d855fe58E, symObjAddr: 0x2EE4, symBinAddr: 0x1000037F4, symSize: 0xC }
  - { offset: 0x28173, size: 0x8, addend: 0x0, symName: __ZN4core5error5Error7type_id17hf11a2b74d855fe58E, symObjAddr: 0x2EE4, symBinAddr: 0x1000037F4, symSize: 0xC }
  - { offset: 0x2818D, size: 0x8, addend: 0x0, symName: __ZN4core5error5Error7type_id17hfa9853620e643af4E, symObjAddr: 0x2EF0, symBinAddr: 0x100003800, symSize: 0xC }
  - { offset: 0x281C0, size: 0x8, addend: 0x0, symName: __ZN4core5error5Error7type_id17hfa9853620e643af4E, symObjAddr: 0x2EF0, symBinAddr: 0x100003800, symSize: 0xC }
  - { offset: 0x29F76, size: 0x8, addend: 0x0, symName: __ZN5alloc5alloc15exchange_malloc17hca9577c5b3236b08E, symObjAddr: 0x3450, symBinAddr: 0x100003D48, symSize: 0x24 }
  - { offset: 0x2A05D, size: 0x8, addend: 0x0, symName: __ZN5alloc5alloc5alloc17h40ebcb42d960b3e2E, symObjAddr: 0x3474, symBinAddr: 0x100003D6C, symSize: 0x4 }
  - { offset: 0x2AE00, size: 0x8, addend: 0x0, symName: '__ZN60_$LT$alloc..string..String$u20$as$u20$core..fmt..Display$GT$3fmt17hf8ec49c9d33485eeE', symObjAddr: 0x5B74, symBinAddr: 0x100006340, symSize: 0xC }
  - { offset: 0x2AEF8, size: 0x8, addend: 0x0, symName: '__ZN62_$LT$alloc..string..String$u20$as$u20$core..cmp..PartialEq$GT$2eq17hff4610a19aaed4dcE', symObjAddr: 0x5BB0, symBinAddr: 0x10000637C, symSize: 0x24 }
  - { offset: 0x2AF32, size: 0x8, addend: 0x0, symName: '__ZN62_$LT$alloc..string..String$u20$as$u20$core..cmp..PartialEq$GT$2eq17hff4610a19aaed4dcE', symObjAddr: 0x5BB0, symBinAddr: 0x10000637C, symSize: 0x24 }
  - { offset: 0x2AF47, size: 0x8, addend: 0x0, symName: '__ZN62_$LT$alloc..string..String$u20$as$u20$core..cmp..PartialEq$GT$2eq17hff4610a19aaed4dcE', symObjAddr: 0x5BB0, symBinAddr: 0x10000637C, symSize: 0x24 }
  - { offset: 0x2AF6D, size: 0x8, addend: 0x0, symName: '__ZN62_$LT$alloc..string..String$u20$as$u20$core..cmp..PartialEq$GT$2eq17hff4610a19aaed4dcE', symObjAddr: 0x5BB0, symBinAddr: 0x10000637C, symSize: 0x24 }
  - { offset: 0x2AF99, size: 0x8, addend: 0x0, symName: '__ZN77_$LT$alloc..string..String$u20$as$u20$core..cmp..PartialEq$LT$$RF$str$GT$$GT$2eq17he8c044f4dca8b287E', symObjAddr: 0x7410, symBinAddr: 0x100007AE4, symSize: 0x24 }
  - { offset: 0x2AFD3, size: 0x8, addend: 0x0, symName: '__ZN77_$LT$alloc..string..String$u20$as$u20$core..cmp..PartialEq$LT$$RF$str$GT$$GT$2eq17he8c044f4dca8b287E', symObjAddr: 0x7410, symBinAddr: 0x100007AE4, symSize: 0x24 }
  - { offset: 0x2AFFA, size: 0x8, addend: 0x0, symName: '__ZN77_$LT$alloc..string..String$u20$as$u20$core..cmp..PartialEq$LT$$RF$str$GT$$GT$2eq17he8c044f4dca8b287E', symObjAddr: 0x7410, symBinAddr: 0x100007AE4, symSize: 0x24 }
  - { offset: 0x2B00E, size: 0x8, addend: 0x0, symName: '__ZN77_$LT$alloc..string..String$u20$as$u20$core..cmp..PartialEq$LT$$RF$str$GT$$GT$2eq17he8c044f4dca8b287E', symObjAddr: 0x7410, symBinAddr: 0x100007AE4, symSize: 0x24 }
  - { offset: 0x2B035, size: 0x8, addend: 0x0, symName: '__ZN77_$LT$alloc..string..String$u20$as$u20$core..cmp..PartialEq$LT$$RF$str$GT$$GT$2eq17he8c044f4dca8b287E', symObjAddr: 0x7410, symBinAddr: 0x100007AE4, symSize: 0x24 }
  - { offset: 0x2E2F4, size: 0x8, addend: 0x0, symName: '__ZN87_$LT$T$u20$as$u20$alloc..slice..$LT$impl$u20$$u5b$T$u5d$$GT$..to_vec_in..ConvertVec$GT$6to_vec17h073894d5b698bc0eE', symObjAddr: 0x16AD8, symBinAddr: 0x1000171AC, symSize: 0x34 }
  - { offset: 0x2E55F, size: 0x8, addend: 0x0, symName: __ZN5alloc3fmt6format17hb4671bca3538b688E, symObjAddr: 0x32C0, symBinAddr: 0x100003BB8, symSize: 0x38 }
  - { offset: 0x2E970, size: 0x8, addend: 0x0, symName: '__ZN72_$LT$tonic..metadata..map..MetadataMap$u20$as$u20$core..clone..Clone$GT$5clone17hcafccfb8cdde5e50E', symObjAddr: 0x7308, symBinAddr: 0x1000079DC, symSize: 0x68 }
  - { offset: 0x2FF55, size: 0x8, addend: 0x0, symName: '__ZN89_$LT$tonic..codec..decode..Streaming$LT$T$GT$$u20$as$u20$futures_core..stream..Stream$GT$9poll_next17h1a132b33dd2329aeE', symObjAddr: 0x16B0C, symBinAddr: 0x1000171E0, symSize: 0x1A8 }
  - { offset: 0x3019A, size: 0x8, addend: 0x0, symName: '__ZN89_$LT$tonic..codec..decode..Streaming$LT$T$GT$$u20$as$u20$futures_core..stream..Stream$GT$9poll_next17hc389661ca720428dE', symObjAddr: 0x16CB4, symBinAddr: 0x100017388, symSize: 0x1DC }
  - { offset: 0x303DF, size: 0x8, addend: 0x0, symName: '__ZN89_$LT$tonic..codec..decode..Streaming$LT$T$GT$$u20$as$u20$futures_core..stream..Stream$GT$9poll_next17hf47d3da54d3a6a43E', symObjAddr: 0x16E90, symBinAddr: 0x100017564, symSize: 0x1F0 }
  - { offset: 0x3185A, size: 0x8, addend: 0x0, symName: '__ZN81_$LT$tonic..codec..encode..EncodeBody$LT$T$C$U$GT$$u20$as$u20$http_body..Body$GT$10poll_frame17h11c86160b35a4801E', symObjAddr: 0x14A14, symBinAddr: 0x1000150E8, symSize: 0x5D4 }
  - { offset: 0x32ED7, size: 0x8, addend: 0x0, symName: '__ZN81_$LT$tonic..codec..encode..EncodeBody$LT$T$C$U$GT$$u20$as$u20$http_body..Body$GT$10poll_frame17h13bbea7eec157994E', symObjAddr: 0x14FE8, symBinAddr: 0x1000156BC, symSize: 0x230 }
  - { offset: 0x33446, size: 0x8, addend: 0x0, symName: '__ZN81_$LT$tonic..codec..encode..EncodeBody$LT$T$C$U$GT$$u20$as$u20$http_body..Body$GT$10poll_frame17h7fc2b2da9f6bfa15E', symObjAddr: 0x15218, symBinAddr: 0x1000158EC, symSize: 0x254 }
  - { offset: 0x33ABC, size: 0x8, addend: 0x0, symName: '__ZN81_$LT$tonic..codec..encode..EncodeBody$LT$T$C$U$GT$$u20$as$u20$http_body..Body$GT$10poll_frame17hae45f52ede9911a7E', symObjAddr: 0x1546C, symBinAddr: 0x100015B40, symSize: 0x23C }
  - { offset: 0x34070, size: 0x8, addend: 0x0, symName: '__ZN81_$LT$tonic..codec..encode..EncodeBody$LT$T$C$U$GT$$u20$as$u20$http_body..Body$GT$10poll_frame17hae6019499e007d74E', symObjAddr: 0x156A8, symBinAddr: 0x100015D7C, symSize: 0x4BC }
  - { offset: 0x34B42, size: 0x8, addend: 0x0, symName: '__ZN81_$LT$tonic..codec..encode..EncodeBody$LT$T$C$U$GT$$u20$as$u20$http_body..Body$GT$10poll_frame17hb245bd0419bb7035E', symObjAddr: 0x15B64, symBinAddr: 0x100016238, symSize: 0x284 }
  - { offset: 0x35122, size: 0x8, addend: 0x0, symName: '__ZN81_$LT$tonic..codec..encode..EncodeBody$LT$T$C$U$GT$$u20$as$u20$http_body..Body$GT$13is_end_stream17h4dbc8cffd7be5c37E', symObjAddr: 0x15DE8, symBinAddr: 0x1000164BC, symSize: 0x8 }
  - { offset: 0x35167, size: 0x8, addend: 0x0, symName: '__ZN81_$LT$tonic..codec..encode..EncodeBody$LT$T$C$U$GT$$u20$as$u20$http_body..Body$GT$13is_end_stream17h6035648818624f77E', symObjAddr: 0x15DF0, symBinAddr: 0x1000164C4, symSize: 0x8 }
  - { offset: 0x351AC, size: 0x8, addend: 0x0, symName: '__ZN81_$LT$tonic..codec..encode..EncodeBody$LT$T$C$U$GT$$u20$as$u20$http_body..Body$GT$13is_end_stream17hb36cff3d1ab7e33fE', symObjAddr: 0x15DF8, symBinAddr: 0x1000164CC, symSize: 0x8 }
  - { offset: 0x351F1, size: 0x8, addend: 0x0, symName: '__ZN81_$LT$tonic..codec..encode..EncodeBody$LT$T$C$U$GT$$u20$as$u20$http_body..Body$GT$13is_end_stream17hd1f1b9fd0641c50aE', symObjAddr: 0x15E00, symBinAddr: 0x1000164D4, symSize: 0x8 }
  - { offset: 0x35236, size: 0x8, addend: 0x0, symName: '__ZN81_$LT$tonic..codec..encode..EncodeBody$LT$T$C$U$GT$$u20$as$u20$http_body..Body$GT$13is_end_stream17hd8b2dd8a86e089bdE', symObjAddr: 0x15E08, symBinAddr: 0x1000164DC, symSize: 0x8 }
  - { offset: 0x35EFD, size: 0x8, addend: 0x0, symName: '__ZN84_$LT$tonic..codec..prost..ProstDecoder$LT$U$GT$$u20$as$u20$tonic..codec..Decoder$GT$15buffer_settings17h556370a9aba098c0E', symObjAddr: 0x15EB8, symBinAddr: 0x10001658C, symSize: 0x4 }
  - { offset: 0x35F25, size: 0x8, addend: 0x0, symName: '__ZN84_$LT$tonic..codec..prost..ProstDecoder$LT$U$GT$$u20$as$u20$tonic..codec..Decoder$GT$6decode17h0483b7190b9c90bfE', symObjAddr: 0x15EBC, symBinAddr: 0x100016590, symSize: 0x2D8 }
  - { offset: 0x36485, size: 0x8, addend: 0x0, symName: '__ZN84_$LT$tonic..codec..prost..ProstDecoder$LT$U$GT$$u20$as$u20$tonic..codec..Decoder$GT$6decode17h239635deac4700baE', symObjAddr: 0x16194, symBinAddr: 0x100016868, symSize: 0x16C }
  - { offset: 0x368AB, size: 0x8, addend: 0x0, symName: '__ZN84_$LT$tonic..codec..prost..ProstDecoder$LT$U$GT$$u20$as$u20$tonic..codec..Decoder$GT$6decode17h3435da3822de8e8cE', symObjAddr: 0x16300, symBinAddr: 0x1000169D4, symSize: 0x1E8 }
  - { offset: 0x36C5D, size: 0x8, addend: 0x0, symName: '__ZN84_$LT$tonic..codec..prost..ProstDecoder$LT$U$GT$$u20$as$u20$tonic..codec..Decoder$GT$6decode17h65ccacd6bb92ff06E', symObjAddr: 0x164E8, symBinAddr: 0x100016BBC, symSize: 0x16C }
  - { offset: 0x37083, size: 0x8, addend: 0x0, symName: '__ZN84_$LT$tonic..codec..prost..ProstDecoder$LT$U$GT$$u20$as$u20$tonic..codec..Decoder$GT$6decode17h7492076438e4edfbE', symObjAddr: 0x16654, symBinAddr: 0x100016D28, symSize: 0x224 }
  - { offset: 0x374C4, size: 0x8, addend: 0x0, symName: '__ZN84_$LT$tonic..codec..prost..ProstDecoder$LT$U$GT$$u20$as$u20$tonic..codec..Decoder$GT$6decode17hd6a45066d40a28dcE', symObjAddr: 0x16878, symBinAddr: 0x100016F4C, symSize: 0x260 }
  - { offset: 0x37A6D, size: 0x8, addend: 0x0, symName: '__ZN77_$LT$tonic..codec..buffer..DecodeBuf$u20$as$u20$bytes..buf..buf_impl..Buf$GT$7advance17h1866a644449e3035E', symObjAddr: 0x7434, symBinAddr: 0x100007B08, symSize: 0x90 }
  - { offset: 0x38670, size: 0x8, addend: 0x0, symName: '__ZN5tonic6client4grpc13Grpc$LT$T$GT$5ready28_$u7b$$u7b$closure$u7d$$u7d$17h9ca769375adc0374E', symObjAddr: 0x5A50, symBinAddr: 0x10000621C, symSize: 0xEC }
  - { offset: 0x3D409, size: 0x8, addend: 0x0, symName: '__ZN53_$LT$http..uri..Uri$u20$as$u20$core..clone..Clone$GT$5clone17h8388d21e497be486E', symObjAddr: 0x31F0, symBinAddr: 0x100003AE8, symSize: 0x94 }
  - { offset: 0x3D621, size: 0x8, addend: 0x0, symName: '__ZN48_$LT$T$u20$as$u20$http..extensions..AnyClone$GT$10as_any_mut17hb86b2e0b04190954E', symObjAddr: 0xB94, symBinAddr: 0x1000014A4, symSize: 0x4 }
  - { offset: 0x3D649, size: 0x8, addend: 0x0, symName: '__ZN48_$LT$T$u20$as$u20$http..extensions..AnyClone$GT$6as_any17ha2ced1584808b2bfE', symObjAddr: 0xB98, symBinAddr: 0x1000014A8, symSize: 0x4 }
  - { offset: 0x3D671, size: 0x8, addend: 0x0, symName: '__ZN48_$LT$T$u20$as$u20$http..extensions..AnyClone$GT$8into_any17hf5acb26e0fd2bc4bE', symObjAddr: 0xB9C, symBinAddr: 0x1000014AC, symSize: 0x4 }
  - { offset: 0x3D699, size: 0x8, addend: 0x0, symName: '__ZN48_$LT$T$u20$as$u20$http..extensions..AnyClone$GT$9clone_box17h08a7f3b18ed220a1E', symObjAddr: 0xBA0, symBinAddr: 0x1000014B0, symSize: 0x30 }
  - { offset: 0x3D6EF, size: 0x8, addend: 0x0, symName: '__ZN48_$LT$T$u20$as$u20$http..extensions..AnyClone$GT$9type_name17h13d629eea974d885E', symObjAddr: 0xBD0, symBinAddr: 0x1000014E0, symSize: 0x10 }
  - { offset: 0x3E8AF, size: 0x8, addend: 0x0, symName: __ZN3std3sys9backtrace28__rust_begin_short_backtrace17haaa719ca529f2e5dE, symObjAddr: 0xAEC, symBinAddr: 0x1000013FC, symSize: 0x80 }
  - { offset: 0x3EB6E, size: 0x8, addend: 0x0, symName: __ZN3std3sys9backtrace28__rust_begin_short_backtrace17hb8a001a350209dabE, symObjAddr: 0xB6C, symBinAddr: 0x10000147C, symSize: 0x14 }
  - { offset: 0x3EBF4, size: 0x8, addend: 0x0, symName: __ZN3std3sys9backtrace28__rust_begin_short_backtrace17hd3fe895485fa2cc3E, symObjAddr: 0xB80, symBinAddr: 0x100001490, symSize: 0x14 }
  - { offset: 0x42235, size: 0x8, addend: 0x0, symName: '__ZN7sakissh7sakissh15saki_ssh_client22SakiSshClient$LT$T$GT$6cancel28_$u7b$$u7b$closure$u7d$$u7d$17h04e969ff30afd13cE', symObjAddr: 0x10F48, symBinAddr: 0x10001161C, symSize: 0xC44 }
  - { offset: 0x43DFA, size: 0x8, addend: 0x0, symName: '__ZN74_$LT$sakissh..sakissh..FileMetadata$u20$as$u20$prost..message..Message$GT$11encoded_len17hb18a9aa61db7b2f3E', symObjAddr: 0x73BC, symBinAddr: 0x100007A90, symSize: 0x54 }
  - { offset: 0x4496F, size: 0x8, addend: 0x0, symName: '__ZN7sakissh12exec_command28_$u7b$$u7b$closure$u7d$$u7d$28_$u7b$$u7b$closure$u7d$$u7d$17h62d773fa71e07eb0E', symObjAddr: 0x7BA4, symBinAddr: 0x100008278, symSize: 0x8D0 }
  - { offset: 0x46617, size: 0x8, addend: 0x0, symName: '__ZN7sakissh11upload_file28_$u7b$$u7b$closure$u7d$$u7d$28_$u7b$$u7b$closure$u7d$$u7d$17h0d26b146504543c8E', symObjAddr: 0x74C4, symBinAddr: 0x100007B98, symSize: 0x6E0 }
  - { offset: 0x48101, size: 0x8, addend: 0x0, symName: '__ZN69_$LT$sakissh..Cli$u20$as$u20$clap_builder..derive..CommandFactory$GT$7command17h89df047150f68aafE', symObjAddr: 0x5D18, symBinAddr: 0x1000064E4, symSize: 0x10A0 }
  - { offset: 0x49DB4, size: 0x8, addend: 0x0, symName: '__ZN7sakissh4main28_$u7b$$u7b$closure$u7d$$u7d$17h869a19f69fb0bd6eE', symObjAddr: 0xA2A8, symBinAddr: 0x10000A97C, symSize: 0x6CA0 }
  - { offset: 0x564AD, size: 0x8, addend: 0x0, symName: '__ZN7sakissh9copy_file28_$u7b$$u7b$closure$u7d$$u7d$17h44ed0648c435cfaaE', symObjAddr: 0x11B8C, symBinAddr: 0x100012260, symSize: 0x2D6C }
  - { offset: 0x5B139, size: 0x8, addend: 0x0, symName: __ZN7sakissh4main17hae75cc8ac3597975E, symObjAddr: 0x8474, symBinAddr: 0x100008B48, symSize: 0x1E34 }
  - { offset: 0x63484, size: 0x8, addend: 0x0, symName: '__ZN9hashbrown3raw21RawTable$LT$T$C$A$GT$14reserve_rehash28_$u7b$$u7b$closure$u7d$$u7d$17he0e410df0bd4745bE', symObjAddr: 0x17720, symBinAddr: 0x100017AD8, symSize: 0x1C }
  - { offset: 0x656FB, size: 0x8, addend: 0x0, symName: '__ZN5tokio4sync4mpsc7bounded15Sender$LT$T$GT$4send28_$u7b$$u7b$closure$u7d$$u7d$17h08d7bd9266f0ad18E', symObjAddr: 0x45B0, symBinAddr: 0x100004D7C, symSize: 0x240 }
  - { offset: 0x678A9, size: 0x8, addend: 0x0, symName: '__ZN81_$LT$tokio..sync..mpsc..error..SendError$LT$T$GT$$u20$as$u20$core..fmt..Debug$GT$3fmt17hb5dae6e3fcb47f36E', symObjAddr: 0x149E0, symBinAddr: 0x1000150B4, symSize: 0x34 }
  - { offset: 0x67933, size: 0x8, addend: 0x0, symName: '__ZN83_$LT$tokio..sync..mpsc..error..SendError$LT$T$GT$$u20$as$u20$core..fmt..Display$GT$3fmt17h5ce313f669482644E', symObjAddr: 0x15EA0, symBinAddr: 0x100016574, symSize: 0x18 }
  - { offset: 0x67971, size: 0x8, addend: 0x0, symName: '__ZN83_$LT$tokio..sync..mpsc..error..SendError$LT$T$GT$$u20$as$u20$core..fmt..Display$GT$3fmt17h5ce313f669482644E', symObjAddr: 0x15EA0, symBinAddr: 0x100016574, symSize: 0x18 }
  - { offset: 0x6B3F4, size: 0x8, addend: 0x0, symName: __ZN5tokio7runtime4task7harness11cancel_task17h00af99c4d900d60cE, symObjAddr: 0x53A4, symBinAddr: 0x100005B70, symSize: 0x2C }
  - { offset: 0x6B522, size: 0x8, addend: 0x0, symName: __ZN5tokio7runtime4task7harness11cancel_task17h121b64adc815a36eE, symObjAddr: 0x53D0, symBinAddr: 0x100005B9C, symSize: 0x2C }
  - { offset: 0x6B650, size: 0x8, addend: 0x0, symName: __ZN5tokio7runtime4task7harness11cancel_task17h38ffeef7557679a3E, symObjAddr: 0x53FC, symBinAddr: 0x100005BC8, symSize: 0x2C }
  - { offset: 0x6B77E, size: 0x8, addend: 0x0, symName: __ZN5tokio7runtime4task7harness11cancel_task17h8b42093eb7d007ebE, symObjAddr: 0x5428, symBinAddr: 0x100005BF4, symSize: 0x2C }
  - { offset: 0x6BA6C, size: 0x8, addend: 0x0, symName: '__ZN96_$LT$tokio..runtime..task..join..JoinHandle$LT$T$GT$$u20$as$u20$core..future..future..Future$GT$4poll17h137804263857c504E', symObjAddr: 0x172A0, symBinAddr: 0x100017974, symSize: 0x64 }
  - { offset: 0x6BD74, size: 0x8, addend: 0x0, symName: __ZN5tokio7runtime4task3raw15try_read_output17h0b638bcf0f0013e5E, symObjAddr: 0x480C, symBinAddr: 0x100004FD8, symSize: 0x40 }
  - { offset: 0x6BEA0, size: 0x8, addend: 0x0, symName: __ZN5tokio7runtime4task3raw15try_read_output17h26baf2222024e474E, symObjAddr: 0x484C, symBinAddr: 0x100005018, symSize: 0x40 }
  - { offset: 0x6BFCC, size: 0x8, addend: 0x0, symName: __ZN5tokio7runtime4task3raw15try_read_output17h83ac9274822352daE, symObjAddr: 0x488C, symBinAddr: 0x100005058, symSize: 0x44 }
  - { offset: 0x6C0F8, size: 0x8, addend: 0x0, symName: __ZN5tokio7runtime4task3raw15try_read_output17h87ea154c1176691fE, symObjAddr: 0x48D0, symBinAddr: 0x10000509C, symSize: 0x44 }
  - { offset: 0x6C224, size: 0x8, addend: 0x0, symName: __ZN5tokio7runtime4task3raw17drop_abort_handle17h16d3b9cd867fdfb6E, symObjAddr: 0x4914, symBinAddr: 0x1000050E0, symSize: 0x4 }
  - { offset: 0x6C24C, size: 0x8, addend: 0x0, symName: __ZN5tokio7runtime4task3raw17drop_abort_handle17h16d3b9cd867fdfb6E, symObjAddr: 0x4914, symBinAddr: 0x1000050E0, symSize: 0x4 }
  - { offset: 0x6C27C, size: 0x8, addend: 0x0, symName: __ZN5tokio7runtime4task3raw17drop_abort_handle17h669661fb1bfef8baE, symObjAddr: 0x4918, symBinAddr: 0x1000050E4, symSize: 0x4 }
  - { offset: 0x6C2A4, size: 0x8, addend: 0x0, symName: __ZN5tokio7runtime4task3raw17drop_abort_handle17h669661fb1bfef8baE, symObjAddr: 0x4918, symBinAddr: 0x1000050E4, symSize: 0x4 }
  - { offset: 0x6C2D4, size: 0x8, addend: 0x0, symName: __ZN5tokio7runtime4task3raw17drop_abort_handle17h88916fc10977accbE, symObjAddr: 0x491C, symBinAddr: 0x1000050E8, symSize: 0x4 }
  - { offset: 0x6C2FC, size: 0x8, addend: 0x0, symName: __ZN5tokio7runtime4task3raw17drop_abort_handle17h88916fc10977accbE, symObjAddr: 0x491C, symBinAddr: 0x1000050E8, symSize: 0x4 }
  - { offset: 0x6C32C, size: 0x8, addend: 0x0, symName: __ZN5tokio7runtime4task3raw17drop_abort_handle17ha5bf484fa83ac0baE, symObjAddr: 0x4920, symBinAddr: 0x1000050EC, symSize: 0x4 }
  - { offset: 0x6C354, size: 0x8, addend: 0x0, symName: __ZN5tokio7runtime4task3raw17drop_abort_handle17ha5bf484fa83ac0baE, symObjAddr: 0x4920, symBinAddr: 0x1000050EC, symSize: 0x4 }
  - { offset: 0x6C384, size: 0x8, addend: 0x0, symName: __ZN5tokio7runtime4task3raw17drop_abort_handle17hbe95d1b1e33941d2E, symObjAddr: 0x4924, symBinAddr: 0x1000050F0, symSize: 0x4 }
  - { offset: 0x6C3AC, size: 0x8, addend: 0x0, symName: __ZN5tokio7runtime4task3raw17drop_abort_handle17hbe95d1b1e33941d2E, symObjAddr: 0x4924, symBinAddr: 0x1000050F0, symSize: 0x4 }
  - { offset: 0x6C3DC, size: 0x8, addend: 0x0, symName: __ZN5tokio7runtime4task3raw17drop_abort_handle17hcf106cfde08f748eE, symObjAddr: 0x4928, symBinAddr: 0x1000050F4, symSize: 0x4 }
  - { offset: 0x6C404, size: 0x8, addend: 0x0, symName: __ZN5tokio7runtime4task3raw17drop_abort_handle17hcf106cfde08f748eE, symObjAddr: 0x4928, symBinAddr: 0x1000050F4, symSize: 0x4 }
  - { offset: 0x6C434, size: 0x8, addend: 0x0, symName: __ZN5tokio7runtime4task3raw21drop_join_handle_slow17h08a883e562c11c3dE, symObjAddr: 0x492C, symBinAddr: 0x1000050F8, symSize: 0x34 }
  - { offset: 0x6C4CA, size: 0x8, addend: 0x0, symName: __ZN5tokio7runtime4task3raw21drop_join_handle_slow17h0b0391457b74c477E, symObjAddr: 0x4960, symBinAddr: 0x10000512C, symSize: 0x38 }
  - { offset: 0x6C5F8, size: 0x8, addend: 0x0, symName: __ZN5tokio7runtime4task3raw21drop_join_handle_slow17h14d70744d436cc4bE, symObjAddr: 0x4998, symBinAddr: 0x100005164, symSize: 0x34 }
  - { offset: 0x6C68E, size: 0x8, addend: 0x0, symName: __ZN5tokio7runtime4task3raw21drop_join_handle_slow17ha6cad2dbb310d2cfE, symObjAddr: 0x49CC, symBinAddr: 0x100005198, symSize: 0x34 }
  - { offset: 0x6C724, size: 0x8, addend: 0x0, symName: __ZN5tokio7runtime4task3raw21drop_join_handle_slow17ha874bc0e9745ea5bE, symObjAddr: 0x4A00, symBinAddr: 0x1000051CC, symSize: 0x3C }
  - { offset: 0x6C867, size: 0x8, addend: 0x0, symName: __ZN5tokio7runtime4task3raw21drop_join_handle_slow17hb38e244db62712dfE, symObjAddr: 0x4A3C, symBinAddr: 0x100005208, symSize: 0x34 }
  - { offset: 0x6C8FD, size: 0x8, addend: 0x0, symName: __ZN5tokio7runtime4task3raw4poll17h203154cc17be01b6E, symObjAddr: 0x4A70, symBinAddr: 0x10000523C, symSize: 0xC8 }
  - { offset: 0x6CC48, size: 0x8, addend: 0x0, symName: __ZN5tokio7runtime4task3raw4poll17h54cdad18304a5ac4E, symObjAddr: 0x4B38, symBinAddr: 0x100005304, symSize: 0xC8 }
  - { offset: 0x6CF77, size: 0x8, addend: 0x0, symName: __ZN5tokio7runtime4task3raw4poll17h6a4b8013bfc12305E, symObjAddr: 0x4C00, symBinAddr: 0x1000053CC, symSize: 0xC8 }
  - { offset: 0x6D2A6, size: 0x8, addend: 0x0, symName: __ZN5tokio7runtime4task3raw4poll17ha10cf81679bc75feE, symObjAddr: 0x4CC8, symBinAddr: 0x100005494, symSize: 0x184 }
  - { offset: 0x6D7CA, size: 0x8, addend: 0x0, symName: __ZN5tokio7runtime4task3raw4poll17hc01337371a0e5ed2E, symObjAddr: 0x4E4C, symBinAddr: 0x100005618, symSize: 0xC8 }
  - { offset: 0x6DB15, size: 0x8, addend: 0x0, symName: __ZN5tokio7runtime4task3raw4poll17he4bf83495cdfd5fcE, symObjAddr: 0x4F14, symBinAddr: 0x1000056E0, symSize: 0x118 }
  - { offset: 0x6E087, size: 0x8, addend: 0x0, symName: __ZN5tokio7runtime4task3raw7dealloc17h21a8849d0f7185e5E, symObjAddr: 0x502C, symBinAddr: 0x1000057F8, symSize: 0x4 }
  - { offset: 0x6E0AF, size: 0x8, addend: 0x0, symName: __ZN5tokio7runtime4task3raw7dealloc17h21a8849d0f7185e5E, symObjAddr: 0x502C, symBinAddr: 0x1000057F8, symSize: 0x4 }
  - { offset: 0x6E0DF, size: 0x8, addend: 0x0, symName: __ZN5tokio7runtime4task3raw7dealloc17h43ff3f6ae7bacea1E, symObjAddr: 0x5030, symBinAddr: 0x1000057FC, symSize: 0x4 }
  - { offset: 0x6E107, size: 0x8, addend: 0x0, symName: __ZN5tokio7runtime4task3raw7dealloc17h43ff3f6ae7bacea1E, symObjAddr: 0x5030, symBinAddr: 0x1000057FC, symSize: 0x4 }
  - { offset: 0x6E137, size: 0x8, addend: 0x0, symName: __ZN5tokio7runtime4task3raw7dealloc17h8fd4d10255e232c9E, symObjAddr: 0x5034, symBinAddr: 0x100005800, symSize: 0x4 }
  - { offset: 0x6E15F, size: 0x8, addend: 0x0, symName: __ZN5tokio7runtime4task3raw7dealloc17h8fd4d10255e232c9E, symObjAddr: 0x5034, symBinAddr: 0x100005800, symSize: 0x4 }
  - { offset: 0x6E18F, size: 0x8, addend: 0x0, symName: __ZN5tokio7runtime4task3raw7dealloc17ha0e6207d66b9a3edE, symObjAddr: 0x5038, symBinAddr: 0x100005804, symSize: 0x4 }
  - { offset: 0x6E1B7, size: 0x8, addend: 0x0, symName: __ZN5tokio7runtime4task3raw7dealloc17ha0e6207d66b9a3edE, symObjAddr: 0x5038, symBinAddr: 0x100005804, symSize: 0x4 }
  - { offset: 0x6E1E7, size: 0x8, addend: 0x0, symName: __ZN5tokio7runtime4task3raw7dealloc17hd47d0afb8552c483E, symObjAddr: 0x503C, symBinAddr: 0x100005808, symSize: 0x4 }
  - { offset: 0x6E20F, size: 0x8, addend: 0x0, symName: __ZN5tokio7runtime4task3raw7dealloc17hd47d0afb8552c483E, symObjAddr: 0x503C, symBinAddr: 0x100005808, symSize: 0x4 }
  - { offset: 0x6E23F, size: 0x8, addend: 0x0, symName: __ZN5tokio7runtime4task3raw7dealloc17hdb34872f18b5952dE, symObjAddr: 0x5040, symBinAddr: 0x10000580C, symSize: 0x4 }
  - { offset: 0x6E267, size: 0x8, addend: 0x0, symName: __ZN5tokio7runtime4task3raw7dealloc17hdb34872f18b5952dE, symObjAddr: 0x5040, symBinAddr: 0x10000580C, symSize: 0x4 }
  - { offset: 0x6E297, size: 0x8, addend: 0x0, symName: __ZN5tokio7runtime4task3raw8shutdown17h2a1f5ff1e1fa6540E, symObjAddr: 0x5044, symBinAddr: 0x100005810, symSize: 0x3C }
  - { offset: 0x6E326, size: 0x8, addend: 0x0, symName: __ZN5tokio7runtime4task3raw8shutdown17h6de087bc1afbe4b1E, symObjAddr: 0x5080, symBinAddr: 0x10000584C, symSize: 0x3C }
  - { offset: 0x6E3B5, size: 0x8, addend: 0x0, symName: __ZN5tokio7runtime4task3raw8shutdown17h704a29516d942925E, symObjAddr: 0x50BC, symBinAddr: 0x100005888, symSize: 0x3C }
  - { offset: 0x6E444, size: 0x8, addend: 0x0, symName: __ZN5tokio7runtime4task3raw8shutdown17h9b5ddb3664c6381aE, symObjAddr: 0x50F8, symBinAddr: 0x1000058C4, symSize: 0x3C }
  - { offset: 0x6E4D3, size: 0x8, addend: 0x0, symName: __ZN5tokio7runtime4task3raw8shutdown17haa646cdc40915b8bE, symObjAddr: 0x5134, symBinAddr: 0x100005900, symSize: 0x3C }
  - { offset: 0x6E562, size: 0x8, addend: 0x0, symName: __ZN5tokio7runtime4task3raw8shutdown17he660c1e00b6592b4E, symObjAddr: 0x5170, symBinAddr: 0x10000593C, symSize: 0x3C }
  - { offset: 0x72342, size: 0x8, addend: 0x0, symName: __ZN5tokio4task4coop12poll_proceed17h7345fa9b69519560E, symObjAddr: 0x47F0, symBinAddr: 0x100004FBC, symSize: 0x1C }
  - { offset: 0x74AE0, size: 0x8, addend: 0x0, symName: '__ZN72_$LT$anyhow..error..ErrorImpl$LT$E$GT$$u20$as$u20$core..error..Error$GT$6source17h59ae784f7d7cc688E', symObjAddr: 0x72C8, symBinAddr: 0x10000799C, symSize: 0x18 }
  - { offset: 0x74AFE, size: 0x8, addend: 0x0, symName: __ZN6anyhow5error10object_ref17h58b6df4f84ce7810E, symObjAddr: 0x6DB8, symBinAddr: 0x100007584, symSize: 0xC }
  - { offset: 0x74B2A, size: 0x8, addend: 0x0, symName: __ZN6anyhow5error10object_ref17h58b6df4f84ce7810E, symObjAddr: 0x6DB8, symBinAddr: 0x100007584, symSize: 0xC }
  - { offset: 0x74B4A, size: 0x8, addend: 0x0, symName: __ZN6anyhow5error10object_ref17h58b6df4f84ce7810E, symObjAddr: 0x6DB8, symBinAddr: 0x100007584, symSize: 0xC }
  - { offset: 0x74B70, size: 0x8, addend: 0x0, symName: __ZN6anyhow5error10object_ref17h917e2954a34d953cE, symObjAddr: 0x6DC4, symBinAddr: 0x100007590, symSize: 0xC }
  - { offset: 0x74B9C, size: 0x8, addend: 0x0, symName: __ZN6anyhow5error10object_ref17h917e2954a34d953cE, symObjAddr: 0x6DC4, symBinAddr: 0x100007590, symSize: 0xC }
  - { offset: 0x74BBC, size: 0x8, addend: 0x0, symName: __ZN6anyhow5error10object_ref17h917e2954a34d953cE, symObjAddr: 0x6DC4, symBinAddr: 0x100007590, symSize: 0xC }
  - { offset: 0x74BE2, size: 0x8, addend: 0x0, symName: __ZN6anyhow5error10object_ref17ha072c661e699e8e5E, symObjAddr: 0x6DD0, symBinAddr: 0x10000759C, symSize: 0xC }
  - { offset: 0x74C0E, size: 0x8, addend: 0x0, symName: __ZN6anyhow5error10object_ref17ha072c661e699e8e5E, symObjAddr: 0x6DD0, symBinAddr: 0x10000759C, symSize: 0xC }
  - { offset: 0x74C2E, size: 0x8, addend: 0x0, symName: __ZN6anyhow5error10object_ref17ha072c661e699e8e5E, symObjAddr: 0x6DD0, symBinAddr: 0x10000759C, symSize: 0xC }
  - { offset: 0x74C54, size: 0x8, addend: 0x0, symName: __ZN6anyhow5error10object_ref17hfe5ca0787103e912E, symObjAddr: 0x6DDC, symBinAddr: 0x1000075A8, symSize: 0xC }
  - { offset: 0x74C80, size: 0x8, addend: 0x0, symName: __ZN6anyhow5error10object_ref17hfe5ca0787103e912E, symObjAddr: 0x6DDC, symBinAddr: 0x1000075A8, symSize: 0xC }
  - { offset: 0x74CA0, size: 0x8, addend: 0x0, symName: __ZN6anyhow5error10object_ref17hfe5ca0787103e912E, symObjAddr: 0x6DDC, symBinAddr: 0x1000075A8, symSize: 0xC }
  - { offset: 0x74CC6, size: 0x8, addend: 0x0, symName: __ZN6anyhow5error11object_drop17h14d1bd3249c5ffd4E, symObjAddr: 0x6DE8, symBinAddr: 0x1000075B4, symSize: 0x20 }
  - { offset: 0x74E0A, size: 0x8, addend: 0x0, symName: __ZN6anyhow5error11object_drop17h49097852f074ea23E, symObjAddr: 0x6E08, symBinAddr: 0x1000075D4, symSize: 0x20 }
  - { offset: 0x74F4E, size: 0x8, addend: 0x0, symName: __ZN6anyhow5error11object_drop17h7f4f95180e4ed0cfE, symObjAddr: 0x6E28, symBinAddr: 0x1000075F4, symSize: 0x20 }
  - { offset: 0x75092, size: 0x8, addend: 0x0, symName: __ZN6anyhow5error11object_drop17hd3c498a9ed9f27baE, symObjAddr: 0x6E48, symBinAddr: 0x100007614, symSize: 0x20 }
  - { offset: 0x751D6, size: 0x8, addend: 0x0, symName: __ZN6anyhow5error12no_backtrace17h372e6cff33ea6d9bE, symObjAddr: 0x6E68, symBinAddr: 0x100007634, symSize: 0x4 }
  - { offset: 0x751F4, size: 0x8, addend: 0x0, symName: __ZN6anyhow5error12object_boxed17h142b8195b793004fE, symObjAddr: 0x6E6C, symBinAddr: 0x100007638, symSize: 0xC }
  - { offset: 0x7522A, size: 0x8, addend: 0x0, symName: __ZN6anyhow5error12object_boxed17h99a58aec06d59cdeE, symObjAddr: 0x6E78, symBinAddr: 0x100007644, symSize: 0xC }
  - { offset: 0x75260, size: 0x8, addend: 0x0, symName: __ZN6anyhow5error12object_boxed17h9e6b271728c77696E, symObjAddr: 0x6E84, symBinAddr: 0x100007650, symSize: 0xC }
  - { offset: 0x75296, size: 0x8, addend: 0x0, symName: __ZN6anyhow5error12object_boxed17ha4ad6e9b4c66fd3aE, symObjAddr: 0x6E90, symBinAddr: 0x10000765C, symSize: 0xC }
  - { offset: 0x752CC, size: 0x8, addend: 0x0, symName: __ZN6anyhow5error15object_downcast17h4b49ed5aa1c7ffd0E, symObjAddr: 0x6E9C, symBinAddr: 0x100007668, symSize: 0x30 }
  - { offset: 0x7530B, size: 0x8, addend: 0x0, symName: __ZN6anyhow5error15object_downcast17h4b49ed5aa1c7ffd0E, symObjAddr: 0x6E9C, symBinAddr: 0x100007668, symSize: 0x30 }
  - { offset: 0x75327, size: 0x8, addend: 0x0, symName: __ZN6anyhow5error15object_downcast17h4b49ed5aa1c7ffd0E, symObjAddr: 0x6E9C, symBinAddr: 0x100007668, symSize: 0x30 }
  - { offset: 0x75343, size: 0x8, addend: 0x0, symName: __ZN6anyhow5error15object_downcast17h8da7507dfc3bc65bE, symObjAddr: 0x6ECC, symBinAddr: 0x100007698, symSize: 0x30 }
  - { offset: 0x75382, size: 0x8, addend: 0x0, symName: __ZN6anyhow5error15object_downcast17h8da7507dfc3bc65bE, symObjAddr: 0x6ECC, symBinAddr: 0x100007698, symSize: 0x30 }
  - { offset: 0x7539E, size: 0x8, addend: 0x0, symName: __ZN6anyhow5error15object_downcast17h8da7507dfc3bc65bE, symObjAddr: 0x6ECC, symBinAddr: 0x100007698, symSize: 0x30 }
  - { offset: 0x753BA, size: 0x8, addend: 0x0, symName: __ZN6anyhow5error15object_downcast17h92f52ab4d781cde5E, symObjAddr: 0x6EFC, symBinAddr: 0x1000076C8, symSize: 0x30 }
  - { offset: 0x753F9, size: 0x8, addend: 0x0, symName: __ZN6anyhow5error15object_downcast17h92f52ab4d781cde5E, symObjAddr: 0x6EFC, symBinAddr: 0x1000076C8, symSize: 0x30 }
  - { offset: 0x75415, size: 0x8, addend: 0x0, symName: __ZN6anyhow5error15object_downcast17h92f52ab4d781cde5E, symObjAddr: 0x6EFC, symBinAddr: 0x1000076C8, symSize: 0x30 }
  - { offset: 0x75431, size: 0x8, addend: 0x0, symName: __ZN6anyhow5error16context_downcast17h717caae6b362cb7cE, symObjAddr: 0x6F2C, symBinAddr: 0x1000076F8, symSize: 0x68 }
  - { offset: 0x75472, size: 0x8, addend: 0x0, symName: __ZN6anyhow5error16context_downcast17h717caae6b362cb7cE, symObjAddr: 0x6F2C, symBinAddr: 0x1000076F8, symSize: 0x68 }
  - { offset: 0x7548E, size: 0x8, addend: 0x0, symName: __ZN6anyhow5error16context_downcast17h717caae6b362cb7cE, symObjAddr: 0x6F2C, symBinAddr: 0x1000076F8, symSize: 0x68 }
  - { offset: 0x755F9, size: 0x8, addend: 0x0, symName: __ZN6anyhow5error17context_drop_rest17haa32f0a81f379c93E, symObjAddr: 0x6F94, symBinAddr: 0x100007760, symSize: 0x6C }
  - { offset: 0x7582C, size: 0x8, addend: 0x0, symName: __ZN6anyhow5error17object_drop_front17h0d50f784bc640651E, symObjAddr: 0x7000, symBinAddr: 0x1000077CC, symSize: 0x1C }
  - { offset: 0x75973, size: 0x8, addend: 0x0, symName: __ZN6anyhow5error23object_reallocate_boxed17h58706e69aa1ba2ccE, symObjAddr: 0x701C, symBinAddr: 0x1000077E8, symSize: 0x40 }
  - { offset: 0x759E4, size: 0x8, addend: 0x0, symName: __ZN6anyhow5error23object_reallocate_boxed17h9e85b764b8945fe0E, symObjAddr: 0x705C, symBinAddr: 0x100007828, symSize: 0x40 }
  - { offset: 0x75A56, size: 0x8, addend: 0x0, symName: __ZN6anyhow5error23object_reallocate_boxed17hc5d02c7950a7ff75E, symObjAddr: 0x709C, symBinAddr: 0x100007868, symSize: 0x54 }
  - { offset: 0x75AC9, size: 0x8, addend: 0x0, symName: __ZN6anyhow5error23object_reallocate_boxed17hd34b5d70ff4955faE, symObjAddr: 0x70F0, symBinAddr: 0x1000078BC, symSize: 0x58 }
  - { offset: 0x75B3F, size: 0x8, addend: 0x0, symName: '__ZN6anyhow5error72_$LT$impl$u20$core..convert..From$LT$E$GT$$u20$for$u20$anyhow..Error$GT$4from17h1962031736c5ad58E', symObjAddr: 0x7148, symBinAddr: 0x1000A4DA0, symSize: 0x44 }
  - { offset: 0x75C28, size: 0x8, addend: 0x0, symName: '__ZN6anyhow5error72_$LT$impl$u20$core..convert..From$LT$E$GT$$u20$for$u20$anyhow..Error$GT$4from17hb828d8dbf1a83700E', symObjAddr: 0x718C, symBinAddr: 0x1000A4DE4, symSize: 0x34 }
  - { offset: 0x75D49, size: 0x8, addend: 0x0, symName: '__ZN72_$LT$anyhow..error..ErrorImpl$LT$E$GT$$u20$as$u20$core..fmt..Display$GT$3fmt17h01d7f871f2787713E', symObjAddr: 0x72E0, symBinAddr: 0x1000079B4, symSize: 0x28 }
  - { offset: 0x75E0D, size: 0x8, addend: 0x0, symName: '__ZN69_$LT$anyhow..context..Quoted$LT$C$GT$$u20$as$u20$core..fmt..Debug$GT$3fmt17h440ca46df8f5a864E', symObjAddr: 0x5CA0, symBinAddr: 0x10000646C, symSize: 0x78 }
  - { offset: 0x75EC7, size: 0x8, addend: 0x0, symName: '__ZN6anyhow7context87_$LT$impl$u20$core..fmt..Debug$u20$for$u20$anyhow..error..ContextError$LT$C$C$E$GT$$GT$3fmt17ha0d42fdd4049f420E', symObjAddr: 0x71C0, symBinAddr: 0x100007914, symSize: 0x84 }
  - { offset: 0x75F5A, size: 0x8, addend: 0x0, symName: '__ZN6anyhow7context89_$LT$impl$u20$core..fmt..Display$u20$for$u20$anyhow..error..ContextError$LT$C$C$E$GT$$GT$3fmt17hffa58427ab3f77fdE', symObjAddr: 0x7244, symBinAddr: 0x100007998, symSize: 0x4 }
  - { offset: 0x7606B, size: 0x8, addend: 0x0, symName: __ZN6anyhow9__private10format_err17hca1d106a91d097bcE, symObjAddr: 0x7248, symBinAddr: 0x1000A4E18, symSize: 0x80 }
  - { offset: 0x767D7, size: 0x8, addend: 0x0, symName: '__ZN62_$LT$prost..error..EncodeError$u20$as$u20$core..fmt..Debug$GT$3fmt17ha1b1ab8f0f57973bE', symObjAddr: 0x5BD4, symBinAddr: 0x1000063A0, symSize: 0x6C }
  - { offset: 0x7684F, size: 0x8, addend: 0x0, symName: __ZN5prost8encoding9wire_type15check_wire_type17hefd7ed6c91874d29E, symObjAddr: 0x40C8, symBinAddr: 0x100004894, symSize: 0x6C }
  - { offset: 0x768ED, size: 0x8, addend: 0x0, symName: '__ZN73_$LT$prost..encoding..wire_type..WireType$u20$as$u20$core..fmt..Debug$GT$3fmt17hf56ee1aac873ccf8E', symObjAddr: 0x7370, symBinAddr: 0x100007A44, symSize: 0x1C }
  - { offset: 0x7692B, size: 0x8, addend: 0x0, symName: '__ZN90_$LT$prost..encoding..wire_type..WireType$u20$as$u20$core..convert..TryFrom$LT$u64$GT$$GT$8try_from17hdde649f9a016341bE', symObjAddr: 0x17080, symBinAddr: 0x100017754, symSize: 0xD8 }
  - { offset: 0x76A5B, size: 0x8, addend: 0x0, symName: __ZN5prost8encoding10skip_field17haba0a40c5757f297E, symObjAddr: 0x36F4, symBinAddr: 0x100003F78, symSize: 0x17C }
  - { offset: 0x76C23, size: 0x8, addend: 0x0, symName: __ZN5prost8encoding4bool5merge17ha5798e439417bb26E, symObjAddr: 0x3888, symBinAddr: 0x10000410C, symSize: 0x3C }
  - { offset: 0x76D38, size: 0x8, addend: 0x0, symName: __ZN5prost8encoding5bytes5merge17h6a595f205ce1073cE, symObjAddr: 0x38C4, symBinAddr: 0x100004148, symSize: 0x16C }
  - { offset: 0x7737C, size: 0x8, addend: 0x0, symName: __ZN5prost8encoding5int325merge17hf1c30740f64d7cc2E, symObjAddr: 0x3A30, symBinAddr: 0x1000042B4, symSize: 0x34 }
  - { offset: 0x774FF, size: 0x8, addend: 0x0, symName: __ZN5prost8encoding6varint13decode_varint17h5625480cf4633a8aE, symObjAddr: 0x3C34, symBinAddr: 0x1000044B8, symSize: 0x194 }
  - { offset: 0x77704, size: 0x8, addend: 0x0, symName: __ZN5prost8encoding6varint13encode_varint17h92e77b11b5073c2bE, symObjAddr: 0x3DC8, symBinAddr: 0x10000464C, symSize: 0x5C }
  - { offset: 0x77771, size: 0x8, addend: 0x0, symName: __ZN5prost8encoding6varint18decode_varint_slow17hd0c25841f3f91fa2E, symObjAddr: 0x3E24, symBinAddr: 0x1000A4CE8, symSize: 0xB8 }
  - { offset: 0x77955, size: 0x8, addend: 0x0, symName: __ZN5prost8encoding6string11encoded_len17hb893435edc373e92E, symObjAddr: 0x3A64, symBinAddr: 0x1000042E8, symSize: 0x1C }
  - { offset: 0x77978, size: 0x8, addend: 0x0, symName: __ZN5prost8encoding6string11encoded_len17hb893435edc373e92E, symObjAddr: 0x3A64, symBinAddr: 0x1000042E8, symSize: 0x1C }
  - { offset: 0x779CD, size: 0x8, addend: 0x0, symName: __ZN5prost8encoding6string5merge17h83af687be7824d06E, symObjAddr: 0x3A80, symBinAddr: 0x100004304, symSize: 0x10C }
  - { offset: 0x77ECD, size: 0x8, addend: 0x0, symName: __ZN5prost8encoding6string6encode17ha154f61415c7c40bE, symObjAddr: 0x3B8C, symBinAddr: 0x100004410, symSize: 0x48 }
  - { offset: 0x780A1, size: 0x8, addend: 0x0, symName: __ZN5prost8encoding6uint645merge17h5a3b2acf445c13e4E, symObjAddr: 0x3BD4, symBinAddr: 0x100004458, symSize: 0x34 }
  - { offset: 0x7811F, size: 0x8, addend: 0x0, symName: __ZN5prost8encoding6uint646encode17h551f2ec46afa747fE, symObjAddr: 0x3C08, symBinAddr: 0x10000448C, symSize: 0x2C }
  - { offset: 0x7832C, size: 0x8, addend: 0x0, symName: __ZN5prost8encoding7message5merge17hff2c1eea528caa03E, symObjAddr: 0x3EDC, symBinAddr: 0x1000046A8, symSize: 0x1EC }
  - { offset: 0x7ABB1, size: 0x8, addend: 0x0, symName: '__ZN118_$LT$clap_builder..parser..matches..arg_matches..Values$LT$T$GT$$u20$as$u20$core..iter..traits..iterator..Iterator$GT$4next17ha089504b6ad99945E', symObjAddr: 0x25C, symBinAddr: 0x100000B6C, symSize: 0x64 }
  - { offset: 0x7ADCF, size: 0x8, addend: 0x0, symName: __ZN12clap_builder6parser7matches11arg_matches20unwrap_downcast_into17h716da584d5ef2721E, symObjAddr: 0x694, symBinAddr: 0x100000FA4, symSize: 0x104 }
  - { offset: 0x7B0CD, size: 0x8, addend: 0x0, symName: '__ZN12clap_builder6parser7matches11arg_matches50unwrap_downcast_into$u7b$$u7b$reify.shim$u7d$$u7d$17hca76c0485778696bE', symObjAddr: 0x798, symBinAddr: 0x1000010A8, symSize: 0x14 }
  - { offset: 0x7BCCB, size: 0x8, addend: 0x0, symName: __ZN12clap_builder6parser7matches11arg_matches10ArgMatches10remove_one17h2d41e27dd447ecb7E, symObjAddr: 0x2C0, symBinAddr: 0x100000BD0, symSize: 0x144 }
  - { offset: 0x7BF9A, size: 0x8, addend: 0x0, symName: __ZN12clap_builder6parser7matches11arg_matches10ArgMatches11remove_many17h64975b6453784606E, symObjAddr: 0x404, symBinAddr: 0x100000D14, symSize: 0x124 }
  - { offset: 0x7C235, size: 0x8, addend: 0x0, symName: __ZN12clap_builder6parser7matches11arg_matches10ArgMatches16try_remove_arg_t17hdf3f6206d67b8b49E, symObjAddr: 0x528, symBinAddr: 0x100000E38, symSize: 0x16C }
  - { offset: 0x7CB1F, size: 0x8, addend: 0x0, symName: __ZN12clap_builder7builder3arg3Arg10value_name17hb99a5828532146e6E, symObjAddr: 0x7AC, symBinAddr: 0x1000010BC, symSize: 0x44 }
  - { offset: 0x7CBA6, size: 0x8, addend: 0x0, symName: __ZN12clap_builder7builder3arg3Arg12value_parser17h6f58d26f11b81be5E, symObjAddr: 0x7F0, symBinAddr: 0x100001100, symSize: 0x5C }
  - { offset: 0x7CC66, size: 0x8, addend: 0x0, symName: __ZN12clap_builder7builder3arg3Arg4help17had015d7f08599e18E, symObjAddr: 0x84C, symBinAddr: 0x10000115C, symSize: 0x50 }
  - { offset: 0x7CCDC, size: 0x8, addend: 0x0, symName: __ZN12clap_builder7builder3arg3Arg9long_help17hd38fd75596b5fe85E, symObjAddr: 0x89C, symBinAddr: 0x1000011AC, symSize: 0x34 }
  - { offset: 0x7CD32, size: 0x8, addend: 0x0, symName: __ZN12clap_builder7builder7command7Command10long_about17h745646c103b610b3E, symObjAddr: 0x8D0, symBinAddr: 0x1000011E0, symSize: 0x30 }
  - { offset: 0x7CD70, size: 0x8, addend: 0x0, symName: __ZN12clap_builder7builder7command7Command10subcommand17ha86aea533636b480E, symObjAddr: 0x900, symBinAddr: 0x100001210, symSize: 0x44 }
  - { offset: 0x7CF9D, size: 0x8, addend: 0x0, symName: __ZN12clap_builder7builder7command7Command5group17h42e759b77c6709e7E, symObjAddr: 0x944, symBinAddr: 0x100001254, symSize: 0x60 }
  - { offset: 0x7D29B, size: 0x8, addend: 0x0, symName: __ZN12clap_builder7builder9arg_group8ArgGroup3arg17hb097709b0014a39cE, symObjAddr: 0x9A4, symBinAddr: 0x1000012B4, symSize: 0x64 }
  - { offset: 0x7D479, size: 0x8, addend: 0x0, symName: __ZN12clap_builder7builder9arg_group8ArgGroup4args17h714ae3e0cab1b945E, symObjAddr: 0xA08, symBinAddr: 0x100001318, symSize: 0x6C }
  - { offset: 0x7D541, size: 0x8, addend: 0x0, symName: __ZN12clap_builder7builder9arg_group8ArgGroup4args17hae9c1be3872c4ca4E, symObjAddr: 0xA74, symBinAddr: 0x100001384, symSize: 0x6C }
  - { offset: 0x803D5, size: 0x8, addend: 0x0, symName: '__ZN4core4cell16RefCell$LT$T$GT$6borrow17haa0f9a3e169ac85fE', symObjAddr: 0x2BCC, symBinAddr: 0x1000034DC, symSize: 0x2C }
  - { offset: 0x803FC, size: 0x8, addend: 0x0, symName: '__ZN4core4cell16RefCell$LT$T$GT$6borrow17haa0f9a3e169ac85fE', symObjAddr: 0x2BCC, symBinAddr: 0x1000034DC, symSize: 0x2C }
  - { offset: 0x8041A, size: 0x8, addend: 0x0, symName: '__ZN4core4cell16RefCell$LT$T$GT$6borrow17haa0f9a3e169ac85fE', symObjAddr: 0x2BCC, symBinAddr: 0x1000034DC, symSize: 0x2C }
  - { offset: 0x80438, size: 0x8, addend: 0x0, symName: '__ZN4core4cell16RefCell$LT$T$GT$6borrow17haa0f9a3e169ac85fE', symObjAddr: 0x2BCC, symBinAddr: 0x1000034DC, symSize: 0x2C }
  - { offset: 0x8085B, size: 0x8, addend: 0x0, symName: '__ZN4core5array4iter10iter_inner78PolymorphicIter$LT$$u5b$core..mem..maybe_uninit..MaybeUninit$LT$T$GT$$u5d$$GT$4next17hbf2f9558e4aa3d2fE', symObjAddr: 0x2E54, symBinAddr: 0x100003764, symSize: 0x20 }
  - { offset: 0x80881, size: 0x8, addend: 0x0, symName: '__ZN4core5array4iter10iter_inner78PolymorphicIter$LT$$u5b$core..mem..maybe_uninit..MaybeUninit$LT$T$GT$$u5d$$GT$4next17hbf2f9558e4aa3d2fE', symObjAddr: 0x2E54, symBinAddr: 0x100003764, symSize: 0x20 }
  - { offset: 0x8089E, size: 0x8, addend: 0x0, symName: '__ZN4core5array4iter10iter_inner78PolymorphicIter$LT$$u5b$core..mem..maybe_uninit..MaybeUninit$LT$T$GT$$u5d$$GT$4next17hbf2f9558e4aa3d2fE', symObjAddr: 0x2E54, symBinAddr: 0x100003764, symSize: 0x20 }
  - { offset: 0x808B2, size: 0x8, addend: 0x0, symName: '__ZN4core5array4iter10iter_inner78PolymorphicIter$LT$$u5b$core..mem..maybe_uninit..MaybeUninit$LT$T$GT$$u5d$$GT$4next17hbf2f9558e4aa3d2fE', symObjAddr: 0x2E54, symBinAddr: 0x100003764, symSize: 0x20 }
  - { offset: 0x808CD, size: 0x8, addend: 0x0, symName: '__ZN4core5array4iter10iter_inner78PolymorphicIter$LT$$u5b$core..mem..maybe_uninit..MaybeUninit$LT$T$GT$$u5d$$GT$4next17hbf2f9558e4aa3d2fE', symObjAddr: 0x2E54, symBinAddr: 0x100003764, symSize: 0x20 }
  - { offset: 0x80A1E, size: 0x8, addend: 0x0, symName: '__ZN4core6option15Option$LT$T$GT$14unwrap_or_else17hcd23aa88be72fde8E', symObjAddr: 0x2EFC, symBinAddr: 0x10000380C, symSize: 0x20 }
  - { offset: 0x80A8B, size: 0x8, addend: 0x0, symName: '__ZN4core6option15Option$LT$T$GT$6expect17h137e8973c1cb177eE', symObjAddr: 0x2F1C, symBinAddr: 0x10000382C, symSize: 0x20 }
  - { offset: 0x80AC9, size: 0x8, addend: 0x0, symName: '__ZN4core6result19Result$LT$T$C$E$GT$6expect17h5c8dcf4ac3bc6e76E', symObjAddr: 0x2F3C, symBinAddr: 0x10000384C, symSize: 0x4C }
  - { offset: 0x80B76, size: 0x8, addend: 0x0, symName: '__ZN4core6result19Result$LT$T$C$E$GT$7map_err17h708858b316cfb83dE', symObjAddr: 0x2F88, symBinAddr: 0x100003898, symSize: 0x50 }
  - { offset: 0x80E66, size: 0x8, addend: 0x0, symName: __ZN4http10extensions10Extensions6insert17hae69f66814f67643E, symObjAddr: 0x2FF0, symBinAddr: 0x1000038E8, symSize: 0xD0 }
  - { offset: 0x810B8, size: 0x8, addend: 0x0, symName: __ZN4http3uri4path12PathAndQuery11from_static17ha71bd067ac03d27fE, symObjAddr: 0x30C0, symBinAddr: 0x1000039B8, symSize: 0x108 }
  - { offset: 0x814FA, size: 0x8, addend: 0x0, symName: '__ZN5alloc4sync16Arc$LT$T$C$A$GT$9drop_slow17h366c13107ee4edc6E', symObjAddr: 0x32F8, symBinAddr: 0x100003BF0, symSize: 0x88 }
  - { offset: 0x81917, size: 0x8, addend: 0x0, symName: '__ZN5alloc4sync16Arc$LT$T$C$A$GT$9drop_slow17h4ac04188cead3db8E', symObjAddr: 0x3380, symBinAddr: 0x100003C78, symSize: 0x3C }
  - { offset: 0x81AF1, size: 0x8, addend: 0x0, symName: '__ZN5alloc4sync16Arc$LT$T$C$A$GT$9drop_slow17ha808a3c7f9eff269E', symObjAddr: 0x33BC, symBinAddr: 0x100003CB4, symSize: 0x24 }
  - { offset: 0x81B14, size: 0x8, addend: 0x0, symName: '__ZN5alloc4sync16Arc$LT$T$C$A$GT$9drop_slow17ha808a3c7f9eff269E', symObjAddr: 0x33BC, symBinAddr: 0x100003CB4, symSize: 0x24 }
  - { offset: 0x81B29, size: 0x8, addend: 0x0, symName: '__ZN5alloc4sync16Arc$LT$T$C$A$GT$9drop_slow17ha808a3c7f9eff269E', symObjAddr: 0x33BC, symBinAddr: 0x100003CB4, symSize: 0x24 }
  - { offset: 0x81B3A, size: 0x8, addend: 0x0, symName: '__ZN5alloc4sync16Arc$LT$T$C$A$GT$9drop_slow17ha808a3c7f9eff269E', symObjAddr: 0x33BC, symBinAddr: 0x100003CB4, symSize: 0x24 }
  - { offset: 0x81B58, size: 0x8, addend: 0x0, symName: '__ZN5alloc4sync16Arc$LT$T$C$A$GT$9drop_slow17ha808a3c7f9eff269E', symObjAddr: 0x33BC, symBinAddr: 0x100003CB4, symSize: 0x24 }
  - { offset: 0x81B69, size: 0x8, addend: 0x0, symName: '__ZN5alloc4sync16Arc$LT$T$C$A$GT$9drop_slow17ha808a3c7f9eff269E', symObjAddr: 0x33BC, symBinAddr: 0x100003CB4, symSize: 0x24 }
  - { offset: 0x81D78, size: 0x8, addend: 0x0, symName: '__ZN5alloc4sync16Arc$LT$T$C$A$GT$9drop_slow17habbb63b4a3b23595E', symObjAddr: 0x33E0, symBinAddr: 0x100003CD8, symSize: 0x70 }
  - { offset: 0x821B7, size: 0x8, addend: 0x0, symName: '__ZN5alloc7raw_vec20RawVecInner$LT$A$GT$16with_capacity_in17heb087596ee879c69E', symObjAddr: 0x3478, symBinAddr: 0x100003D70, symSize: 0x28 }
  - { offset: 0x82365, size: 0x8, addend: 0x0, symName: __ZN5bytes9bytes_mut8BytesMut13with_capacity17h2e2b7a7c4e2e22e2E, symObjAddr: 0x3598, symBinAddr: 0x100003E90, symSize: 0x34 }
  - { offset: 0x824DF, size: 0x8, addend: 0x0, symName: __ZN5bytes9bytes_mut8BytesMut17extend_from_slice17h8c13c0ec57e63febE, symObjAddr: 0x35CC, symBinAddr: 0x100003EC4, symSize: 0x3C }
  - { offset: 0x825B3, size: 0x8, addend: 0x0, symName: __ZN5bytes9bytes_mut8BytesMut3new17ha82852c91bb40522E, symObjAddr: 0x3608, symBinAddr: 0x100003F00, symSize: 0x8 }
  - { offset: 0x8261B, size: 0x8, addend: 0x0, symName: __ZN5bytes9bytes_mut8BytesMut6freeze17h296ad7ce5b575861E, symObjAddr: 0x3610, symBinAddr: 0x100003F08, symSize: 0x58 }
  - { offset: 0x827C9, size: 0x8, addend: 0x0, symName: __ZN5bytes9bytes_mut8BytesMut7reserve17h4039f0cf02566b37E, symObjAddr: 0x3668, symBinAddr: 0x100003F60, symSize: 0x18 }
  - { offset: 0x827FC, size: 0x8, addend: 0x0, symName: __ZN5bytes9bytes_mut8BytesMut7reserve17h4039f0cf02566b37E, symObjAddr: 0x3668, symBinAddr: 0x100003F60, symSize: 0x18 }
  - { offset: 0x8287E, size: 0x8, addend: 0x0, symName: __ZN5prost5error11DecodeError3new17h1304c0f8347e407eE, symObjAddr: 0x3680, symBinAddr: 0x1000A4C74, symSize: 0x3C }
  - { offset: 0x828C9, size: 0x8, addend: 0x0, symName: __ZN5prost5error11DecodeError3new17h5542a606fe9ad937E, symObjAddr: 0x36BC, symBinAddr: 0x1000A4CB0, symSize: 0x38 }
  - { offset: 0x829B4, size: 0x8, addend: 0x0, symName: __ZN5prost8encoding13DecodeContext13limit_reached17h417e5b70f1ca54d5E, symObjAddr: 0x3870, symBinAddr: 0x1000040F4, symSize: 0x18 }
  - { offset: 0x82C79, size: 0x8, addend: 0x0, symName: __ZN5tokio2io8read_buf7ReadBuf6filled17hc602daf0efdf41acE, symObjAddr: 0x4134, symBinAddr: 0x100004900, symSize: 0x20 }
  - { offset: 0x82C9B, size: 0x8, addend: 0x0, symName: __ZN5tokio2io8read_buf7ReadBuf6filled17hc602daf0efdf41acE, symObjAddr: 0x4134, symBinAddr: 0x100004900, symSize: 0x20 }
  - { offset: 0x82CBF, size: 0x8, addend: 0x0, symName: __ZN5tokio2io8read_buf7ReadBuf6filled17hc602daf0efdf41acE, symObjAddr: 0x4134, symBinAddr: 0x100004900, symSize: 0x20 }
  - { offset: 0x82CE3, size: 0x8, addend: 0x0, symName: __ZN5tokio2io8read_buf7ReadBuf6filled17hc602daf0efdf41acE, symObjAddr: 0x4134, symBinAddr: 0x100004900, symSize: 0x20 }
  - { offset: 0x830A8, size: 0x8, addend: 0x0, symName: '__ZN5tokio4sync4mpsc4list11Rx$LT$T$GT$3pop17h4183491a60e87bb9E', symObjAddr: 0x4154, symBinAddr: 0x100004920, symSize: 0x110 }
  - { offset: 0x83C3E, size: 0x8, addend: 0x0, symName: '__ZN5tokio4sync4mpsc4list11Rx$LT$T$GT$3pop17hc859e128b10e73e7E', symObjAddr: 0x4264, symBinAddr: 0x100004A30, symSize: 0x130 }
  - { offset: 0x8462B, size: 0x8, addend: 0x0, symName: '__ZN5tokio4sync4mpsc4list11Tx$LT$T$GT$10find_block17h0bcb11578d10097eE', symObjAddr: 0x4394, symBinAddr: 0x100004B60, symSize: 0xD0 }
  - { offset: 0x84C82, size: 0x8, addend: 0x0, symName: '__ZN5tokio4sync4mpsc4list11Tx$LT$T$GT$10find_block17hc881a02261ed0068E', symObjAddr: 0x4464, symBinAddr: 0x100004C30, symSize: 0xDC }
  - { offset: 0x8522C, size: 0x8, addend: 0x0, symName: '__ZN5tokio4sync4mpsc5block14Block$LT$T$GT$3new17hcf60691b2529dfa4E', symObjAddr: 0x4540, symBinAddr: 0x100004D0C, symSize: 0x40 }
  - { offset: 0x852E1, size: 0x8, addend: 0x0, symName: '__ZN5tokio4sync4mpsc5block14Block$LT$T$GT$3new17hebb972883557565eE', symObjAddr: 0x4580, symBinAddr: 0x100004D4C, symSize: 0x30 }
  - { offset: 0x86825, size: 0x8, addend: 0x0, symName: '__ZN5tokio7runtime4task4core17Core$LT$T$C$S$GT$12store_output17h10a3acd8d047e183E', symObjAddr: 0x51AC, symBinAddr: 0x100005978, symSize: 0x3C }
  - { offset: 0x8686C, size: 0x8, addend: 0x0, symName: '__ZN5tokio7runtime4task4core17Core$LT$T$C$S$GT$12store_output17h53abfd7fc120875aE', symObjAddr: 0x51E8, symBinAddr: 0x1000059B4, symSize: 0x1C }
  - { offset: 0x868B3, size: 0x8, addend: 0x0, symName: '__ZN5tokio7runtime4task4core17Core$LT$T$C$S$GT$12store_output17ha2af8ec472007d57E', symObjAddr: 0x5204, symBinAddr: 0x1000059D0, symSize: 0x24 }
  - { offset: 0x868FA, size: 0x8, addend: 0x0, symName: '__ZN5tokio7runtime4task4core17Core$LT$T$C$S$GT$12store_output17ha3652c39f80a9ee3E', symObjAddr: 0x5228, symBinAddr: 0x1000059F4, symSize: 0x1C }
  - { offset: 0x86941, size: 0x8, addend: 0x0, symName: '__ZN5tokio7runtime4task4core17Core$LT$T$C$S$GT$21drop_future_or_output17h0292d6feb366cc1aE', symObjAddr: 0x5244, symBinAddr: 0x100005A10, symSize: 0x24 }
  - { offset: 0x86978, size: 0x8, addend: 0x0, symName: '__ZN5tokio7runtime4task4core17Core$LT$T$C$S$GT$21drop_future_or_output17h115edc73c78f479aE', symObjAddr: 0x5268, symBinAddr: 0x100005A34, symSize: 0x2C }
  - { offset: 0x869AF, size: 0x8, addend: 0x0, symName: '__ZN5tokio7runtime4task4core17Core$LT$T$C$S$GT$21drop_future_or_output17h1bcb6555dadf882bE', symObjAddr: 0x5294, symBinAddr: 0x100005A60, symSize: 0x1C }
  - { offset: 0x869E6, size: 0x8, addend: 0x0, symName: '__ZN5tokio7runtime4task4core17Core$LT$T$C$S$GT$21drop_future_or_output17hce58b26982fd6597E', symObjAddr: 0x52B0, symBinAddr: 0x100005A7C, symSize: 0x1C }
  - { offset: 0x86A56, size: 0x8, addend: 0x0, symName: '__ZN5tokio7runtime4task4core17Core$LT$T$C$S$GT$9set_stage17h3e7b7c88e130d117E', symObjAddr: 0x52CC, symBinAddr: 0x100005A98, symSize: 0x34 }
  - { offset: 0x86B59, size: 0x8, addend: 0x0, symName: '__ZN5tokio7runtime4task4core17Core$LT$T$C$S$GT$9set_stage17h7e75a355934e7968E', symObjAddr: 0x5300, symBinAddr: 0x100005ACC, symSize: 0x2C }
  - { offset: 0x86C5C, size: 0x8, addend: 0x0, symName: '__ZN5tokio7runtime4task4core17Core$LT$T$C$S$GT$9set_stage17h95ddac725b8b71acE', symObjAddr: 0x532C, symBinAddr: 0x100005AF8, symSize: 0x3C }
  - { offset: 0x86D76, size: 0x8, addend: 0x0, symName: '__ZN5tokio7runtime4task4core17Core$LT$T$C$S$GT$9set_stage17h98820b24141da18aE', symObjAddr: 0x5368, symBinAddr: 0x100005B34, symSize: 0x3C }
  - { offset: 0x86E8B, size: 0x8, addend: 0x0, symName: '__ZN5tokio7runtime4task7harness20Harness$LT$T$C$S$GT$14drop_reference17h081676e83fa624b1E', symObjAddr: 0x5454, symBinAddr: 0x100005C20, symSize: 0x2C }
  - { offset: 0x86EC1, size: 0x8, addend: 0x0, symName: '__ZN5tokio7runtime4task7harness20Harness$LT$T$C$S$GT$14drop_reference17h2160ba04f0521f51E', symObjAddr: 0x5480, symBinAddr: 0x100005C4C, symSize: 0x2C }
  - { offset: 0x86EF7, size: 0x8, addend: 0x0, symName: '__ZN5tokio7runtime4task7harness20Harness$LT$T$C$S$GT$14drop_reference17h2eb24bf7faff36bdE', symObjAddr: 0x54AC, symBinAddr: 0x100005C78, symSize: 0x2C }
  - { offset: 0x86F2D, size: 0x8, addend: 0x0, symName: '__ZN5tokio7runtime4task7harness20Harness$LT$T$C$S$GT$14drop_reference17h68e80b3a16d55d11E', symObjAddr: 0x54D8, symBinAddr: 0x100005CA4, symSize: 0x2C }
  - { offset: 0x86F63, size: 0x8, addend: 0x0, symName: '__ZN5tokio7runtime4task7harness20Harness$LT$T$C$S$GT$14drop_reference17h6f2e9db586818ad6E', symObjAddr: 0x5504, symBinAddr: 0x100005CD0, symSize: 0x2C }
  - { offset: 0x86F99, size: 0x8, addend: 0x0, symName: '__ZN5tokio7runtime4task7harness20Harness$LT$T$C$S$GT$14drop_reference17hb4a53fb93704f52eE', symObjAddr: 0x5530, symBinAddr: 0x100005CFC, symSize: 0x2C }
  - { offset: 0x8705C, size: 0x8, addend: 0x0, symName: '__ZN5tokio7runtime4task7harness20Harness$LT$T$C$S$GT$7dealloc17h1c135928d839cc5eE', symObjAddr: 0x555C, symBinAddr: 0x100005D28, symSize: 0x30 }
  - { offset: 0x87250, size: 0x8, addend: 0x0, symName: '__ZN5tokio7runtime4task7harness20Harness$LT$T$C$S$GT$7dealloc17h82a262f95d437edeE', symObjAddr: 0x558C, symBinAddr: 0x100005D58, symSize: 0x2C }
  - { offset: 0x87469, size: 0x8, addend: 0x0, symName: '__ZN5tokio7runtime4task7harness20Harness$LT$T$C$S$GT$7dealloc17haa3df1e24ea01179E', symObjAddr: 0x55B8, symBinAddr: 0x100005D84, symSize: 0x30 }
  - { offset: 0x87636, size: 0x8, addend: 0x0, symName: '__ZN5tokio7runtime4task7harness20Harness$LT$T$C$S$GT$7dealloc17hb9ab6e00480c4582E', symObjAddr: 0x55E8, symBinAddr: 0x100005DB4, symSize: 0x30 }
  - { offset: 0x87803, size: 0x8, addend: 0x0, symName: '__ZN5tokio7runtime4task7harness20Harness$LT$T$C$S$GT$7dealloc17hd349ab9101d23d9eE', symObjAddr: 0x5618, symBinAddr: 0x100005DE4, symSize: 0x30 }
  - { offset: 0x87A1C, size: 0x8, addend: 0x0, symName: '__ZN5tokio7runtime4task7harness20Harness$LT$T$C$S$GT$7dealloc17hf3341a8721443faaE', symObjAddr: 0x5648, symBinAddr: 0x100005E14, symSize: 0x2C }
  - { offset: 0x87BC2, size: 0x8, addend: 0x0, symName: '__ZN5tokio7runtime4task7harness20Harness$LT$T$C$S$GT$8complete17h51eb4fe671074245E', symObjAddr: 0x5674, symBinAddr: 0x100005E40, symSize: 0x58 }
  - { offset: 0x87CEF, size: 0x8, addend: 0x0, symName: '__ZN5tokio7runtime4task7harness20Harness$LT$T$C$S$GT$8complete17h5e785e5269ff1212E', symObjAddr: 0x56CC, symBinAddr: 0x100005E98, symSize: 0x5C }
  - { offset: 0x87E58, size: 0x8, addend: 0x0, symName: '__ZN5tokio7runtime4task7harness20Harness$LT$T$C$S$GT$8complete17h84f5ffe7927572c4E', symObjAddr: 0x5728, symBinAddr: 0x100005EF4, symSize: 0x64 }
  - { offset: 0x87FE5, size: 0x8, addend: 0x0, symName: '__ZN5tokio7runtime4task7harness20Harness$LT$T$C$S$GT$8complete17h8fb594a7f782fefeE', symObjAddr: 0x578C, symBinAddr: 0x100005F58, symSize: 0x64 }
  - { offset: 0x88172, size: 0x8, addend: 0x0, symName: '__ZN5tokio7runtime4task7harness20Harness$LT$T$C$S$GT$8complete17hc1ba36787bd10db3E', symObjAddr: 0x57F0, symBinAddr: 0x100005FBC, symSize: 0x64 }
  - { offset: 0x882FF, size: 0x8, addend: 0x0, symName: '__ZN5tokio7runtime4task7harness20Harness$LT$T$C$S$GT$8complete17hde9888defce90dd9E', symObjAddr: 0x5854, symBinAddr: 0x100006020, symSize: 0x64 }
  - { offset: 0x8846B, size: 0x8, addend: 0x0, symName: '__ZN5tonic5codec6decode18Streaming$LT$T$GT$3new17h12a0f7cd35481ee7E', symObjAddr: 0x58B8, symBinAddr: 0x100006084, symSize: 0x44 }
  - { offset: 0x88500, size: 0x8, addend: 0x0, symName: '__ZN5tonic5codec6decode18Streaming$LT$T$GT$3new17h8b2903e6f112214dE', symObjAddr: 0x58FC, symBinAddr: 0x1000060C8, symSize: 0x44 }
  - { offset: 0x885C5, size: 0x8, addend: 0x0, symName: '__ZN5tonic5codec6decode18Streaming$LT$T$GT$3new17ha9c8bebffce793acE', symObjAddr: 0x5940, symBinAddr: 0x10000610C, symSize: 0x44 }
  - { offset: 0x8868A, size: 0x8, addend: 0x0, symName: '__ZN5tonic5codec6decode18Streaming$LT$T$GT$3new17hc7c3d1b33c2565fcE', symObjAddr: 0x5984, symBinAddr: 0x100006150, symSize: 0x44 }
  - { offset: 0x8871F, size: 0x8, addend: 0x0, symName: '__ZN5tonic5codec6decode18Streaming$LT$T$GT$3new17he446ae6672038c2aE', symObjAddr: 0x59C8, symBinAddr: 0x100006194, symSize: 0x44 }
  - { offset: 0x887E4, size: 0x8, addend: 0x0, symName: '__ZN5tonic5codec6decode18Streaming$LT$T$GT$3new17heeed85d6b9587086E', symObjAddr: 0x5A0C, symBinAddr: 0x1000061D8, symSize: 0x44 }
  - { offset: 0x88886, size: 0x8, addend: 0x0, symName: __ZN5tonic6status6Status7unknown17hd7f988f32c5cddb9E, symObjAddr: 0x5B3C, symBinAddr: 0x100006308, symSize: 0xC }
  - { offset: 0x888B3, size: 0x8, addend: 0x0, symName: '__ZN5tonic7request16Request$LT$T$GT$3new17h638a53e13eeefbfdE', symObjAddr: 0x5B48, symBinAddr: 0x100006314, symSize: 0x2C }
  - { offset: 0x91E67, size: 0x8, addend: 0x0, symName: __ZN9http_body4Body9size_hint17h5d0c36e8163d2ffbE, symObjAddr: 0x1773C, symBinAddr: 0x100017AF4, symSize: 0x4 }
  - { offset: 0x92C6C, size: 0x8, addend: 0x0, symName: '__ZN82_$LT$tokio..sync..mpsc..chan..Rx$LT$T$C$S$GT$$u20$as$u20$core..ops..drop..Drop$GT$4drop28_$u7b$$u7b$closure$u7d$$u7d$18Guard$LT$T$C$S$GT$5drain17h90b749f5ebea52ceE', symObjAddr: 0x15E10, symBinAddr: 0x1000164E4, symSize: 0x54 }
  - { offset: 0x92CA3, size: 0x8, addend: 0x0, symName: '__ZN82_$LT$tokio..sync..mpsc..chan..Rx$LT$T$C$S$GT$$u20$as$u20$core..ops..drop..Drop$GT$4drop28_$u7b$$u7b$closure$u7d$$u7d$18Guard$LT$T$C$S$GT$5drain17hf94844b2d4741303E', symObjAddr: 0x15E64, symBinAddr: 0x100016538, symSize: 0x3C }
  - { offset: 0x94197, size: 0x8, addend: 0x0, symName: __ZN9hashbrown3raw11TableLayout20calculate_layout_for17hae41bdf9828428f8E, symObjAddr: 0x17304, symBinAddr: 0x1000179D8, symSize: 0x50 }
  - { offset: 0x941ED, size: 0x8, addend: 0x0, symName: __ZN9hashbrown3raw11TableLayout20calculate_layout_for17hae41bdf9828428f8E, symObjAddr: 0x17304, symBinAddr: 0x1000179D8, symSize: 0x50 }
  - { offset: 0x9420F, size: 0x8, addend: 0x0, symName: __ZN9hashbrown3raw11TableLayout20calculate_layout_for17hae41bdf9828428f8E, symObjAddr: 0x17304, symBinAddr: 0x1000179D8, symSize: 0x50 }
  - { offset: 0x9433A, size: 0x8, addend: 0x0, symName: __ZN9hashbrown3raw13RawTableInner16find_insert_slot17hede5d86ea73f13baE, symObjAddr: 0x17354, symBinAddr: 0x100017A28, symSize: 0x5C }
  - { offset: 0x9436B, size: 0x8, addend: 0x0, symName: __ZN9hashbrown3raw13RawTableInner16find_insert_slot17hede5d86ea73f13baE, symObjAddr: 0x17354, symBinAddr: 0x100017A28, symSize: 0x5C }
  - { offset: 0x947A3, size: 0x8, addend: 0x0, symName: '__ZN9hashbrown3raw21RawIterRange$LT$T$GT$9next_impl17h2f1613dbc08a4773E', symObjAddr: 0x173B0, symBinAddr: 0x100017A84, symSize: 0x54 }
  - { offset: 0x952CE, size: 0x8, addend: 0x0, symName: '__ZN9hashbrown3raw21RawTable$LT$T$C$A$GT$14reserve_rehash17he9d0cf9d0d1f6c78E', symObjAddr: 0x17404, symBinAddr: 0x1000A4E98, symSize: 0x31C }
  - { offset: 0x9660B, size: 0x8, addend: 0x0, symName: _OUTLINED_FUNCTION_1, symObjAddr: 0xA2B58, symBinAddr: 0x10009D240, symSize: 0x18 }
  - { offset: 0x96623, size: 0x8, addend: 0x0, symName: _OUTLINED_FUNCTION_2, symObjAddr: 0xA2B70, symBinAddr: 0x10009D258, symSize: 0x2C }
  - { offset: 0x9663B, size: 0x8, addend: 0x0, symName: _OUTLINED_FUNCTION_3, symObjAddr: 0xA2B9C, symBinAddr: 0x10009D284, symSize: 0x18 }
  - { offset: 0x96653, size: 0x8, addend: 0x0, symName: _OUTLINED_FUNCTION_5, symObjAddr: 0xA2BC8, symBinAddr: 0x10009D2B0, symSize: 0x2C }
  - { offset: 0x9666B, size: 0x8, addend: 0x0, symName: _OUTLINED_FUNCTION_8, symObjAddr: 0xA2C34, symBinAddr: 0x10009D31C, symSize: 0x28 }
  - { offset: 0x96683, size: 0x8, addend: 0x0, symName: _OUTLINED_FUNCTION_11, symObjAddr: 0xA2C88, symBinAddr: 0x10009D370, symSize: 0x14 }
  - { offset: 0x9669B, size: 0x8, addend: 0x0, symName: _OUTLINED_FUNCTION_12, symObjAddr: 0xA2C9C, symBinAddr: 0x10009D384, symSize: 0x1C }
  - { offset: 0x966B3, size: 0x8, addend: 0x0, symName: _OUTLINED_FUNCTION_13, symObjAddr: 0xA2CB8, symBinAddr: 0x10009D3A0, symSize: 0x10 }
  - { offset: 0x966CB, size: 0x8, addend: 0x0, symName: _OUTLINED_FUNCTION_15, symObjAddr: 0xA2CE0, symBinAddr: 0x10009D3C8, symSize: 0x14 }
  - { offset: 0x966E3, size: 0x8, addend: 0x0, symName: _OUTLINED_FUNCTION_18, symObjAddr: 0xA2D18, symBinAddr: 0x10009D400, symSize: 0x14 }
  - { offset: 0x966FB, size: 0x8, addend: 0x0, symName: _OUTLINED_FUNCTION_21, symObjAddr: 0xA2D88, symBinAddr: 0x10009D470, symSize: 0x1C }
  - { offset: 0x96713, size: 0x8, addend: 0x0, symName: _OUTLINED_FUNCTION_22, symObjAddr: 0xA2DA4, symBinAddr: 0x10009D48C, symSize: 0x18 }
  - { offset: 0x9672B, size: 0x8, addend: 0x0, symName: _OUTLINED_FUNCTION_23, symObjAddr: 0xA2DBC, symBinAddr: 0x10009D4A4, symSize: 0x18 }
  - { offset: 0x96743, size: 0x8, addend: 0x0, symName: _OUTLINED_FUNCTION_24, symObjAddr: 0xA2DD4, symBinAddr: 0x10009D4BC, symSize: 0x14 }
  - { offset: 0x9675B, size: 0x8, addend: 0x0, symName: _OUTLINED_FUNCTION_25, symObjAddr: 0xA2DE8, symBinAddr: 0x10009D4D0, symSize: 0x10 }
  - { offset: 0x96773, size: 0x8, addend: 0x0, symName: _OUTLINED_FUNCTION_29, symObjAddr: 0xA2E30, symBinAddr: 0x10009D518, symSize: 0x10 }
  - { offset: 0x9678B, size: 0x8, addend: 0x0, symName: _OUTLINED_FUNCTION_32, symObjAddr: 0xA2E7C, symBinAddr: 0x10009D564, symSize: 0x18 }
  - { offset: 0x967A3, size: 0x8, addend: 0x0, symName: _OUTLINED_FUNCTION_33, symObjAddr: 0xA2E94, symBinAddr: 0x10009D57C, symSize: 0x20 }
  - { offset: 0x967BB, size: 0x8, addend: 0x0, symName: _OUTLINED_FUNCTION_35, symObjAddr: 0xA2ECC, symBinAddr: 0x10009D5B4, symSize: 0x18 }
  - { offset: 0x967D3, size: 0x8, addend: 0x0, symName: _OUTLINED_FUNCTION_36, symObjAddr: 0xA2EE4, symBinAddr: 0x10009D5CC, symSize: 0x10 }
  - { offset: 0x967EB, size: 0x8, addend: 0x0, symName: _OUTLINED_FUNCTION_41, symObjAddr: 0xA2F64, symBinAddr: 0x10009D64C, symSize: 0xC }
  - { offset: 0x96803, size: 0x8, addend: 0x0, symName: _OUTLINED_FUNCTION_43, symObjAddr: 0xA2F98, symBinAddr: 0x10009D680, symSize: 0x10 }
  - { offset: 0x9681B, size: 0x8, addend: 0x0, symName: _OUTLINED_FUNCTION_45, symObjAddr: 0xA2FBC, symBinAddr: 0x10009D6A4, symSize: 0xC }
  - { offset: 0x96833, size: 0x8, addend: 0x0, symName: _OUTLINED_FUNCTION_46, symObjAddr: 0xA2FC8, symBinAddr: 0x10009D6B0, symSize: 0x1C }
  - { offset: 0x9684B, size: 0x8, addend: 0x0, symName: _OUTLINED_FUNCTION_51, symObjAddr: 0xA3044, symBinAddr: 0x10009D72C, symSize: 0x14 }
  - { offset: 0x96863, size: 0x8, addend: 0x0, symName: _OUTLINED_FUNCTION_53, symObjAddr: 0xA306C, symBinAddr: 0x10009D754, symSize: 0xC }
  - { offset: 0x9687B, size: 0x8, addend: 0x0, symName: _OUTLINED_FUNCTION_54, symObjAddr: 0xA3078, symBinAddr: 0x10009D760, symSize: 0x20 }
  - { offset: 0x96893, size: 0x8, addend: 0x0, symName: _OUTLINED_FUNCTION_56, symObjAddr: 0xA30B8, symBinAddr: 0x10009D7A0, symSize: 0x20 }
  - { offset: 0x968AB, size: 0x8, addend: 0x0, symName: _OUTLINED_FUNCTION_59, symObjAddr: 0xA3110, symBinAddr: 0x10009D7F8, symSize: 0x14 }
  - { offset: 0x968C3, size: 0x8, addend: 0x0, symName: _OUTLINED_FUNCTION_60, symObjAddr: 0xA3124, symBinAddr: 0x10009D80C, symSize: 0x10 }
  - { offset: 0x968DB, size: 0x8, addend: 0x0, symName: _OUTLINED_FUNCTION_61, symObjAddr: 0xA3134, symBinAddr: 0x10009D81C, symSize: 0x10 }
  - { offset: 0x968F3, size: 0x8, addend: 0x0, symName: _OUTLINED_FUNCTION_62, symObjAddr: 0xA3144, symBinAddr: 0x10009D82C, symSize: 0x10 }
  - { offset: 0x9690B, size: 0x8, addend: 0x0, symName: _OUTLINED_FUNCTION_63, symObjAddr: 0xA3154, symBinAddr: 0x10009D83C, symSize: 0xC }
  - { offset: 0x96923, size: 0x8, addend: 0x0, symName: _OUTLINED_FUNCTION_64, symObjAddr: 0xA3160, symBinAddr: 0x10009D848, symSize: 0xC }
  - { offset: 0x9693B, size: 0x8, addend: 0x0, symName: _OUTLINED_FUNCTION_67, symObjAddr: 0xA31DC, symBinAddr: 0x10009D8C4, symSize: 0x10 }
  - { offset: 0x96953, size: 0x8, addend: 0x0, symName: _OUTLINED_FUNCTION_69, symObjAddr: 0xA3200, symBinAddr: 0x10009D8E8, symSize: 0x10 }
  - { offset: 0x9696B, size: 0x8, addend: 0x0, symName: _OUTLINED_FUNCTION_70, symObjAddr: 0xA3210, symBinAddr: 0x10009D8F8, symSize: 0xC }
  - { offset: 0x96983, size: 0x8, addend: 0x0, symName: _OUTLINED_FUNCTION_75, symObjAddr: 0xA3274, symBinAddr: 0x10009D95C, symSize: 0xC }
  - { offset: 0x9699B, size: 0x8, addend: 0x0, symName: _OUTLINED_FUNCTION_77, symObjAddr: 0xA32D8, symBinAddr: 0x10009D9C0, symSize: 0x18 }
  - { offset: 0x969B3, size: 0x8, addend: 0x0, symName: _OUTLINED_FUNCTION_79, symObjAddr: 0xA330C, symBinAddr: 0x10009D9F4, symSize: 0x14 }
  - { offset: 0x969CB, size: 0x8, addend: 0x0, symName: _OUTLINED_FUNCTION_84, symObjAddr: 0xA3378, symBinAddr: 0x10009DA60, symSize: 0x18 }
  - { offset: 0x969E3, size: 0x8, addend: 0x0, symName: _OUTLINED_FUNCTION_85, symObjAddr: 0xA3390, symBinAddr: 0x10009DA78, symSize: 0x18 }
  - { offset: 0x969FB, size: 0x8, addend: 0x0, symName: _OUTLINED_FUNCTION_86, symObjAddr: 0xA33A8, symBinAddr: 0x10009DA90, symSize: 0x14 }
  - { offset: 0x96A13, size: 0x8, addend: 0x0, symName: _OUTLINED_FUNCTION_87, symObjAddr: 0xA33BC, symBinAddr: 0x10009DAA4, symSize: 0xC }
  - { offset: 0x96A2B, size: 0x8, addend: 0x0, symName: _OUTLINED_FUNCTION_89, symObjAddr: 0xA33DC, symBinAddr: 0x10009DAC4, symSize: 0xC }
  - { offset: 0x96A43, size: 0x8, addend: 0x0, symName: _OUTLINED_FUNCTION_90, symObjAddr: 0xA33E8, symBinAddr: 0x10009DAD0, symSize: 0x10 }
  - { offset: 0x96A5B, size: 0x8, addend: 0x0, symName: _OUTLINED_FUNCTION_92, symObjAddr: 0xA3408, symBinAddr: 0x10009DAF0, symSize: 0x10 }
  - { offset: 0x96A73, size: 0x8, addend: 0x0, symName: _OUTLINED_FUNCTION_96, symObjAddr: 0xA3458, symBinAddr: 0x10009DB40, symSize: 0x10 }
  - { offset: 0x96A8B, size: 0x8, addend: 0x0, symName: _OUTLINED_FUNCTION_99, symObjAddr: 0xA3490, symBinAddr: 0x10009DB78, symSize: 0x10 }
  - { offset: 0x96AA3, size: 0x8, addend: 0x0, symName: _OUTLINED_FUNCTION_100, symObjAddr: 0xA34A0, symBinAddr: 0x10009DB88, symSize: 0x10 }
  - { offset: 0x96ABB, size: 0x8, addend: 0x0, symName: _OUTLINED_FUNCTION_102, symObjAddr: 0xA34BC, symBinAddr: 0x10009DBA4, symSize: 0xC }
  - { offset: 0x96AD3, size: 0x8, addend: 0x0, symName: _OUTLINED_FUNCTION_103, symObjAddr: 0xA34C8, symBinAddr: 0x10009DBB0, symSize: 0x10 }
  - { offset: 0x96AEB, size: 0x8, addend: 0x0, symName: _OUTLINED_FUNCTION_107, symObjAddr: 0xA3510, symBinAddr: 0x10009DBF8, symSize: 0x2C }
  - { offset: 0x96B03, size: 0x8, addend: 0x0, symName: _OUTLINED_FUNCTION_110, symObjAddr: 0xA3554, symBinAddr: 0x10009DC3C, symSize: 0xC }
  - { offset: 0x96B1B, size: 0x8, addend: 0x0, symName: _OUTLINED_FUNCTION_111, symObjAddr: 0xA3560, symBinAddr: 0x10009DC48, symSize: 0x14 }
  - { offset: 0x96B33, size: 0x8, addend: 0x0, symName: _OUTLINED_FUNCTION_114, symObjAddr: 0xA35DC, symBinAddr: 0x10009DCC4, symSize: 0x20 }
  - { offset: 0x96B4B, size: 0x8, addend: 0x0, symName: _OUTLINED_FUNCTION_121, symObjAddr: 0xA3688, symBinAddr: 0x10009DD70, symSize: 0x28 }
  - { offset: 0x96B63, size: 0x8, addend: 0x0, symName: _OUTLINED_FUNCTION_122, symObjAddr: 0xA36B0, symBinAddr: 0x10009DD98, symSize: 0x48 }
  - { offset: 0x96B7B, size: 0x8, addend: 0x0, symName: _OUTLINED_FUNCTION_125, symObjAddr: 0xA3728, symBinAddr: 0x10009DE10, symSize: 0x18 }
  - { offset: 0x96B93, size: 0x8, addend: 0x0, symName: _OUTLINED_FUNCTION_126, symObjAddr: 0xA3740, symBinAddr: 0x10009DE28, symSize: 0x18 }
  - { offset: 0x96BAB, size: 0x8, addend: 0x0, symName: _OUTLINED_FUNCTION_128, symObjAddr: 0xA3764, symBinAddr: 0x10009DE4C, symSize: 0xC }
  - { offset: 0x96BC3, size: 0x8, addend: 0x0, symName: _OUTLINED_FUNCTION_129, symObjAddr: 0xA3770, symBinAddr: 0x10009DE58, symSize: 0xC }
  - { offset: 0x96BDB, size: 0x8, addend: 0x0, symName: _OUTLINED_FUNCTION_130, symObjAddr: 0xA377C, symBinAddr: 0x10009DE64, symSize: 0x10 }
  - { offset: 0x96BF3, size: 0x8, addend: 0x0, symName: _OUTLINED_FUNCTION_134, symObjAddr: 0xA37B4, symBinAddr: 0x10009DE9C, symSize: 0xC }
  - { offset: 0x96C0B, size: 0x8, addend: 0x0, symName: _OUTLINED_FUNCTION_136, symObjAddr: 0xA37E4, symBinAddr: 0x10009DECC, symSize: 0x10 }
  - { offset: 0x96C23, size: 0x8, addend: 0x0, symName: _OUTLINED_FUNCTION_139, symObjAddr: 0xA3810, symBinAddr: 0x10009DEF8, symSize: 0x14 }
  - { offset: 0x96C3B, size: 0x8, addend: 0x0, symName: _OUTLINED_FUNCTION_148, symObjAddr: 0xA38B0, symBinAddr: 0x10009DF98, symSize: 0x14 }
  - { offset: 0x96C53, size: 0x8, addend: 0x0, symName: _OUTLINED_FUNCTION_152, symObjAddr: 0xA38FC, symBinAddr: 0x10009DFE4, symSize: 0x10 }
  - { offset: 0x96C6B, size: 0x8, addend: 0x0, symName: _OUTLINED_FUNCTION_153, symObjAddr: 0xA390C, symBinAddr: 0x10009DFF4, symSize: 0x1C }
  - { offset: 0x96C83, size: 0x8, addend: 0x0, symName: _OUTLINED_FUNCTION_154, symObjAddr: 0xA3928, symBinAddr: 0x10009E010, symSize: 0x14 }
  - { offset: 0x96C9B, size: 0x8, addend: 0x0, symName: _OUTLINED_FUNCTION_156, symObjAddr: 0xA3950, symBinAddr: 0x10009E038, symSize: 0x14 }
  - { offset: 0x96CB3, size: 0x8, addend: 0x0, symName: _OUTLINED_FUNCTION_157, symObjAddr: 0xA3964, symBinAddr: 0x10009E04C, symSize: 0x14 }
  - { offset: 0x96CCB, size: 0x8, addend: 0x0, symName: _OUTLINED_FUNCTION_158, symObjAddr: 0xA3978, symBinAddr: 0x10009E060, symSize: 0x14 }
  - { offset: 0x96CE3, size: 0x8, addend: 0x0, symName: _OUTLINED_FUNCTION_162, symObjAddr: 0xA39D4, symBinAddr: 0x10009E0BC, symSize: 0x1C }
  - { offset: 0x96CFB, size: 0x8, addend: 0x0, symName: _OUTLINED_FUNCTION_166, symObjAddr: 0xA3A44, symBinAddr: 0x10009E12C, symSize: 0xC }
  - { offset: 0x96D13, size: 0x8, addend: 0x0, symName: _OUTLINED_FUNCTION_167, symObjAddr: 0xA3A50, symBinAddr: 0x10009E138, symSize: 0xC }
  - { offset: 0x96D2B, size: 0x8, addend: 0x0, symName: _OUTLINED_FUNCTION_174, symObjAddr: 0xA3B04, symBinAddr: 0x10009E1EC, symSize: 0x18 }
  - { offset: 0x96D43, size: 0x8, addend: 0x0, symName: _OUTLINED_FUNCTION_177, symObjAddr: 0xA3B48, symBinAddr: 0x10009E230, symSize: 0x1C }
  - { offset: 0x96D5B, size: 0x8, addend: 0x0, symName: _OUTLINED_FUNCTION_186, symObjAddr: 0xA3C14, symBinAddr: 0x10009E2FC, symSize: 0xC }
  - { offset: 0x96D73, size: 0x8, addend: 0x0, symName: _OUTLINED_FUNCTION_187, symObjAddr: 0xA3C20, symBinAddr: 0x10009E308, symSize: 0xC }
  - { offset: 0x96D8B, size: 0x8, addend: 0x0, symName: _OUTLINED_FUNCTION_190, symObjAddr: 0xA3C54, symBinAddr: 0x10009E33C, symSize: 0xC }
  - { offset: 0x96DA3, size: 0x8, addend: 0x0, symName: _OUTLINED_FUNCTION_193, symObjAddr: 0xA3C98, symBinAddr: 0x10009E380, symSize: 0x10 }
  - { offset: 0x96DBB, size: 0x8, addend: 0x0, symName: _OUTLINED_FUNCTION_194, symObjAddr: 0xA3CA8, symBinAddr: 0x10009E390, symSize: 0x10 }
  - { offset: 0x96DD3, size: 0x8, addend: 0x0, symName: _OUTLINED_FUNCTION_195, symObjAddr: 0xA3CB8, symBinAddr: 0x10009E3A0, symSize: 0x10 }
  - { offset: 0x96DEB, size: 0x8, addend: 0x0, symName: _OUTLINED_FUNCTION_196, symObjAddr: 0xA3CC8, symBinAddr: 0x10009E3B0, symSize: 0x10 }
  - { offset: 0x96E03, size: 0x8, addend: 0x0, symName: _OUTLINED_FUNCTION_197, symObjAddr: 0xA3CD8, symBinAddr: 0x10009E3C0, symSize: 0xC }
  - { offset: 0x96E1B, size: 0x8, addend: 0x0, symName: _OUTLINED_FUNCTION_198, symObjAddr: 0xA3CE4, symBinAddr: 0x10009E3CC, symSize: 0x18 }
  - { offset: 0x96E33, size: 0x8, addend: 0x0, symName: _OUTLINED_FUNCTION_199, symObjAddr: 0xA3CFC, symBinAddr: 0x10009E3E4, symSize: 0xC }
  - { offset: 0x96E4B, size: 0x8, addend: 0x0, symName: _OUTLINED_FUNCTION_200, symObjAddr: 0xA3D08, symBinAddr: 0x10009E3F0, symSize: 0x10 }
  - { offset: 0x96E63, size: 0x8, addend: 0x0, symName: _OUTLINED_FUNCTION_201, symObjAddr: 0xA3D18, symBinAddr: 0x10009E400, symSize: 0x10 }
  - { offset: 0x96E7B, size: 0x8, addend: 0x0, symName: _OUTLINED_FUNCTION_202, symObjAddr: 0xA3D28, symBinAddr: 0x10009E410, symSize: 0xC }
  - { offset: 0x96E93, size: 0x8, addend: 0x0, symName: _OUTLINED_FUNCTION_204, symObjAddr: 0xA3D44, symBinAddr: 0x10009E42C, symSize: 0x10 }
  - { offset: 0x96EAB, size: 0x8, addend: 0x0, symName: _OUTLINED_FUNCTION_212, symObjAddr: 0xA3DEC, symBinAddr: 0x10009E4D4, symSize: 0xC }
  - { offset: 0x96EC3, size: 0x8, addend: 0x0, symName: _OUTLINED_FUNCTION_213, symObjAddr: 0xA3DF8, symBinAddr: 0x10009E4E0, symSize: 0xC }
  - { offset: 0x96EDB, size: 0x8, addend: 0x0, symName: _OUTLINED_FUNCTION_214, symObjAddr: 0xA3E04, symBinAddr: 0x10009E4EC, symSize: 0x14 }
  - { offset: 0x96EF3, size: 0x8, addend: 0x0, symName: _OUTLINED_FUNCTION_217, symObjAddr: 0xA3E48, symBinAddr: 0x10009E530, symSize: 0xC }
  - { offset: 0x96F0B, size: 0x8, addend: 0x0, symName: _OUTLINED_FUNCTION_218, symObjAddr: 0xA3E54, symBinAddr: 0x10009E53C, symSize: 0x10 }
  - { offset: 0x96F23, size: 0x8, addend: 0x0, symName: _OUTLINED_FUNCTION_219, symObjAddr: 0xA3E64, symBinAddr: 0x10009E54C, symSize: 0xC }
  - { offset: 0x96F3B, size: 0x8, addend: 0x0, symName: _OUTLINED_FUNCTION_221, symObjAddr: 0xA3E7C, symBinAddr: 0x10009E564, symSize: 0x10 }
  - { offset: 0x96F53, size: 0x8, addend: 0x0, symName: _OUTLINED_FUNCTION_222, symObjAddr: 0xA3E8C, symBinAddr: 0x10009E574, symSize: 0x10 }
  - { offset: 0x96F6B, size: 0x8, addend: 0x0, symName: _OUTLINED_FUNCTION_223, symObjAddr: 0xA3E9C, symBinAddr: 0x10009E584, symSize: 0x10 }
  - { offset: 0x96F83, size: 0x8, addend: 0x0, symName: _OUTLINED_FUNCTION_225, symObjAddr: 0xA3EB8, symBinAddr: 0x10009E5A0, symSize: 0x10 }
  - { offset: 0x96F9B, size: 0x8, addend: 0x0, symName: _OUTLINED_FUNCTION_228, symObjAddr: 0xA3EEC, symBinAddr: 0x10009E5D4, symSize: 0x18 }
  - { offset: 0x96FB3, size: 0x8, addend: 0x0, symName: _OUTLINED_FUNCTION_231, symObjAddr: 0xA3F28, symBinAddr: 0x10009E610, symSize: 0x10 }
  - { offset: 0x96FCB, size: 0x8, addend: 0x0, symName: _OUTLINED_FUNCTION_233, symObjAddr: 0xA3F44, symBinAddr: 0x10009E62C, symSize: 0xC }
  - { offset: 0x96FE3, size: 0x8, addend: 0x0, symName: _OUTLINED_FUNCTION_234, symObjAddr: 0xA3F50, symBinAddr: 0x10009E638, symSize: 0x18 }
  - { offset: 0x96FFB, size: 0x8, addend: 0x0, symName: _OUTLINED_FUNCTION_239, symObjAddr: 0xA3FB0, symBinAddr: 0x10009E698, symSize: 0x14 }
  - { offset: 0x97013, size: 0x8, addend: 0x0, symName: _OUTLINED_FUNCTION_240, symObjAddr: 0xA3FC4, symBinAddr: 0x10009E6AC, symSize: 0x18 }
  - { offset: 0x9702B, size: 0x8, addend: 0x0, symName: _OUTLINED_FUNCTION_241, symObjAddr: 0xA3FDC, symBinAddr: 0x10009E6C4, symSize: 0x10 }
  - { offset: 0x97043, size: 0x8, addend: 0x0, symName: _OUTLINED_FUNCTION_242, symObjAddr: 0xA3FEC, symBinAddr: 0x10009E6D4, symSize: 0x18 }
  - { offset: 0x9705B, size: 0x8, addend: 0x0, symName: _OUTLINED_FUNCTION_244, symObjAddr: 0xA401C, symBinAddr: 0x10009E704, symSize: 0xC }
  - { offset: 0x97073, size: 0x8, addend: 0x0, symName: _OUTLINED_FUNCTION_245, symObjAddr: 0xA4028, symBinAddr: 0x10009E710, symSize: 0x18 }
  - { offset: 0x9708B, size: 0x8, addend: 0x0, symName: _OUTLINED_FUNCTION_249, symObjAddr: 0xA4084, symBinAddr: 0x10009E76C, symSize: 0x10 }
  - { offset: 0x970A3, size: 0x8, addend: 0x0, symName: _OUTLINED_FUNCTION_250, symObjAddr: 0xA4094, symBinAddr: 0x10009E77C, symSize: 0x18 }
  - { offset: 0x970BB, size: 0x8, addend: 0x0, symName: _OUTLINED_FUNCTION_251, symObjAddr: 0xA40AC, symBinAddr: 0x10009E794, symSize: 0xC }
  - { offset: 0x970D3, size: 0x8, addend: 0x0, symName: _OUTLINED_FUNCTION_254, symObjAddr: 0xA40D8, symBinAddr: 0x10009E7C0, symSize: 0x14 }
  - { offset: 0x970EB, size: 0x8, addend: 0x0, symName: _OUTLINED_FUNCTION_255, symObjAddr: 0xA40EC, symBinAddr: 0x10009E7D4, symSize: 0x8 }
  - { offset: 0x97103, size: 0x8, addend: 0x0, symName: _OUTLINED_FUNCTION_256, symObjAddr: 0xA40F4, symBinAddr: 0x10009E7DC, symSize: 0x8 }
  - { offset: 0x9711B, size: 0x8, addend: 0x0, symName: _OUTLINED_FUNCTION_258, symObjAddr: 0xA4114, symBinAddr: 0x10009E7FC, symSize: 0x8 }
  - { offset: 0x97133, size: 0x8, addend: 0x0, symName: _OUTLINED_FUNCTION_259, symObjAddr: 0xA411C, symBinAddr: 0x10009E804, symSize: 0xC }
  - { offset: 0x9714B, size: 0x8, addend: 0x0, symName: _OUTLINED_FUNCTION_260, symObjAddr: 0xA4128, symBinAddr: 0x10009E810, symSize: 0xC }
  - { offset: 0x97163, size: 0x8, addend: 0x0, symName: _OUTLINED_FUNCTION_261, symObjAddr: 0xA4134, symBinAddr: 0x10009E81C, symSize: 0x8 }
  - { offset: 0x9717B, size: 0x8, addend: 0x0, symName: _OUTLINED_FUNCTION_262, symObjAddr: 0xA413C, symBinAddr: 0x10009E824, symSize: 0x8 }
  - { offset: 0x97193, size: 0x8, addend: 0x0, symName: _OUTLINED_FUNCTION_263, symObjAddr: 0xA4144, symBinAddr: 0x10009E82C, symSize: 0xC }
  - { offset: 0x971AB, size: 0x8, addend: 0x0, symName: _OUTLINED_FUNCTION_265, symObjAddr: 0xA4158, symBinAddr: 0x10009E840, symSize: 0x8 }
  - { offset: 0x971C3, size: 0x8, addend: 0x0, symName: _OUTLINED_FUNCTION_266, symObjAddr: 0xA4160, symBinAddr: 0x10009E848, symSize: 0x8 }
  - { offset: 0x971DB, size: 0x8, addend: 0x0, symName: _OUTLINED_FUNCTION_268, symObjAddr: 0xA4170, symBinAddr: 0x10009E858, symSize: 0x8 }
  - { offset: 0x971F3, size: 0x8, addend: 0x0, symName: _OUTLINED_FUNCTION_275, symObjAddr: 0xA41F8, symBinAddr: 0x10009E8E0, symSize: 0x10 }
  - { offset: 0x9720B, size: 0x8, addend: 0x0, symName: _OUTLINED_FUNCTION_276, symObjAddr: 0xA4208, symBinAddr: 0x10009E8F0, symSize: 0x10 }
  - { offset: 0x97223, size: 0x8, addend: 0x0, symName: _OUTLINED_FUNCTION_278, symObjAddr: 0xA4228, symBinAddr: 0x10009E910, symSize: 0x10 }
  - { offset: 0x9723B, size: 0x8, addend: 0x0, symName: _OUTLINED_FUNCTION_279, symObjAddr: 0xA4238, symBinAddr: 0x10009E920, symSize: 0x10 }
  - { offset: 0x97253, size: 0x8, addend: 0x0, symName: _OUTLINED_FUNCTION_282, symObjAddr: 0xA4278, symBinAddr: 0x10009E960, symSize: 0xC }
  - { offset: 0x9726B, size: 0x8, addend: 0x0, symName: _OUTLINED_FUNCTION_284, symObjAddr: 0xA4290, symBinAddr: 0x10009E978, symSize: 0x8 }
  - { offset: 0x97283, size: 0x8, addend: 0x0, symName: _OUTLINED_FUNCTION_285, symObjAddr: 0xA4298, symBinAddr: 0x10009E980, symSize: 0x8 }
  - { offset: 0x9729B, size: 0x8, addend: 0x0, symName: _OUTLINED_FUNCTION_286, symObjAddr: 0xA42A0, symBinAddr: 0x10009E988, symSize: 0x8 }
  - { offset: 0x972B3, size: 0x8, addend: 0x0, symName: _OUTLINED_FUNCTION_287, symObjAddr: 0xA42A8, symBinAddr: 0x10009E990, symSize: 0x8 }
  - { offset: 0x972CB, size: 0x8, addend: 0x0, symName: _OUTLINED_FUNCTION_288, symObjAddr: 0xA42B0, symBinAddr: 0x10009E998, symSize: 0xC }
  - { offset: 0x972E3, size: 0x8, addend: 0x0, symName: _OUTLINED_FUNCTION_289, symObjAddr: 0xA42BC, symBinAddr: 0x10009E9A4, symSize: 0x8 }
  - { offset: 0x972FB, size: 0x8, addend: 0x0, symName: _OUTLINED_FUNCTION_291, symObjAddr: 0xA42CC, symBinAddr: 0x10009E9B4, symSize: 0x8 }
  - { offset: 0x97313, size: 0x8, addend: 0x0, symName: _OUTLINED_FUNCTION_293, symObjAddr: 0xA42DC, symBinAddr: 0x10009E9C4, symSize: 0x8 }
  - { offset: 0x9732B, size: 0x8, addend: 0x0, symName: _OUTLINED_FUNCTION_294, symObjAddr: 0xA42E4, symBinAddr: 0x10009E9CC, symSize: 0xC }
  - { offset: 0x97343, size: 0x8, addend: 0x0, symName: _OUTLINED_FUNCTION_295, symObjAddr: 0xA42F0, symBinAddr: 0x10009E9D8, symSize: 0xC }
  - { offset: 0x9735B, size: 0x8, addend: 0x0, symName: _OUTLINED_FUNCTION_299, symObjAddr: 0xA4320, symBinAddr: 0x10009EA08, symSize: 0xC }
  - { offset: 0x97373, size: 0x8, addend: 0x0, symName: _OUTLINED_FUNCTION_300, symObjAddr: 0xA432C, symBinAddr: 0x10009EA14, symSize: 0xC }
  - { offset: 0x9738B, size: 0x8, addend: 0x0, symName: _OUTLINED_FUNCTION_309, symObjAddr: 0xA43B0, symBinAddr: 0x10009EA98, symSize: 0xC }
  - { offset: 0x973A3, size: 0x8, addend: 0x0, symName: _OUTLINED_FUNCTION_314, symObjAddr: 0xA43FC, symBinAddr: 0x10009EAE4, symSize: 0xC }
  - { offset: 0x973BB, size: 0x8, addend: 0x0, symName: _OUTLINED_FUNCTION_315, symObjAddr: 0xA4408, symBinAddr: 0x10009EAF0, symSize: 0xC }
  - { offset: 0x973D3, size: 0x8, addend: 0x0, symName: _OUTLINED_FUNCTION_316, symObjAddr: 0xA4414, symBinAddr: 0x10009EAFC, symSize: 0x14 }
  - { offset: 0x973EB, size: 0x8, addend: 0x0, symName: _OUTLINED_FUNCTION_318, symObjAddr: 0xA4434, symBinAddr: 0x10009EB1C, symSize: 0x14 }
  - { offset: 0x97403, size: 0x8, addend: 0x0, symName: _OUTLINED_FUNCTION_323, symObjAddr: 0xA4478, symBinAddr: 0x10009EB60, symSize: 0xC }
  - { offset: 0x9741B, size: 0x8, addend: 0x0, symName: _OUTLINED_FUNCTION_324, symObjAddr: 0xA4484, symBinAddr: 0x10009EB6C, symSize: 0xC }
  - { offset: 0x97433, size: 0x8, addend: 0x0, symName: _OUTLINED_FUNCTION_326, symObjAddr: 0xA4504, symBinAddr: 0x10009EBEC, symSize: 0x8 }
  - { offset: 0x9744B, size: 0x8, addend: 0x0, symName: _OUTLINED_FUNCTION_327, symObjAddr: 0xA450C, symBinAddr: 0x10009EBF4, symSize: 0x8 }
  - { offset: 0x97463, size: 0x8, addend: 0x0, symName: _OUTLINED_FUNCTION_329, symObjAddr: 0xA451C, symBinAddr: 0x10009EC04, symSize: 0xC }
  - { offset: 0x9747B, size: 0x8, addend: 0x0, symName: _OUTLINED_FUNCTION_330, symObjAddr: 0xA4528, symBinAddr: 0x10009EC10, symSize: 0x8 }
  - { offset: 0x97493, size: 0x8, addend: 0x0, symName: _OUTLINED_FUNCTION_331, symObjAddr: 0xA4530, symBinAddr: 0x10009EC18, symSize: 0x8 }
  - { offset: 0x974AB, size: 0x8, addend: 0x0, symName: _OUTLINED_FUNCTION_332, symObjAddr: 0xA4538, symBinAddr: 0x10009EC20, symSize: 0xC }
  - { offset: 0x974C3, size: 0x8, addend: 0x0, symName: _OUTLINED_FUNCTION_333, symObjAddr: 0xA4544, symBinAddr: 0x10009EC2C, symSize: 0x8 }
  - { offset: 0x974DB, size: 0x8, addend: 0x0, symName: _OUTLINED_FUNCTION_334, symObjAddr: 0xA454C, symBinAddr: 0x10009EC34, symSize: 0x8 }
  - { offset: 0x974F3, size: 0x8, addend: 0x0, symName: _OUTLINED_FUNCTION_335, symObjAddr: 0xA4554, symBinAddr: 0x10009EC3C, symSize: 0xC }
  - { offset: 0x9750B, size: 0x8, addend: 0x0, symName: _OUTLINED_FUNCTION_337, symObjAddr: 0xA4574, symBinAddr: 0x10009EC5C, symSize: 0x8 }
  - { offset: 0x97523, size: 0x8, addend: 0x0, symName: _OUTLINED_FUNCTION_338, symObjAddr: 0xA457C, symBinAddr: 0x10009EC64, symSize: 0x8 }
  - { offset: 0x9753B, size: 0x8, addend: 0x0, symName: _OUTLINED_FUNCTION_339, symObjAddr: 0xA4584, symBinAddr: 0x10009EC6C, symSize: 0xC }
  - { offset: 0x97553, size: 0x8, addend: 0x0, symName: _OUTLINED_FUNCTION_340, symObjAddr: 0xA4590, symBinAddr: 0x10009EC78, symSize: 0xC }
  - { offset: 0x9756B, size: 0x8, addend: 0x0, symName: _OUTLINED_FUNCTION_341, symObjAddr: 0xA459C, symBinAddr: 0x10009EC84, symSize: 0x8 }
  - { offset: 0x97583, size: 0x8, addend: 0x0, symName: _OUTLINED_FUNCTION_342, symObjAddr: 0xA45A4, symBinAddr: 0x10009EC8C, symSize: 0x8 }
  - { offset: 0x9759B, size: 0x8, addend: 0x0, symName: _OUTLINED_FUNCTION_343, symObjAddr: 0xA45AC, symBinAddr: 0x10009EC94, symSize: 0xC }
  - { offset: 0x975B3, size: 0x8, addend: 0x0, symName: _OUTLINED_FUNCTION_346, symObjAddr: 0xA45CC, symBinAddr: 0x10009ECB4, symSize: 0xC }
  - { offset: 0x975CB, size: 0x8, addend: 0x0, symName: _OUTLINED_FUNCTION_347, symObjAddr: 0xA45D8, symBinAddr: 0x10009ECC0, symSize: 0x8 }
  - { offset: 0x975E3, size: 0x8, addend: 0x0, symName: _OUTLINED_FUNCTION_348, symObjAddr: 0xA45E0, symBinAddr: 0x10009ECC8, symSize: 0x8 }
  - { offset: 0x975FB, size: 0x8, addend: 0x0, symName: _OUTLINED_FUNCTION_349, symObjAddr: 0xA45E8, symBinAddr: 0x10009ECD0, symSize: 0x8 }
  - { offset: 0x97613, size: 0x8, addend: 0x0, symName: _OUTLINED_FUNCTION_354, symObjAddr: 0xA465C, symBinAddr: 0x10009ED44, symSize: 0x8 }
  - { offset: 0x9762B, size: 0x8, addend: 0x0, symName: _OUTLINED_FUNCTION_355, symObjAddr: 0xA4664, symBinAddr: 0x10009ED4C, symSize: 0x8 }
  - { offset: 0x97643, size: 0x8, addend: 0x0, symName: _OUTLINED_FUNCTION_356, symObjAddr: 0xA466C, symBinAddr: 0x10009ED54, symSize: 0x8 }
  - { offset: 0x9765B, size: 0x8, addend: 0x0, symName: _OUTLINED_FUNCTION_357, symObjAddr: 0xA4674, symBinAddr: 0x10009ED5C, symSize: 0x8 }
  - { offset: 0x97673, size: 0x8, addend: 0x0, symName: _OUTLINED_FUNCTION_359, symObjAddr: 0xA4684, symBinAddr: 0x10009ED6C, symSize: 0xC }
  - { offset: 0x9768B, size: 0x8, addend: 0x0, symName: _OUTLINED_FUNCTION_360, symObjAddr: 0xA4690, symBinAddr: 0x10009ED78, symSize: 0x9C }
  - { offset: 0x976A3, size: 0x8, addend: 0x0, symName: _OUTLINED_FUNCTION_361, symObjAddr: 0xA472C, symBinAddr: 0x10009EE14, symSize: 0x10 }
  - { offset: 0x976BB, size: 0x8, addend: 0x0, symName: _OUTLINED_FUNCTION_363, symObjAddr: 0xA474C, symBinAddr: 0x10009EE34, symSize: 0x10 }
  - { offset: 0x976D3, size: 0x8, addend: 0x0, symName: _OUTLINED_FUNCTION_364, symObjAddr: 0xA475C, symBinAddr: 0x10009EE44, symSize: 0x10 }
  - { offset: 0x976EB, size: 0x8, addend: 0x0, symName: _OUTLINED_FUNCTION_365, symObjAddr: 0xA476C, symBinAddr: 0x10009EE54, symSize: 0x10 }
  - { offset: 0x97703, size: 0x8, addend: 0x0, symName: _OUTLINED_FUNCTION_366, symObjAddr: 0xA477C, symBinAddr: 0x10009EE64, symSize: 0x1C }
  - { offset: 0x9771B, size: 0x8, addend: 0x0, symName: _OUTLINED_FUNCTION_368, symObjAddr: 0xA47B4, symBinAddr: 0x10009EE9C, symSize: 0x10 }
  - { offset: 0x97733, size: 0x8, addend: 0x0, symName: _OUTLINED_FUNCTION_369, symObjAddr: 0xA47C4, symBinAddr: 0x10009EEAC, symSize: 0x10 }
  - { offset: 0x9774B, size: 0x8, addend: 0x0, symName: _OUTLINED_FUNCTION_370, symObjAddr: 0xA47D4, symBinAddr: 0x10009EEBC, symSize: 0x8 }
  - { offset: 0x97763, size: 0x8, addend: 0x0, symName: _OUTLINED_FUNCTION_373, symObjAddr: 0xA47FC, symBinAddr: 0x10009EEE4, symSize: 0x10 }
  - { offset: 0x9777B, size: 0x8, addend: 0x0, symName: _OUTLINED_FUNCTION_375, symObjAddr: 0xA4818, symBinAddr: 0x10009EF00, symSize: 0xC }
  - { offset: 0x97793, size: 0x8, addend: 0x0, symName: _OUTLINED_FUNCTION_376, symObjAddr: 0xA4824, symBinAddr: 0x10009EF0C, symSize: 0xC }
  - { offset: 0x977AB, size: 0x8, addend: 0x0, symName: _OUTLINED_FUNCTION_377, symObjAddr: 0xA4830, symBinAddr: 0x10009EF18, symSize: 0xC }
  - { offset: 0x977C3, size: 0x8, addend: 0x0, symName: _OUTLINED_FUNCTION_379, symObjAddr: 0xA4844, symBinAddr: 0x10009EF2C, symSize: 0x8 }
  - { offset: 0x977DB, size: 0x8, addend: 0x0, symName: _OUTLINED_FUNCTION_381, symObjAddr: 0xA4858, symBinAddr: 0x10009EF40, symSize: 0xC }
  - { offset: 0x977F3, size: 0x8, addend: 0x0, symName: _OUTLINED_FUNCTION_382, symObjAddr: 0xA4864, symBinAddr: 0x10009EF4C, symSize: 0x14 }
  - { offset: 0x9780B, size: 0x8, addend: 0x0, symName: _OUTLINED_FUNCTION_383, symObjAddr: 0xA4878, symBinAddr: 0x10009EF60, symSize: 0x14 }
  - { offset: 0x97823, size: 0x8, addend: 0x0, symName: _OUTLINED_FUNCTION_385, symObjAddr: 0xA48A0, symBinAddr: 0x10009EF88, symSize: 0x14 }
  - { offset: 0x9783B, size: 0x8, addend: 0x0, symName: _OUTLINED_FUNCTION_388, symObjAddr: 0xA48DC, symBinAddr: 0x10009EFC4, symSize: 0xC }
  - { offset: 0x97853, size: 0x8, addend: 0x0, symName: _OUTLINED_FUNCTION_389, symObjAddr: 0xA48E8, symBinAddr: 0x10009EFD0, symSize: 0x14 }
  - { offset: 0x9786B, size: 0x8, addend: 0x0, symName: _OUTLINED_FUNCTION_391, symObjAddr: 0xA4910, symBinAddr: 0x10009EFF8, symSize: 0x14 }
  - { offset: 0x97883, size: 0x8, addend: 0x0, symName: _OUTLINED_FUNCTION_401, symObjAddr: 0xA49D8, symBinAddr: 0x10009F0C0, symSize: 0x8 }
  - { offset: 0x9789B, size: 0x8, addend: 0x0, symName: _OUTLINED_FUNCTION_402, symObjAddr: 0xA49E0, symBinAddr: 0x10009F0C8, symSize: 0xC }
  - { offset: 0x978B3, size: 0x8, addend: 0x0, symName: _OUTLINED_FUNCTION_404, symObjAddr: 0xA49F4, symBinAddr: 0x10009F0DC, symSize: 0x14 }
  - { offset: 0x978CB, size: 0x8, addend: 0x0, symName: _OUTLINED_FUNCTION_405, symObjAddr: 0xA4A08, symBinAddr: 0x10009F0F0, symSize: 0x14 }
  - { offset: 0x978E3, size: 0x8, addend: 0x0, symName: _OUTLINED_FUNCTION_406, symObjAddr: 0xA4A1C, symBinAddr: 0x10009F104, symSize: 0x14 }
  - { offset: 0x978FB, size: 0x8, addend: 0x0, symName: _OUTLINED_FUNCTION_409, symObjAddr: 0xA4A44, symBinAddr: 0x10009F12C, symSize: 0x8 }
  - { offset: 0x97913, size: 0x8, addend: 0x0, symName: _OUTLINED_FUNCTION_410, symObjAddr: 0xA4A4C, symBinAddr: 0x10009F134, symSize: 0x8 }
  - { offset: 0x9792B, size: 0x8, addend: 0x0, symName: _OUTLINED_FUNCTION_411, symObjAddr: 0xA4A54, symBinAddr: 0x10009F13C, symSize: 0x8 }
  - { offset: 0x97943, size: 0x8, addend: 0x0, symName: _OUTLINED_FUNCTION_412, symObjAddr: 0xA4A5C, symBinAddr: 0x10009F144, symSize: 0x8 }
  - { offset: 0x9795B, size: 0x8, addend: 0x0, symName: _OUTLINED_FUNCTION_413, symObjAddr: 0xA4A64, symBinAddr: 0x10009F14C, symSize: 0x8 }
  - { offset: 0x97973, size: 0x8, addend: 0x0, symName: _OUTLINED_FUNCTION_415, symObjAddr: 0xA4A74, symBinAddr: 0x10009F15C, symSize: 0x8 }
  - { offset: 0x9798B, size: 0x8, addend: 0x0, symName: _OUTLINED_FUNCTION_416, symObjAddr: 0xA4A7C, symBinAddr: 0x10009F164, symSize: 0xC }
  - { offset: 0x979A3, size: 0x8, addend: 0x0, symName: _OUTLINED_FUNCTION_418, symObjAddr: 0xA4A94, symBinAddr: 0x10009F17C, symSize: 0xC }
  - { offset: 0x979BB, size: 0x8, addend: 0x0, symName: _OUTLINED_FUNCTION_419, symObjAddr: 0xA4AA0, symBinAddr: 0x10009F188, symSize: 0x8 }
  - { offset: 0x979D3, size: 0x8, addend: 0x0, symName: _OUTLINED_FUNCTION_423, symObjAddr: 0xA4AF0, symBinAddr: 0x10009F1D8, symSize: 0x8 }
  - { offset: 0x979EB, size: 0x8, addend: 0x0, symName: _OUTLINED_FUNCTION_426, symObjAddr: 0xA4B58, symBinAddr: 0x10009F240, symSize: 0x8 }
  - { offset: 0x97A03, size: 0x8, addend: 0x0, symName: _OUTLINED_FUNCTION_427, symObjAddr: 0xA4B60, symBinAddr: 0x10009F248, symSize: 0x14 }
  - { offset: 0x97A1B, size: 0x8, addend: 0x0, symName: _OUTLINED_FUNCTION_428, symObjAddr: 0xA4B74, symBinAddr: 0x10009F25C, symSize: 0xC }
  - { offset: 0x97A33, size: 0x8, addend: 0x0, symName: _OUTLINED_FUNCTION_431, symObjAddr: 0xA4B94, symBinAddr: 0x10009F27C, symSize: 0x8 }
  - { offset: 0x97A4B, size: 0x8, addend: 0x0, symName: _OUTLINED_FUNCTION_433, symObjAddr: 0xA4BA4, symBinAddr: 0x10009F28C, symSize: 0x8 }
  - { offset: 0x97A63, size: 0x8, addend: 0x0, symName: _OUTLINED_FUNCTION_438, symObjAddr: 0xA4BDC, symBinAddr: 0x10009F2C4, symSize: 0xC }
  - { offset: 0x97A7B, size: 0x8, addend: 0x0, symName: _OUTLINED_FUNCTION_439, symObjAddr: 0xA4BE8, symBinAddr: 0x10009F2D0, symSize: 0xC }
  - { offset: 0x97A93, size: 0x8, addend: 0x0, symName: _OUTLINED_FUNCTION_443, symObjAddr: 0xA4C1C, symBinAddr: 0x10009F304, symSize: 0x10 }
  - { offset: 0x97AAB, size: 0x8, addend: 0x0, symName: _OUTLINED_FUNCTION_444, symObjAddr: 0xA4C2C, symBinAddr: 0x10009F314, symSize: 0xC }
  - { offset: 0x97AC3, size: 0x8, addend: 0x0, symName: _OUTLINED_FUNCTION_448, symObjAddr: 0xA4CA0, symBinAddr: 0x10009F388, symSize: 0x10 }
  - { offset: 0x97ADB, size: 0x8, addend: 0x0, symName: _OUTLINED_FUNCTION_450, symObjAddr: 0xA4CBC, symBinAddr: 0x10009F3A4, symSize: 0xC }
  - { offset: 0x97AF3, size: 0x8, addend: 0x0, symName: _OUTLINED_FUNCTION_451, symObjAddr: 0xA4CC8, symBinAddr: 0x10009F3B0, symSize: 0x10 }
  - { offset: 0x97B0B, size: 0x8, addend: 0x0, symName: _OUTLINED_FUNCTION_453, symObjAddr: 0xA4CE4, symBinAddr: 0x10009F3CC, symSize: 0xC }
  - { offset: 0x97B23, size: 0x8, addend: 0x0, symName: _OUTLINED_FUNCTION_454, symObjAddr: 0xA4CF0, symBinAddr: 0x10009F3D8, symSize: 0xC }
  - { offset: 0x97B3B, size: 0x8, addend: 0x0, symName: _OUTLINED_FUNCTION_455, symObjAddr: 0xA4CFC, symBinAddr: 0x10009F3E4, symSize: 0x8 }
  - { offset: 0x97B53, size: 0x8, addend: 0x0, symName: _OUTLINED_FUNCTION_460, symObjAddr: 0xA4D3C, symBinAddr: 0x10009F424, symSize: 0xC }
  - { offset: 0x97B6B, size: 0x8, addend: 0x0, symName: _OUTLINED_FUNCTION_463, symObjAddr: 0xA4D60, symBinAddr: 0x10009F448, symSize: 0xC }
  - { offset: 0x97B83, size: 0x8, addend: 0x0, symName: _OUTLINED_FUNCTION_472, symObjAddr: 0xA4DE0, symBinAddr: 0x10009F4C8, symSize: 0x10 }
  - { offset: 0x97B9B, size: 0x8, addend: 0x0, symName: _OUTLINED_FUNCTION_475, symObjAddr: 0xA4E08, symBinAddr: 0x10009F4F0, symSize: 0xC }
  - { offset: 0x97BB3, size: 0x8, addend: 0x0, symName: _OUTLINED_FUNCTION_476, symObjAddr: 0xA4E14, symBinAddr: 0x10009F4FC, symSize: 0x8 }
  - { offset: 0x97BCB, size: 0x8, addend: 0x0, symName: _OUTLINED_FUNCTION_478, symObjAddr: 0xA4E28, symBinAddr: 0x10009F510, symSize: 0xC }
  - { offset: 0x97BE3, size: 0x8, addend: 0x0, symName: _OUTLINED_FUNCTION_479, symObjAddr: 0xA4E34, symBinAddr: 0x10009F51C, symSize: 0x10 }
  - { offset: 0x97BFB, size: 0x8, addend: 0x0, symName: _OUTLINED_FUNCTION_480, symObjAddr: 0xA4E44, symBinAddr: 0x10009F52C, symSize: 0x10 }
  - { offset: 0x97C13, size: 0x8, addend: 0x0, symName: _OUTLINED_FUNCTION_483, symObjAddr: 0xA4E74, symBinAddr: 0x10009F55C, symSize: 0xC }
  - { offset: 0x97C2B, size: 0x8, addend: 0x0, symName: _OUTLINED_FUNCTION_484, symObjAddr: 0xA4E80, symBinAddr: 0x10009F568, symSize: 0xC }
  - { offset: 0x97C43, size: 0x8, addend: 0x0, symName: _OUTLINED_FUNCTION_485, symObjAddr: 0xA4E8C, symBinAddr: 0x10009F574, symSize: 0xC }
  - { offset: 0x97C5B, size: 0x8, addend: 0x0, symName: _OUTLINED_FUNCTION_488, symObjAddr: 0xA4EB0, symBinAddr: 0x10009F598, symSize: 0xC }
  - { offset: 0x97C73, size: 0x8, addend: 0x0, symName: _OUTLINED_FUNCTION_491, symObjAddr: 0xA4ED8, symBinAddr: 0x10009F5C0, symSize: 0xC }
  - { offset: 0x97C8B, size: 0x8, addend: 0x0, symName: _OUTLINED_FUNCTION_493, symObjAddr: 0xA4EF0, symBinAddr: 0x10009F5D8, symSize: 0xC }
  - { offset: 0x97CA3, size: 0x8, addend: 0x0, symName: _OUTLINED_FUNCTION_494, symObjAddr: 0xA4EFC, symBinAddr: 0x10009F5E4, symSize: 0xC }
  - { offset: 0x97CBB, size: 0x8, addend: 0x0, symName: _OUTLINED_FUNCTION_497, symObjAddr: 0xA4F1C, symBinAddr: 0x10009F604, symSize: 0x8 }
  - { offset: 0x97CD3, size: 0x8, addend: 0x0, symName: _OUTLINED_FUNCTION_498, symObjAddr: 0xA4F24, symBinAddr: 0x10009F60C, symSize: 0x10 }
  - { offset: 0x97CEB, size: 0x8, addend: 0x0, symName: _OUTLINED_FUNCTION_511, symObjAddr: 0xA4FEC, symBinAddr: 0x10009F6D4, symSize: 0xC }
  - { offset: 0x97D03, size: 0x8, addend: 0x0, symName: _OUTLINED_FUNCTION_512, symObjAddr: 0xA4FF8, symBinAddr: 0x10009F6E0, symSize: 0x10 }
  - { offset: 0x97D1B, size: 0x8, addend: 0x0, symName: _OUTLINED_FUNCTION_514, symObjAddr: 0xA5018, symBinAddr: 0x10009F700, symSize: 0x8 }
  - { offset: 0x97D33, size: 0x8, addend: 0x0, symName: _OUTLINED_FUNCTION_515, symObjAddr: 0xA5020, symBinAddr: 0x10009F708, symSize: 0x8 }
  - { offset: 0x97D4B, size: 0x8, addend: 0x0, symName: _OUTLINED_FUNCTION_516, symObjAddr: 0xA5028, symBinAddr: 0x10009F710, symSize: 0x8 }
  - { offset: 0x97D63, size: 0x8, addend: 0x0, symName: _OUTLINED_FUNCTION_518, symObjAddr: 0xA5040, symBinAddr: 0x10009F728, symSize: 0x8 }
  - { offset: 0x97D7B, size: 0x8, addend: 0x0, symName: _OUTLINED_FUNCTION_520, symObjAddr: 0xA5054, symBinAddr: 0x10009F73C, symSize: 0x8 }
  - { offset: 0x97D93, size: 0x8, addend: 0x0, symName: _OUTLINED_FUNCTION_521, symObjAddr: 0xA505C, symBinAddr: 0x10009F744, symSize: 0x8 }
  - { offset: 0x97DAB, size: 0x8, addend: 0x0, symName: _OUTLINED_FUNCTION_523, symObjAddr: 0xA5070, symBinAddr: 0x10009F758, symSize: 0x10 }
  - { offset: 0x97DC3, size: 0x8, addend: 0x0, symName: _OUTLINED_FUNCTION_525, symObjAddr: 0xA508C, symBinAddr: 0x10009F774, symSize: 0xC }
  - { offset: 0x97DDB, size: 0x8, addend: 0x0, symName: _OUTLINED_FUNCTION_526, symObjAddr: 0xA5098, symBinAddr: 0x10009F780, symSize: 0xC }
  - { offset: 0x97DF3, size: 0x8, addend: 0x0, symName: _OUTLINED_FUNCTION_529, symObjAddr: 0xA50F8, symBinAddr: 0x10009F7E0, symSize: 0xC }
  - { offset: 0x97E0B, size: 0x8, addend: 0x0, symName: _OUTLINED_FUNCTION_531, symObjAddr: 0xA5110, symBinAddr: 0x10009F7F8, symSize: 0xC }
  - { offset: 0x97E23, size: 0x8, addend: 0x0, symName: _OUTLINED_FUNCTION_540, symObjAddr: 0xA518C, symBinAddr: 0x10009F874, symSize: 0x2C }
  - { offset: 0x97E3B, size: 0x8, addend: 0x0, symName: _OUTLINED_FUNCTION_544, symObjAddr: 0xA51D0, symBinAddr: 0x10009F8B8, symSize: 0x8 }
  - { offset: 0x97E53, size: 0x8, addend: 0x0, symName: _OUTLINED_FUNCTION_546, symObjAddr: 0xA51E0, symBinAddr: 0x10009F8C8, symSize: 0x8 }
  - { offset: 0x97E6B, size: 0x8, addend: 0x0, symName: _OUTLINED_FUNCTION_547, symObjAddr: 0xA51E8, symBinAddr: 0x10009F8D0, symSize: 0x8 }
  - { offset: 0x97E83, size: 0x8, addend: 0x0, symName: _OUTLINED_FUNCTION_548, symObjAddr: 0xA51F0, symBinAddr: 0x10009F8D8, symSize: 0x8 }
  - { offset: 0x97E9B, size: 0x8, addend: 0x0, symName: _OUTLINED_FUNCTION_549, symObjAddr: 0xA51F8, symBinAddr: 0x10009F8E0, symSize: 0xC }
  - { offset: 0x97EB3, size: 0x8, addend: 0x0, symName: _OUTLINED_FUNCTION_553, symObjAddr: 0xA5260, symBinAddr: 0x10009F948, symSize: 0xC }
  - { offset: 0x97ECB, size: 0x8, addend: 0x0, symName: _OUTLINED_FUNCTION_555, symObjAddr: 0xA5278, symBinAddr: 0x10009F960, symSize: 0xC }
  - { offset: 0x97EE3, size: 0x8, addend: 0x0, symName: _OUTLINED_FUNCTION_556, symObjAddr: 0xA5284, symBinAddr: 0x10009F96C, symSize: 0xC }
  - { offset: 0x97EFB, size: 0x8, addend: 0x0, symName: _OUTLINED_FUNCTION_557, symObjAddr: 0xA5290, symBinAddr: 0x10009F978, symSize: 0x18 }
  - { offset: 0x97F13, size: 0x8, addend: 0x0, symName: _OUTLINED_FUNCTION_559, symObjAddr: 0xA52B4, symBinAddr: 0x10009F99C, symSize: 0x8 }
  - { offset: 0x97F2B, size: 0x8, addend: 0x0, symName: _OUTLINED_FUNCTION_560, symObjAddr: 0xA52BC, symBinAddr: 0x10009F9A4, symSize: 0x18 }
  - { offset: 0x97F43, size: 0x8, addend: 0x0, symName: _OUTLINED_FUNCTION_564, symObjAddr: 0xA52FC, symBinAddr: 0x10009F9E4, symSize: 0x10 }
  - { offset: 0x97F5B, size: 0x8, addend: 0x0, symName: _OUTLINED_FUNCTION_565, symObjAddr: 0xA530C, symBinAddr: 0x10009F9F4, symSize: 0xC }
  - { offset: 0x97F73, size: 0x8, addend: 0x0, symName: _OUTLINED_FUNCTION_567, symObjAddr: 0xA5324, symBinAddr: 0x10009FA0C, symSize: 0x18 }
  - { offset: 0x97F8B, size: 0x8, addend: 0x0, symName: _OUTLINED_FUNCTION_568, symObjAddr: 0xA533C, symBinAddr: 0x10009FA24, symSize: 0x18 }
  - { offset: 0x97FA3, size: 0x8, addend: 0x0, symName: _OUTLINED_FUNCTION_569, symObjAddr: 0xA5354, symBinAddr: 0x10009FA3C, symSize: 0x18 }
  - { offset: 0x97FBB, size: 0x8, addend: 0x0, symName: _OUTLINED_FUNCTION_571, symObjAddr: 0xA537C, symBinAddr: 0x10009FA64, symSize: 0xC }
  - { offset: 0x97FD3, size: 0x8, addend: 0x0, symName: _OUTLINED_FUNCTION_572, symObjAddr: 0xA5388, symBinAddr: 0x10009FA70, symSize: 0x28 }
  - { offset: 0x97FEB, size: 0x8, addend: 0x0, symName: _OUTLINED_FUNCTION_576, symObjAddr: 0xA53F8, symBinAddr: 0x10009FAE0, symSize: 0x8 }
  - { offset: 0x98003, size: 0x8, addend: 0x0, symName: _OUTLINED_FUNCTION_577, symObjAddr: 0xA5400, symBinAddr: 0x10009FAE8, symSize: 0x8 }
  - { offset: 0x9801B, size: 0x8, addend: 0x0, symName: _OUTLINED_FUNCTION_580, symObjAddr: 0xA5438, symBinAddr: 0x10009FB20, symSize: 0x10 }
  - { offset: 0x98033, size: 0x8, addend: 0x0, symName: _OUTLINED_FUNCTION_581, symObjAddr: 0xA5448, symBinAddr: 0x10009FB30, symSize: 0x18 }
  - { offset: 0x9804B, size: 0x8, addend: 0x0, symName: _OUTLINED_FUNCTION_583, symObjAddr: 0xA546C, symBinAddr: 0x10009FB54, symSize: 0x8 }
  - { offset: 0x98063, size: 0x8, addend: 0x0, symName: _OUTLINED_FUNCTION_586, symObjAddr: 0xA5484, symBinAddr: 0x10009FB6C, symSize: 0xC }
  - { offset: 0x9807B, size: 0x8, addend: 0x0, symName: _OUTLINED_FUNCTION_587, symObjAddr: 0xA5490, symBinAddr: 0x10009FB78, symSize: 0xC }
  - { offset: 0x98093, size: 0x8, addend: 0x0, symName: _OUTLINED_FUNCTION_588, symObjAddr: 0xA549C, symBinAddr: 0x10009FB84, symSize: 0xC }
  - { offset: 0x980AB, size: 0x8, addend: 0x0, symName: _OUTLINED_FUNCTION_589, symObjAddr: 0xA54A8, symBinAddr: 0x10009FB90, symSize: 0xC }
  - { offset: 0x980C3, size: 0x8, addend: 0x0, symName: _OUTLINED_FUNCTION_590, symObjAddr: 0xA54B4, symBinAddr: 0x10009FB9C, symSize: 0xC }
  - { offset: 0x980DB, size: 0x8, addend: 0x0, symName: _OUTLINED_FUNCTION_591, symObjAddr: 0xA54C0, symBinAddr: 0x10009FBA8, symSize: 0xC }
  - { offset: 0x980F3, size: 0x8, addend: 0x0, symName: _OUTLINED_FUNCTION_594, symObjAddr: 0xA54E4, symBinAddr: 0x10009FBCC, symSize: 0xC }
  - { offset: 0x9810B, size: 0x8, addend: 0x0, symName: _OUTLINED_FUNCTION_595, symObjAddr: 0xA54F0, symBinAddr: 0x10009FBD8, symSize: 0xC }
  - { offset: 0x98123, size: 0x8, addend: 0x0, symName: _OUTLINED_FUNCTION_597, symObjAddr: 0xA5508, symBinAddr: 0x10009FBF0, symSize: 0xC }
  - { offset: 0x9813B, size: 0x8, addend: 0x0, symName: _OUTLINED_FUNCTION_598, symObjAddr: 0xA5514, symBinAddr: 0x10009FBFC, symSize: 0xC }
  - { offset: 0x98153, size: 0x8, addend: 0x0, symName: _OUTLINED_FUNCTION_600, symObjAddr: 0xA5528, symBinAddr: 0x10009FC10, symSize: 0x8 }
  - { offset: 0x9816B, size: 0x8, addend: 0x0, symName: _OUTLINED_FUNCTION_608, symObjAddr: 0xA5584, symBinAddr: 0x10009FC6C, symSize: 0x8 }
  - { offset: 0x98183, size: 0x8, addend: 0x0, symName: _OUTLINED_FUNCTION_609, symObjAddr: 0xA558C, symBinAddr: 0x10009FC74, symSize: 0x8 }
  - { offset: 0x9819B, size: 0x8, addend: 0x0, symName: _OUTLINED_FUNCTION_610, symObjAddr: 0xA5594, symBinAddr: 0x10009FC7C, symSize: 0x8 }
  - { offset: 0x981B3, size: 0x8, addend: 0x0, symName: _OUTLINED_FUNCTION_612, symObjAddr: 0xA55A4, symBinAddr: 0x10009FC8C, symSize: 0x8 }
  - { offset: 0x981CB, size: 0x8, addend: 0x0, symName: _OUTLINED_FUNCTION_613, symObjAddr: 0xA55AC, symBinAddr: 0x10009FC94, symSize: 0x18 }
  - { offset: 0x981E3, size: 0x8, addend: 0x0, symName: _OUTLINED_FUNCTION_614, symObjAddr: 0xA55C4, symBinAddr: 0x10009FCAC, symSize: 0xC }
  - { offset: 0x981FB, size: 0x8, addend: 0x0, symName: _OUTLINED_FUNCTION_615, symObjAddr: 0xA55D0, symBinAddr: 0x10009FCB8, symSize: 0xC }
  - { offset: 0x98213, size: 0x8, addend: 0x0, symName: _OUTLINED_FUNCTION_617, symObjAddr: 0xA5614, symBinAddr: 0x10009FCFC, symSize: 0xC }
  - { offset: 0x9822B, size: 0x8, addend: 0x0, symName: _OUTLINED_FUNCTION_618, symObjAddr: 0xA5620, symBinAddr: 0x10009FD08, symSize: 0xC }
  - { offset: 0x98243, size: 0x8, addend: 0x0, symName: _OUTLINED_FUNCTION_620, symObjAddr: 0xA5638, symBinAddr: 0x10009FD20, symSize: 0xC }
  - { offset: 0x9825B, size: 0x8, addend: 0x0, symName: _OUTLINED_FUNCTION_622, symObjAddr: 0xA5650, symBinAddr: 0x10009FD38, symSize: 0xC }
  - { offset: 0x98273, size: 0x8, addend: 0x0, symName: _OUTLINED_FUNCTION_623, symObjAddr: 0xA565C, symBinAddr: 0x10009FD44, symSize: 0x18 }
  - { offset: 0x9828B, size: 0x8, addend: 0x0, symName: _OUTLINED_FUNCTION_626, symObjAddr: 0xA56A0, symBinAddr: 0x10009FD88, symSize: 0x10 }
  - { offset: 0x982A3, size: 0x8, addend: 0x0, symName: _OUTLINED_FUNCTION_638, symObjAddr: 0xA572C, symBinAddr: 0x10009FE14, symSize: 0x8 }
  - { offset: 0x982BB, size: 0x8, addend: 0x0, symName: _OUTLINED_FUNCTION_639, symObjAddr: 0xA5734, symBinAddr: 0x10009FE1C, symSize: 0xC }
  - { offset: 0x982D3, size: 0x8, addend: 0x0, symName: _OUTLINED_FUNCTION_640, symObjAddr: 0xA5740, symBinAddr: 0x10009FE28, symSize: 0xC }
  - { offset: 0x982EB, size: 0x8, addend: 0x0, symName: _OUTLINED_FUNCTION_643, symObjAddr: 0xA5760, symBinAddr: 0x10009FE48, symSize: 0x8 }
  - { offset: 0x98303, size: 0x8, addend: 0x0, symName: _OUTLINED_FUNCTION_644, symObjAddr: 0xA5768, symBinAddr: 0x10009FE50, symSize: 0xC }
  - { offset: 0x9831B, size: 0x8, addend: 0x0, symName: _OUTLINED_FUNCTION_645, symObjAddr: 0xA5774, symBinAddr: 0x10009FE5C, symSize: 0x8 }
  - { offset: 0x98333, size: 0x8, addend: 0x0, symName: _OUTLINED_FUNCTION_647, symObjAddr: 0xA579C, symBinAddr: 0x10009FE84, symSize: 0xC }
  - { offset: 0x9834B, size: 0x8, addend: 0x0, symName: _OUTLINED_FUNCTION_650, symObjAddr: 0xA57D0, symBinAddr: 0x10009FEB8, symSize: 0x8 }
  - { offset: 0x98363, size: 0x8, addend: 0x0, symName: _OUTLINED_FUNCTION_651, symObjAddr: 0xA57D8, symBinAddr: 0x10009FEC0, symSize: 0xC }
  - { offset: 0x9837B, size: 0x8, addend: 0x0, symName: _OUTLINED_FUNCTION_656, symObjAddr: 0xA580C, symBinAddr: 0x10009FEF4, symSize: 0xC }
  - { offset: 0x98393, size: 0x8, addend: 0x0, symName: _OUTLINED_FUNCTION_661, symObjAddr: 0xA5850, symBinAddr: 0x10009FF38, symSize: 0xC }
  - { offset: 0x983AB, size: 0x8, addend: 0x0, symName: _OUTLINED_FUNCTION_662, symObjAddr: 0xA585C, symBinAddr: 0x10009FF44, symSize: 0xC }
  - { offset: 0x983C3, size: 0x8, addend: 0x0, symName: _OUTLINED_FUNCTION_669, symObjAddr: 0xA58F8, symBinAddr: 0x10009FFE0, symSize: 0xC }
  - { offset: 0x983DB, size: 0x8, addend: 0x0, symName: _OUTLINED_FUNCTION_670, symObjAddr: 0xA5904, symBinAddr: 0x10009FFEC, symSize: 0xC }
  - { offset: 0x983F3, size: 0x8, addend: 0x0, symName: _OUTLINED_FUNCTION_671, symObjAddr: 0xA5910, symBinAddr: 0x10009FFF8, symSize: 0xC }
  - { offset: 0x9840B, size: 0x8, addend: 0x0, symName: _OUTLINED_FUNCTION_672, symObjAddr: 0xA591C, symBinAddr: 0x1000A0004, symSize: 0xC }
  - { offset: 0x98423, size: 0x8, addend: 0x0, symName: _OUTLINED_FUNCTION_673, symObjAddr: 0xA5928, symBinAddr: 0x1000A0010, symSize: 0xC }
  - { offset: 0x9843B, size: 0x8, addend: 0x0, symName: _OUTLINED_FUNCTION_674, symObjAddr: 0xA5934, symBinAddr: 0x1000A001C, symSize: 0xC }
  - { offset: 0x98453, size: 0x8, addend: 0x0, symName: _OUTLINED_FUNCTION_678, symObjAddr: 0xA59AC, symBinAddr: 0x1000A0094, symSize: 0xC }
  - { offset: 0x9846B, size: 0x8, addend: 0x0, symName: _OUTLINED_FUNCTION_679, symObjAddr: 0xA59B8, symBinAddr: 0x1000A00A0, symSize: 0x10 }
  - { offset: 0x98483, size: 0x8, addend: 0x0, symName: _OUTLINED_FUNCTION_685, symObjAddr: 0xA5A18, symBinAddr: 0x1000A0100, symSize: 0x1C }
  - { offset: 0x9849B, size: 0x8, addend: 0x0, symName: _OUTLINED_FUNCTION_688, symObjAddr: 0xA5A6C, symBinAddr: 0x1000A0154, symSize: 0x8 }
  - { offset: 0x984B3, size: 0x8, addend: 0x0, symName: _OUTLINED_FUNCTION_691, symObjAddr: 0xA5A98, symBinAddr: 0x1000A0180, symSize: 0x8 }
  - { offset: 0x984CB, size: 0x8, addend: 0x0, symName: _OUTLINED_FUNCTION_692, symObjAddr: 0xA5AA0, symBinAddr: 0x1000A0188, symSize: 0x8 }
  - { offset: 0x984E3, size: 0x8, addend: 0x0, symName: _OUTLINED_FUNCTION_693, symObjAddr: 0xA5AA8, symBinAddr: 0x1000A0190, symSize: 0x8 }
  - { offset: 0x984FB, size: 0x8, addend: 0x0, symName: _OUTLINED_FUNCTION_694, symObjAddr: 0xA5AB0, symBinAddr: 0x1000A0198, symSize: 0x8 }
  - { offset: 0x98513, size: 0x8, addend: 0x0, symName: _OUTLINED_FUNCTION_697, symObjAddr: 0xA5ADC, symBinAddr: 0x1000A01C4, symSize: 0x8 }
  - { offset: 0x9852B, size: 0x8, addend: 0x0, symName: _OUTLINED_FUNCTION_702, symObjAddr: 0xA5B2C, symBinAddr: 0x1000A0214, symSize: 0x8 }
  - { offset: 0x98543, size: 0x8, addend: 0x0, symName: _OUTLINED_FUNCTION_703, symObjAddr: 0xA5B34, symBinAddr: 0x1000A021C, symSize: 0x8 }
  - { offset: 0x9855B, size: 0x8, addend: 0x0, symName: _OUTLINED_FUNCTION_705, symObjAddr: 0xA5B44, symBinAddr: 0x1000A022C, symSize: 0x8 }
  - { offset: 0x98573, size: 0x8, addend: 0x0, symName: _OUTLINED_FUNCTION_715, symObjAddr: 0xA5C20, symBinAddr: 0x1000A0308, symSize: 0xC }
  - { offset: 0x9858B, size: 0x8, addend: 0x0, symName: _OUTLINED_FUNCTION_716, symObjAddr: 0xA5C2C, symBinAddr: 0x1000A0314, symSize: 0xC }
  - { offset: 0x985A3, size: 0x8, addend: 0x0, symName: _OUTLINED_FUNCTION_717, symObjAddr: 0xA5C38, symBinAddr: 0x1000A0320, symSize: 0xC }
  - { offset: 0x985BB, size: 0x8, addend: 0x0, symName: _OUTLINED_FUNCTION_718, symObjAddr: 0xA5C44, symBinAddr: 0x1000A032C, symSize: 0xC }
  - { offset: 0x985D3, size: 0x8, addend: 0x0, symName: _OUTLINED_FUNCTION_719, symObjAddr: 0xA5C50, symBinAddr: 0x1000A0338, symSize: 0xC }
  - { offset: 0x985EB, size: 0x8, addend: 0x0, symName: _OUTLINED_FUNCTION_721, symObjAddr: 0xA5C68, symBinAddr: 0x1000A0350, symSize: 0x2C }
  - { offset: 0x98603, size: 0x8, addend: 0x0, symName: _OUTLINED_FUNCTION_723, symObjAddr: 0xA5CC0, symBinAddr: 0x1000A03A8, symSize: 0xC }
  - { offset: 0x9861B, size: 0x8, addend: 0x0, symName: _OUTLINED_FUNCTION_724, symObjAddr: 0xA5CCC, symBinAddr: 0x1000A03B4, symSize: 0xC }
  - { offset: 0x98633, size: 0x8, addend: 0x0, symName: _OUTLINED_FUNCTION_725, symObjAddr: 0xA5CD8, symBinAddr: 0x1000A03C0, symSize: 0xC }
  - { offset: 0x9864B, size: 0x8, addend: 0x0, symName: _OUTLINED_FUNCTION_726, symObjAddr: 0xA5CE4, symBinAddr: 0x1000A03CC, symSize: 0xC }
  - { offset: 0x98663, size: 0x8, addend: 0x0, symName: _OUTLINED_FUNCTION_727, symObjAddr: 0xA5CF0, symBinAddr: 0x1000A03D8, symSize: 0xC }
  - { offset: 0x9867B, size: 0x8, addend: 0x0, symName: _OUTLINED_FUNCTION_728, symObjAddr: 0xA5CFC, symBinAddr: 0x1000A03E4, symSize: 0xC }
  - { offset: 0x98693, size: 0x8, addend: 0x0, symName: _OUTLINED_FUNCTION_730, symObjAddr: 0xA5D14, symBinAddr: 0x1000A03FC, symSize: 0xC }
  - { offset: 0x986AB, size: 0x8, addend: 0x0, symName: _OUTLINED_FUNCTION_731, symObjAddr: 0xA5D20, symBinAddr: 0x1000A0408, symSize: 0xC }
  - { offset: 0x986C3, size: 0x8, addend: 0x0, symName: _OUTLINED_FUNCTION_736, symObjAddr: 0xA5D5C, symBinAddr: 0x1000A0444, symSize: 0x8 }
  - { offset: 0x986DB, size: 0x8, addend: 0x0, symName: _OUTLINED_FUNCTION_741, symObjAddr: 0xA5DBC, symBinAddr: 0x1000A04A4, symSize: 0xC }
  - { offset: 0x986F3, size: 0x8, addend: 0x0, symName: _OUTLINED_FUNCTION_744, symObjAddr: 0xA5DE8, symBinAddr: 0x1000A04D0, symSize: 0xC }
  - { offset: 0x9870B, size: 0x8, addend: 0x0, symName: _OUTLINED_FUNCTION_748, symObjAddr: 0xA5E2C, symBinAddr: 0x1000A0514, symSize: 0x14 }
  - { offset: 0x98723, size: 0x8, addend: 0x0, symName: _OUTLINED_FUNCTION_749, symObjAddr: 0xA5E40, symBinAddr: 0x1000A0528, symSize: 0x1C }
  - { offset: 0x9873B, size: 0x8, addend: 0x0, symName: _OUTLINED_FUNCTION_752, symObjAddr: 0xA5E8C, symBinAddr: 0x1000A0574, symSize: 0x8 }
  - { offset: 0x98753, size: 0x8, addend: 0x0, symName: _OUTLINED_FUNCTION_753, symObjAddr: 0xA5E94, symBinAddr: 0x1000A057C, symSize: 0xC }
  - { offset: 0x9876B, size: 0x8, addend: 0x0, symName: _OUTLINED_FUNCTION_754, symObjAddr: 0xA5EA0, symBinAddr: 0x1000A0588, symSize: 0xC }
  - { offset: 0x98783, size: 0x8, addend: 0x0, symName: _OUTLINED_FUNCTION_757, symObjAddr: 0xA5EC8, symBinAddr: 0x1000A05B0, symSize: 0x10 }
  - { offset: 0x9879B, size: 0x8, addend: 0x0, symName: _OUTLINED_FUNCTION_758, symObjAddr: 0xA5ED8, symBinAddr: 0x1000A05C0, symSize: 0xC }
  - { offset: 0x987B3, size: 0x8, addend: 0x0, symName: _OUTLINED_FUNCTION_759, symObjAddr: 0xA5EE4, symBinAddr: 0x1000A05CC, symSize: 0x8 }
  - { offset: 0x987CB, size: 0x8, addend: 0x0, symName: _OUTLINED_FUNCTION_760, symObjAddr: 0xA5EEC, symBinAddr: 0x1000A05D4, symSize: 0xC }
  - { offset: 0x987E3, size: 0x8, addend: 0x0, symName: _OUTLINED_FUNCTION_761, symObjAddr: 0xA5EF8, symBinAddr: 0x1000A05E0, symSize: 0xC }
  - { offset: 0x987FB, size: 0x8, addend: 0x0, symName: _OUTLINED_FUNCTION_762, symObjAddr: 0xA5F04, symBinAddr: 0x1000A05EC, symSize: 0xC }
  - { offset: 0x98813, size: 0x8, addend: 0x0, symName: _OUTLINED_FUNCTION_764, symObjAddr: 0xA5F1C, symBinAddr: 0x1000A0604, symSize: 0xC }
  - { offset: 0x9882B, size: 0x8, addend: 0x0, symName: _OUTLINED_FUNCTION_767, symObjAddr: 0xA5F4C, symBinAddr: 0x1000A0634, symSize: 0xC }
  - { offset: 0x98843, size: 0x8, addend: 0x0, symName: _OUTLINED_FUNCTION_768, symObjAddr: 0xA5F58, symBinAddr: 0x1000A0640, symSize: 0x10 }
  - { offset: 0x9885B, size: 0x8, addend: 0x0, symName: _OUTLINED_FUNCTION_769, symObjAddr: 0xA5F68, symBinAddr: 0x1000A0650, symSize: 0xC }
  - { offset: 0x98873, size: 0x8, addend: 0x0, symName: _OUTLINED_FUNCTION_771, symObjAddr: 0xA5F84, symBinAddr: 0x1000A066C, symSize: 0xC }
  - { offset: 0x9888B, size: 0x8, addend: 0x0, symName: _OUTLINED_FUNCTION_773, symObjAddr: 0xA5F9C, symBinAddr: 0x1000A0684, symSize: 0x18 }
  - { offset: 0x988A3, size: 0x8, addend: 0x0, symName: _OUTLINED_FUNCTION_776, symObjAddr: 0xA5FCC, symBinAddr: 0x1000A06B4, symSize: 0xC }
  - { offset: 0x988BB, size: 0x8, addend: 0x0, symName: _OUTLINED_FUNCTION_777, symObjAddr: 0xA5FD8, symBinAddr: 0x1000A06C0, symSize: 0x8 }
  - { offset: 0x988D3, size: 0x8, addend: 0x0, symName: _OUTLINED_FUNCTION_781, symObjAddr: 0xA6024, symBinAddr: 0x1000A070C, symSize: 0x8 }
  - { offset: 0x988EB, size: 0x8, addend: 0x0, symName: _OUTLINED_FUNCTION_789, symObjAddr: 0xA6094, symBinAddr: 0x1000A077C, symSize: 0x14 }
  - { offset: 0x98903, size: 0x8, addend: 0x0, symName: _OUTLINED_FUNCTION_790, symObjAddr: 0xA60A8, symBinAddr: 0x1000A0790, symSize: 0x14 }
  - { offset: 0x9891B, size: 0x8, addend: 0x0, symName: _OUTLINED_FUNCTION_791, symObjAddr: 0xA60BC, symBinAddr: 0x1000A07A4, symSize: 0x10 }
  - { offset: 0x98933, size: 0x8, addend: 0x0, symName: _OUTLINED_FUNCTION_792, symObjAddr: 0xA60CC, symBinAddr: 0x1000A07B4, symSize: 0x14 }
  - { offset: 0x9894B, size: 0x8, addend: 0x0, symName: _OUTLINED_FUNCTION_794, symObjAddr: 0xA60F8, symBinAddr: 0x1000A07E0, symSize: 0xC }
  - { offset: 0x98963, size: 0x8, addend: 0x0, symName: _OUTLINED_FUNCTION_798, symObjAddr: 0xA6128, symBinAddr: 0x1000A0810, symSize: 0xC }
  - { offset: 0x9897B, size: 0x8, addend: 0x0, symName: _OUTLINED_FUNCTION_806, symObjAddr: 0xA619C, symBinAddr: 0x1000A0884, symSize: 0x8 }
  - { offset: 0x98993, size: 0x8, addend: 0x0, symName: _OUTLINED_FUNCTION_807, symObjAddr: 0xA61A4, symBinAddr: 0x1000A088C, symSize: 0x8 }
  - { offset: 0x989AB, size: 0x8, addend: 0x0, symName: _OUTLINED_FUNCTION_811, symObjAddr: 0xA61F8, symBinAddr: 0x1000A08E0, symSize: 0xC }
  - { offset: 0x989C3, size: 0x8, addend: 0x0, symName: _OUTLINED_FUNCTION_814, symObjAddr: 0xA6218, symBinAddr: 0x1000A0900, symSize: 0x10 }
  - { offset: 0x989DB, size: 0x8, addend: 0x0, symName: _OUTLINED_FUNCTION_815, symObjAddr: 0xA6228, symBinAddr: 0x1000A0910, symSize: 0x14 }
  - { offset: 0x989F3, size: 0x8, addend: 0x0, symName: _OUTLINED_FUNCTION_824, symObjAddr: 0xA62BC, symBinAddr: 0x1000A09A4, symSize: 0xC }
  - { offset: 0x98A0B, size: 0x8, addend: 0x0, symName: _OUTLINED_FUNCTION_833, symObjAddr: 0xA632C, symBinAddr: 0x1000A0A14, symSize: 0xC }
  - { offset: 0x98A23, size: 0x8, addend: 0x0, symName: _OUTLINED_FUNCTION_834, symObjAddr: 0xA6338, symBinAddr: 0x1000A0A20, symSize: 0x18 }
  - { offset: 0x98A3B, size: 0x8, addend: 0x0, symName: _OUTLINED_FUNCTION_836, symObjAddr: 0xA6378, symBinAddr: 0x1000A0A60, symSize: 0x14 }
  - { offset: 0x98A53, size: 0x8, addend: 0x0, symName: _OUTLINED_FUNCTION_838, symObjAddr: 0xA6398, symBinAddr: 0x1000A0A80, symSize: 0xC }
  - { offset: 0x98A6B, size: 0x8, addend: 0x0, symName: _OUTLINED_FUNCTION_843, symObjAddr: 0xA63DC, symBinAddr: 0x1000A0AC4, symSize: 0xC }
  - { offset: 0x98A83, size: 0x8, addend: 0x0, symName: _OUTLINED_FUNCTION_844, symObjAddr: 0xA63E8, symBinAddr: 0x1000A0AD0, symSize: 0xC }
  - { offset: 0x98A9B, size: 0x8, addend: 0x0, symName: _OUTLINED_FUNCTION_846, symObjAddr: 0xA6400, symBinAddr: 0x1000A0AE8, symSize: 0x10 }
  - { offset: 0x98AB3, size: 0x8, addend: 0x0, symName: _OUTLINED_FUNCTION_854, symObjAddr: 0xA6488, symBinAddr: 0x1000A0B70, symSize: 0x8 }
  - { offset: 0x98ACB, size: 0x8, addend: 0x0, symName: _OUTLINED_FUNCTION_857, symObjAddr: 0xA64A8, symBinAddr: 0x1000A0B90, symSize: 0x14 }
  - { offset: 0x98AE3, size: 0x8, addend: 0x0, symName: _OUTLINED_FUNCTION_860, symObjAddr: 0xA64E0, symBinAddr: 0x1000A0BC8, symSize: 0xC }
  - { offset: 0x98AFB, size: 0x8, addend: 0x0, symName: _OUTLINED_FUNCTION_861, symObjAddr: 0xA64EC, symBinAddr: 0x1000A0BD4, symSize: 0xC }
  - { offset: 0x98B13, size: 0x8, addend: 0x0, symName: _OUTLINED_FUNCTION_863, symObjAddr: 0xA6514, symBinAddr: 0x1000A0BFC, symSize: 0xC }
  - { offset: 0x98B2B, size: 0x8, addend: 0x0, symName: _OUTLINED_FUNCTION_869, symObjAddr: 0xA6584, symBinAddr: 0x1000A0C6C, symSize: 0x10 }
  - { offset: 0x98B43, size: 0x8, addend: 0x0, symName: _OUTLINED_FUNCTION_870, symObjAddr: 0xA6594, symBinAddr: 0x1000A0C7C, symSize: 0x10 }
  - { offset: 0x98B5B, size: 0x8, addend: 0x0, symName: _OUTLINED_FUNCTION_872, symObjAddr: 0xA65B0, symBinAddr: 0x1000A0C98, symSize: 0xC }
  - { offset: 0x98B73, size: 0x8, addend: 0x0, symName: _OUTLINED_FUNCTION_875, symObjAddr: 0xA65F4, symBinAddr: 0x1000A0CDC, symSize: 0xC }
  - { offset: 0x98B8B, size: 0x8, addend: 0x0, symName: _OUTLINED_FUNCTION_879, symObjAddr: 0xA6620, symBinAddr: 0x1000A0D08, symSize: 0x8 }
  - { offset: 0x98BA3, size: 0x8, addend: 0x0, symName: _OUTLINED_FUNCTION_882, symObjAddr: 0xA663C, symBinAddr: 0x1000A0D24, symSize: 0x10 }
  - { offset: 0x98BBB, size: 0x8, addend: 0x0, symName: _OUTLINED_FUNCTION_885, symObjAddr: 0xA666C, symBinAddr: 0x1000A0D54, symSize: 0x10 }
  - { offset: 0x98BD3, size: 0x8, addend: 0x0, symName: _OUTLINED_FUNCTION_889, symObjAddr: 0xA66A0, symBinAddr: 0x1000A0D88, symSize: 0x10 }
  - { offset: 0x98BEB, size: 0x8, addend: 0x0, symName: _OUTLINED_FUNCTION_890, symObjAddr: 0xA66B0, symBinAddr: 0x1000A0D98, symSize: 0x8 }
  - { offset: 0x98C03, size: 0x8, addend: 0x0, symName: _OUTLINED_FUNCTION_891, symObjAddr: 0xA66B8, symBinAddr: 0x1000A0DA0, symSize: 0xC }
  - { offset: 0x98C1B, size: 0x8, addend: 0x0, symName: _OUTLINED_FUNCTION_894, symObjAddr: 0xA66DC, symBinAddr: 0x1000A0DC4, symSize: 0x8 }
  - { offset: 0x98C33, size: 0x8, addend: 0x0, symName: _OUTLINED_FUNCTION_903, symObjAddr: 0xA6748, symBinAddr: 0x1000A0E30, symSize: 0x8 }
  - { offset: 0x98C4B, size: 0x8, addend: 0x0, symName: _OUTLINED_FUNCTION_904, symObjAddr: 0xA6750, symBinAddr: 0x1000A0E38, symSize: 0x8 }
  - { offset: 0x98C63, size: 0x8, addend: 0x0, symName: _OUTLINED_FUNCTION_906, symObjAddr: 0xA6760, symBinAddr: 0x1000A0E48, symSize: 0x8 }
  - { offset: 0x98C7B, size: 0x8, addend: 0x0, symName: _OUTLINED_FUNCTION_909, symObjAddr: 0xA6784, symBinAddr: 0x1000A0E6C, symSize: 0x10 }
  - { offset: 0x98C93, size: 0x8, addend: 0x0, symName: _OUTLINED_FUNCTION_910, symObjAddr: 0xA6794, symBinAddr: 0x1000A0E7C, symSize: 0x8 }
  - { offset: 0x98CAB, size: 0x8, addend: 0x0, symName: _OUTLINED_FUNCTION_911, symObjAddr: 0xA679C, symBinAddr: 0x1000A0E84, symSize: 0xC }
  - { offset: 0x98CC3, size: 0x8, addend: 0x0, symName: _OUTLINED_FUNCTION_914, symObjAddr: 0xA67C8, symBinAddr: 0x1000A0EB0, symSize: 0x10 }
  - { offset: 0x98CDB, size: 0x8, addend: 0x0, symName: _OUTLINED_FUNCTION_918, symObjAddr: 0xA6810, symBinAddr: 0x1000A0EF8, symSize: 0xC }
  - { offset: 0x98CF3, size: 0x8, addend: 0x0, symName: _OUTLINED_FUNCTION_920, symObjAddr: 0xA6828, symBinAddr: 0x1000A0F10, symSize: 0x8 }
  - { offset: 0x98D0B, size: 0x8, addend: 0x0, symName: _OUTLINED_FUNCTION_923, symObjAddr: 0xA6870, symBinAddr: 0x1000A0F58, symSize: 0xC }
  - { offset: 0x98D23, size: 0x8, addend: 0x0, symName: _OUTLINED_FUNCTION_924, symObjAddr: 0xA687C, symBinAddr: 0x1000A0F64, symSize: 0xC }
  - { offset: 0x98D3B, size: 0x8, addend: 0x0, symName: _OUTLINED_FUNCTION_929, symObjAddr: 0xA68D0, symBinAddr: 0x1000A0FB8, symSize: 0xC }
  - { offset: 0x98D53, size: 0x8, addend: 0x0, symName: _OUTLINED_FUNCTION_930, symObjAddr: 0xA68DC, symBinAddr: 0x1000A0FC4, symSize: 0xC }
  - { offset: 0x98D6B, size: 0x8, addend: 0x0, symName: _OUTLINED_FUNCTION_931, symObjAddr: 0xA68E8, symBinAddr: 0x1000A0FD0, symSize: 0xC }
  - { offset: 0x98D83, size: 0x8, addend: 0x0, symName: _OUTLINED_FUNCTION_933, symObjAddr: 0xA6900, symBinAddr: 0x1000A0FE8, symSize: 0x24 }
  - { offset: 0x98D9B, size: 0x8, addend: 0x0, symName: _OUTLINED_FUNCTION_938, symObjAddr: 0xA6954, symBinAddr: 0x1000A103C, symSize: 0xC }
  - { offset: 0x98DB3, size: 0x8, addend: 0x0, symName: _OUTLINED_FUNCTION_942, symObjAddr: 0xA69B4, symBinAddr: 0x1000A109C, symSize: 0xC }
  - { offset: 0x98DCB, size: 0x8, addend: 0x0, symName: _OUTLINED_FUNCTION_943, symObjAddr: 0xA69C0, symBinAddr: 0x1000A10A8, symSize: 0xC }
  - { offset: 0x98DE3, size: 0x8, addend: 0x0, symName: _OUTLINED_FUNCTION_947, symObjAddr: 0xA69F0, symBinAddr: 0x1000A10D8, symSize: 0xC }
  - { offset: 0x98DFB, size: 0x8, addend: 0x0, symName: _OUTLINED_FUNCTION_948, symObjAddr: 0xA69FC, symBinAddr: 0x1000A10E4, symSize: 0xC }
  - { offset: 0x98E13, size: 0x8, addend: 0x0, symName: _OUTLINED_FUNCTION_959, symObjAddr: 0xA6AD8, symBinAddr: 0x1000A11C0, symSize: 0x8 }
  - { offset: 0x98E2B, size: 0x8, addend: 0x0, symName: _OUTLINED_FUNCTION_966, symObjAddr: 0xA6B40, symBinAddr: 0x1000A1228, symSize: 0x8 }
  - { offset: 0x98E43, size: 0x8, addend: 0x0, symName: _OUTLINED_FUNCTION_983, symObjAddr: 0xA6C40, symBinAddr: 0x1000A1328, symSize: 0x8 }
  - { offset: 0x98E5B, size: 0x8, addend: 0x0, symName: _OUTLINED_FUNCTION_985, symObjAddr: 0xA6C5C, symBinAddr: 0x1000A1344, symSize: 0x8 }
  - { offset: 0x98E73, size: 0x8, addend: 0x0, symName: _OUTLINED_FUNCTION_990, symObjAddr: 0xA6CA8, symBinAddr: 0x1000A1390, symSize: 0x8 }
  - { offset: 0x98E8B, size: 0x8, addend: 0x0, symName: _OUTLINED_FUNCTION_994, symObjAddr: 0xA6CE0, symBinAddr: 0x1000A13C8, symSize: 0x8 }
  - { offset: 0x98EA3, size: 0x8, addend: 0x0, symName: _OUTLINED_FUNCTION_997, symObjAddr: 0xA6D10, symBinAddr: 0x1000A13F8, symSize: 0x8 }
  - { offset: 0x98EBB, size: 0x8, addend: 0x0, symName: _OUTLINED_FUNCTION_999, symObjAddr: 0xA6D2C, symBinAddr: 0x1000A1414, symSize: 0x8 }
  - { offset: 0x98ED3, size: 0x8, addend: 0x0, symName: _OUTLINED_FUNCTION_1000, symObjAddr: 0xA6D34, symBinAddr: 0x1000A141C, symSize: 0x8 }
  - { offset: 0x98EEB, size: 0x8, addend: 0x0, symName: _OUTLINED_FUNCTION_1002, symObjAddr: 0xA6D44, symBinAddr: 0x1000A142C, symSize: 0x8 }
  - { offset: 0x98F03, size: 0x8, addend: 0x0, symName: _OUTLINED_FUNCTION_1003, symObjAddr: 0xA6D4C, symBinAddr: 0x1000A1434, symSize: 0x14 }
  - { offset: 0x98F1B, size: 0x8, addend: 0x0, symName: _OUTLINED_FUNCTION_1005, symObjAddr: 0xA6D74, symBinAddr: 0x1000A145C, symSize: 0x8 }
  - { offset: 0x98F33, size: 0x8, addend: 0x0, symName: _OUTLINED_FUNCTION_1006, symObjAddr: 0xA6D7C, symBinAddr: 0x1000A1464, symSize: 0x8 }
  - { offset: 0x98F4B, size: 0x8, addend: 0x0, symName: _OUTLINED_FUNCTION_1010, symObjAddr: 0xA6DB8, symBinAddr: 0x1000A14A0, symSize: 0x14 }
  - { offset: 0x98F63, size: 0x8, addend: 0x0, symName: _OUTLINED_FUNCTION_1012, symObjAddr: 0xA6DD4, symBinAddr: 0x1000A14BC, symSize: 0x8 }
  - { offset: 0x98F7B, size: 0x8, addend: 0x0, symName: _OUTLINED_FUNCTION_1015, symObjAddr: 0xA6DF8, symBinAddr: 0x1000A14E0, symSize: 0x8 }
  - { offset: 0x98F93, size: 0x8, addend: 0x0, symName: _OUTLINED_FUNCTION_1021, symObjAddr: 0xA6E40, symBinAddr: 0x1000A1528, symSize: 0x8 }
  - { offset: 0x98FAB, size: 0x8, addend: 0x0, symName: _OUTLINED_FUNCTION_1022, symObjAddr: 0xA6E48, symBinAddr: 0x1000A1530, symSize: 0x8 }
  - { offset: 0x98FC3, size: 0x8, addend: 0x0, symName: _OUTLINED_FUNCTION_1023, symObjAddr: 0xA6E50, symBinAddr: 0x1000A1538, symSize: 0x8 }
  - { offset: 0x98FDB, size: 0x8, addend: 0x0, symName: _OUTLINED_FUNCTION_1028, symObjAddr: 0xA6E90, symBinAddr: 0x1000A1578, symSize: 0x8 }
  - { offset: 0x98FF3, size: 0x8, addend: 0x0, symName: _OUTLINED_FUNCTION_1029, symObjAddr: 0xA6E98, symBinAddr: 0x1000A1580, symSize: 0x3C }
  - { offset: 0x9900B, size: 0x8, addend: 0x0, symName: _OUTLINED_FUNCTION_1030, symObjAddr: 0xA6ED4, symBinAddr: 0x1000A15BC, symSize: 0xC }
  - { offset: 0x99023, size: 0x8, addend: 0x0, symName: _OUTLINED_FUNCTION_1035, symObjAddr: 0xA6F38, symBinAddr: 0x1000A1620, symSize: 0x20 }
  - { offset: 0x9903B, size: 0x8, addend: 0x0, symName: _OUTLINED_FUNCTION_1038, symObjAddr: 0xA6F70, symBinAddr: 0x1000A1658, symSize: 0xC }
  - { offset: 0x99053, size: 0x8, addend: 0x0, symName: _OUTLINED_FUNCTION_1039, symObjAddr: 0xA6F7C, symBinAddr: 0x1000A1664, symSize: 0xC }
  - { offset: 0x9906B, size: 0x8, addend: 0x0, symName: _OUTLINED_FUNCTION_1040, symObjAddr: 0xA6F88, symBinAddr: 0x1000A1670, symSize: 0xC }
  - { offset: 0x99083, size: 0x8, addend: 0x0, symName: _OUTLINED_FUNCTION_1041, symObjAddr: 0xA6F94, symBinAddr: 0x1000A167C, symSize: 0xC }
  - { offset: 0x9909B, size: 0x8, addend: 0x0, symName: _OUTLINED_FUNCTION_1043, symObjAddr: 0xA6FC0, symBinAddr: 0x1000A16A8, symSize: 0xC }
  - { offset: 0x990B3, size: 0x8, addend: 0x0, symName: _OUTLINED_FUNCTION_1044, symObjAddr: 0xA6FCC, symBinAddr: 0x1000A16B4, symSize: 0xC }
  - { offset: 0x990CB, size: 0x8, addend: 0x0, symName: _OUTLINED_FUNCTION_1046, symObjAddr: 0xA6FE4, symBinAddr: 0x1000A16CC, symSize: 0xC }
  - { offset: 0x990E3, size: 0x8, addend: 0x0, symName: _OUTLINED_FUNCTION_1049, symObjAddr: 0xA7008, symBinAddr: 0x1000A16F0, symSize: 0xC }
  - { offset: 0x990FB, size: 0x8, addend: 0x0, symName: _OUTLINED_FUNCTION_1051, symObjAddr: 0xA7034, symBinAddr: 0x1000A171C, symSize: 0xC }
  - { offset: 0x99113, size: 0x8, addend: 0x0, symName: _OUTLINED_FUNCTION_1056, symObjAddr: 0xA7098, symBinAddr: 0x1000A1780, symSize: 0xC }
  - { offset: 0x9912B, size: 0x8, addend: 0x0, symName: _OUTLINED_FUNCTION_1057, symObjAddr: 0xA70A4, symBinAddr: 0x1000A178C, symSize: 0xC }
  - { offset: 0x99143, size: 0x8, addend: 0x0, symName: _OUTLINED_FUNCTION_1058, symObjAddr: 0xA70B0, symBinAddr: 0x1000A1798, symSize: 0xC }
  - { offset: 0x9915B, size: 0x8, addend: 0x0, symName: _OUTLINED_FUNCTION_1059, symObjAddr: 0xA70BC, symBinAddr: 0x1000A17A4, symSize: 0xC }
  - { offset: 0x99173, size: 0x8, addend: 0x0, symName: _OUTLINED_FUNCTION_1060, symObjAddr: 0xA70C8, symBinAddr: 0x1000A17B0, symSize: 0xC }
  - { offset: 0x9918B, size: 0x8, addend: 0x0, symName: _OUTLINED_FUNCTION_1064, symObjAddr: 0xA710C, symBinAddr: 0x1000A17F4, symSize: 0xC }
  - { offset: 0x991A3, size: 0x8, addend: 0x0, symName: _OUTLINED_FUNCTION_1065, symObjAddr: 0xA7118, symBinAddr: 0x1000A1800, symSize: 0xC }
  - { offset: 0x991BB, size: 0x8, addend: 0x0, symName: _OUTLINED_FUNCTION_1066, symObjAddr: 0xA7124, symBinAddr: 0x1000A180C, symSize: 0xC }
  - { offset: 0x991D3, size: 0x8, addend: 0x0, symName: _OUTLINED_FUNCTION_1070, symObjAddr: 0xA717C, symBinAddr: 0x1000A1864, symSize: 0x2C }
  - { offset: 0x991EB, size: 0x8, addend: 0x0, symName: _OUTLINED_FUNCTION_1071, symObjAddr: 0xA71A8, symBinAddr: 0x1000A1890, symSize: 0x20 }
  - { offset: 0x99203, size: 0x8, addend: 0x0, symName: _OUTLINED_FUNCTION_1075, symObjAddr: 0xA721C, symBinAddr: 0x1000A1904, symSize: 0x18 }
  - { offset: 0x9921B, size: 0x8, addend: 0x0, symName: _OUTLINED_FUNCTION_1078, symObjAddr: 0xA724C, symBinAddr: 0x1000A1934, symSize: 0x8 }
  - { offset: 0x99233, size: 0x8, addend: 0x0, symName: _OUTLINED_FUNCTION_1085, symObjAddr: 0xA72AC, symBinAddr: 0x1000A1994, symSize: 0x8 }
  - { offset: 0x9924B, size: 0x8, addend: 0x0, symName: _OUTLINED_FUNCTION_1095, symObjAddr: 0xA732C, symBinAddr: 0x1000A1A14, symSize: 0x8 }
  - { offset: 0x99263, size: 0x8, addend: 0x0, symName: _OUTLINED_FUNCTION_1099, symObjAddr: 0xA7378, symBinAddr: 0x1000A1A60, symSize: 0x8 }
  - { offset: 0x9927B, size: 0x8, addend: 0x0, symName: _OUTLINED_FUNCTION_1103, symObjAddr: 0xA739C, symBinAddr: 0x1000A1A84, symSize: 0x8 }
  - { offset: 0x99293, size: 0x8, addend: 0x0, symName: _OUTLINED_FUNCTION_1104, symObjAddr: 0xA73A4, symBinAddr: 0x1000A1A8C, symSize: 0xC }
  - { offset: 0x992AB, size: 0x8, addend: 0x0, symName: _OUTLINED_FUNCTION_1105, symObjAddr: 0xA73B0, symBinAddr: 0x1000A1A98, symSize: 0x8 }
  - { offset: 0x992C3, size: 0x8, addend: 0x0, symName: _OUTLINED_FUNCTION_1109, symObjAddr: 0xA7400, symBinAddr: 0x1000A1AE8, symSize: 0x10 }
  - { offset: 0x992DB, size: 0x8, addend: 0x0, symName: _OUTLINED_FUNCTION_1110, symObjAddr: 0xA7410, symBinAddr: 0x1000A1AF8, symSize: 0xC }
  - { offset: 0x992F3, size: 0x8, addend: 0x0, symName: _OUTLINED_FUNCTION_1111, symObjAddr: 0xA741C, symBinAddr: 0x1000A1B04, symSize: 0x10 }
  - { offset: 0x9930B, size: 0x8, addend: 0x0, symName: _OUTLINED_FUNCTION_1112, symObjAddr: 0xA742C, symBinAddr: 0x1000A1B14, symSize: 0xC }
  - { offset: 0x99323, size: 0x8, addend: 0x0, symName: _OUTLINED_FUNCTION_1114, symObjAddr: 0xA7440, symBinAddr: 0x1000A1B28, symSize: 0xC }
  - { offset: 0x9933B, size: 0x8, addend: 0x0, symName: _OUTLINED_FUNCTION_1115, symObjAddr: 0xA744C, symBinAddr: 0x1000A1B34, symSize: 0x10 }
  - { offset: 0x99353, size: 0x8, addend: 0x0, symName: _OUTLINED_FUNCTION_1116, symObjAddr: 0xA745C, symBinAddr: 0x1000A1B44, symSize: 0x10 }
  - { offset: 0x9936B, size: 0x8, addend: 0x0, symName: _OUTLINED_FUNCTION_1117, symObjAddr: 0xA746C, symBinAddr: 0x1000A1B54, symSize: 0xC }
  - { offset: 0x99383, size: 0x8, addend: 0x0, symName: _OUTLINED_FUNCTION_1118, symObjAddr: 0xA7478, symBinAddr: 0x1000A1B60, symSize: 0xC }
  - { offset: 0x9939B, size: 0x8, addend: 0x0, symName: _OUTLINED_FUNCTION_1119, symObjAddr: 0xA7484, symBinAddr: 0x1000A1B6C, symSize: 0xC }
  - { offset: 0x993B3, size: 0x8, addend: 0x0, symName: _OUTLINED_FUNCTION_1121, symObjAddr: 0xA749C, symBinAddr: 0x1000A1B84, symSize: 0xC }
  - { offset: 0x993CB, size: 0x8, addend: 0x0, symName: _OUTLINED_FUNCTION_1122, symObjAddr: 0xA74A8, symBinAddr: 0x1000A1B90, symSize: 0xC }
  - { offset: 0x993E3, size: 0x8, addend: 0x0, symName: _OUTLINED_FUNCTION_1123, symObjAddr: 0xA74B4, symBinAddr: 0x1000A1B9C, symSize: 0xC }
  - { offset: 0x993FB, size: 0x8, addend: 0x0, symName: _OUTLINED_FUNCTION_1124, symObjAddr: 0xA74C0, symBinAddr: 0x1000A1BA8, symSize: 0xC }
  - { offset: 0x99413, size: 0x8, addend: 0x0, symName: _OUTLINED_FUNCTION_1125, symObjAddr: 0xA74CC, symBinAddr: 0x1000A1BB4, symSize: 0xC }
  - { offset: 0x9942B, size: 0x8, addend: 0x0, symName: _OUTLINED_FUNCTION_1131, symObjAddr: 0xA7548, symBinAddr: 0x1000A1C30, symSize: 0x8 }
  - { offset: 0x99443, size: 0x8, addend: 0x0, symName: _OUTLINED_FUNCTION_1133, symObjAddr: 0xA7560, symBinAddr: 0x1000A1C48, symSize: 0xC }
  - { offset: 0x9945B, size: 0x8, addend: 0x0, symName: _OUTLINED_FUNCTION_1134, symObjAddr: 0xA756C, symBinAddr: 0x1000A1C54, symSize: 0xC }
  - { offset: 0x99473, size: 0x8, addend: 0x0, symName: _OUTLINED_FUNCTION_1138, symObjAddr: 0xA75A8, symBinAddr: 0x1000A1C90, symSize: 0x8 }
  - { offset: 0x9948B, size: 0x8, addend: 0x0, symName: _OUTLINED_FUNCTION_1139, symObjAddr: 0xA75B0, symBinAddr: 0x1000A1C98, symSize: 0x8 }
  - { offset: 0x994A3, size: 0x8, addend: 0x0, symName: _OUTLINED_FUNCTION_1140, symObjAddr: 0xA75B8, symBinAddr: 0x1000A1CA0, symSize: 0x8 }
  - { offset: 0x994BB, size: 0x8, addend: 0x0, symName: _OUTLINED_FUNCTION_1141, symObjAddr: 0xA75C0, symBinAddr: 0x1000A1CA8, symSize: 0xC }
  - { offset: 0x994D3, size: 0x8, addend: 0x0, symName: _OUTLINED_FUNCTION_1148, symObjAddr: 0xA764C, symBinAddr: 0x1000A1D34, symSize: 0x10 }
  - { offset: 0x994EB, size: 0x8, addend: 0x0, symName: _OUTLINED_FUNCTION_1149, symObjAddr: 0xA765C, symBinAddr: 0x1000A1D44, symSize: 0x8 }
  - { offset: 0x99503, size: 0x8, addend: 0x0, symName: _OUTLINED_FUNCTION_1150, symObjAddr: 0xA7664, symBinAddr: 0x1000A1D4C, symSize: 0x10 }
  - { offset: 0x9951B, size: 0x8, addend: 0x0, symName: _OUTLINED_FUNCTION_1153, symObjAddr: 0xA7684, symBinAddr: 0x1000A1D6C, symSize: 0x8 }
  - { offset: 0x99533, size: 0x8, addend: 0x0, symName: _OUTLINED_FUNCTION_1156, symObjAddr: 0xA76A0, symBinAddr: 0x1000A1D88, symSize: 0xC }
  - { offset: 0x9954B, size: 0x8, addend: 0x0, symName: _OUTLINED_FUNCTION_1157, symObjAddr: 0xA76AC, symBinAddr: 0x1000A1D94, symSize: 0x10 }
  - { offset: 0x99563, size: 0x8, addend: 0x0, symName: _OUTLINED_FUNCTION_1160, symObjAddr: 0xA76DC, symBinAddr: 0x1000A1DC4, symSize: 0xC }
  - { offset: 0x9957B, size: 0x8, addend: 0x0, symName: _OUTLINED_FUNCTION_1161, symObjAddr: 0xA76E8, symBinAddr: 0x1000A1DD0, symSize: 0xC }
  - { offset: 0x99593, size: 0x8, addend: 0x0, symName: _OUTLINED_FUNCTION_1162, symObjAddr: 0xA76F4, symBinAddr: 0x1000A1DDC, symSize: 0x10 }
  - { offset: 0x995AB, size: 0x8, addend: 0x0, symName: _OUTLINED_FUNCTION_1165, symObjAddr: 0xA7714, symBinAddr: 0x1000A1DFC, symSize: 0xC }
  - { offset: 0x995C3, size: 0x8, addend: 0x0, symName: _OUTLINED_FUNCTION_1167, symObjAddr: 0xA772C, symBinAddr: 0x1000A1E14, symSize: 0x8 }
  - { offset: 0x995DB, size: 0x8, addend: 0x0, symName: _OUTLINED_FUNCTION_1169, symObjAddr: 0xA773C, symBinAddr: 0x1000A1E24, symSize: 0xC }
  - { offset: 0x995F3, size: 0x8, addend: 0x0, symName: _OUTLINED_FUNCTION_1176, symObjAddr: 0xA779C, symBinAddr: 0x1000A1E84, symSize: 0xC }
  - { offset: 0x9960B, size: 0x8, addend: 0x0, symName: _OUTLINED_FUNCTION_1179, symObjAddr: 0xA77C0, symBinAddr: 0x1000A1EA8, symSize: 0x10 }
  - { offset: 0x99623, size: 0x8, addend: 0x0, symName: _OUTLINED_FUNCTION_1182, symObjAddr: 0xA77F0, symBinAddr: 0x1000A1ED8, symSize: 0xC }
  - { offset: 0x9963B, size: 0x8, addend: 0x0, symName: _OUTLINED_FUNCTION_1184, symObjAddr: 0xA7804, symBinAddr: 0x1000A1EEC, symSize: 0xC }
  - { offset: 0x99653, size: 0x8, addend: 0x0, symName: _OUTLINED_FUNCTION_1198, symObjAddr: 0xA78D0, symBinAddr: 0x1000A1FB8, symSize: 0x10 }
  - { offset: 0x9966B, size: 0x8, addend: 0x0, symName: _OUTLINED_FUNCTION_1202, symObjAddr: 0xA7904, symBinAddr: 0x1000A1FEC, symSize: 0x8 }
  - { offset: 0x99683, size: 0x8, addend: 0x0, symName: _OUTLINED_FUNCTION_1205, symObjAddr: 0xA7924, symBinAddr: 0x1000A200C, symSize: 0x1C }
  - { offset: 0x9969B, size: 0x8, addend: 0x0, symName: _OUTLINED_FUNCTION_1206, symObjAddr: 0xA7940, symBinAddr: 0x1000A2028, symSize: 0x8 }
  - { offset: 0x996B3, size: 0x8, addend: 0x0, symName: _OUTLINED_FUNCTION_1207, symObjAddr: 0xA7948, symBinAddr: 0x1000A2030, symSize: 0x8 }
  - { offset: 0x996CB, size: 0x8, addend: 0x0, symName: _OUTLINED_FUNCTION_1210, symObjAddr: 0xA7960, symBinAddr: 0x1000A2048, symSize: 0x10 }
  - { offset: 0x996E3, size: 0x8, addend: 0x0, symName: _OUTLINED_FUNCTION_1215, symObjAddr: 0xA79A0, symBinAddr: 0x1000A2088, symSize: 0x8 }
  - { offset: 0x996FB, size: 0x8, addend: 0x0, symName: _OUTLINED_FUNCTION_1220, symObjAddr: 0xA79D4, symBinAddr: 0x1000A20BC, symSize: 0x8 }
  - { offset: 0x99713, size: 0x8, addend: 0x0, symName: _OUTLINED_FUNCTION_1225, symObjAddr: 0xA79FC, symBinAddr: 0x1000A20E4, symSize: 0x8 }
  - { offset: 0x9972B, size: 0x8, addend: 0x0, symName: _OUTLINED_FUNCTION_1227, symObjAddr: 0xA7A0C, symBinAddr: 0x1000A20F4, symSize: 0x1C }
  - { offset: 0x99743, size: 0x8, addend: 0x0, symName: _OUTLINED_FUNCTION_1231, symObjAddr: 0xA7A48, symBinAddr: 0x1000A2130, symSize: 0xC }
  - { offset: 0x9975B, size: 0x8, addend: 0x0, symName: _OUTLINED_FUNCTION_1232, symObjAddr: 0xA7A54, symBinAddr: 0x1000A213C, symSize: 0xC }
  - { offset: 0x99773, size: 0x8, addend: 0x0, symName: _OUTLINED_FUNCTION_1233, symObjAddr: 0xA7A60, symBinAddr: 0x1000A2148, symSize: 0x8 }
  - { offset: 0x9978B, size: 0x8, addend: 0x0, symName: _OUTLINED_FUNCTION_1237, symObjAddr: 0xA7A9C, symBinAddr: 0x1000A2184, symSize: 0x8 }
  - { offset: 0x997A3, size: 0x8, addend: 0x0, symName: _OUTLINED_FUNCTION_1238, symObjAddr: 0xA7AA4, symBinAddr: 0x1000A218C, symSize: 0xC }
  - { offset: 0x997BB, size: 0x8, addend: 0x0, symName: _OUTLINED_FUNCTION_1239, symObjAddr: 0xA7AB0, symBinAddr: 0x1000A2198, symSize: 0xC }
  - { offset: 0x997D3, size: 0x8, addend: 0x0, symName: _OUTLINED_FUNCTION_1240, symObjAddr: 0xA7ABC, symBinAddr: 0x1000A21A4, symSize: 0xC }
  - { offset: 0x997EB, size: 0x8, addend: 0x0, symName: _OUTLINED_FUNCTION_1241, symObjAddr: 0xA7AC8, symBinAddr: 0x1000A21B0, symSize: 0x1C }
  - { offset: 0x99803, size: 0x8, addend: 0x0, symName: _OUTLINED_FUNCTION_1245, symObjAddr: 0xA7B28, symBinAddr: 0x1000A2210, symSize: 0x10 }
  - { offset: 0x9981B, size: 0x8, addend: 0x0, symName: _OUTLINED_FUNCTION_1248, symObjAddr: 0xA7B48, symBinAddr: 0x1000A2230, symSize: 0x10 }
  - { offset: 0x99833, size: 0x8, addend: 0x0, symName: _OUTLINED_FUNCTION_1249, symObjAddr: 0xA7B58, symBinAddr: 0x1000A2240, symSize: 0x8 }
  - { offset: 0x9984B, size: 0x8, addend: 0x0, symName: _OUTLINED_FUNCTION_1250, symObjAddr: 0xA7B60, symBinAddr: 0x1000A2248, symSize: 0x8 }
  - { offset: 0x99863, size: 0x8, addend: 0x0, symName: _OUTLINED_FUNCTION_1251, symObjAddr: 0xA7B68, symBinAddr: 0x1000A2250, symSize: 0xC }
  - { offset: 0x9987B, size: 0x8, addend: 0x0, symName: _OUTLINED_FUNCTION_1257, symObjAddr: 0xA7BC0, symBinAddr: 0x1000A22A8, symSize: 0x8 }
  - { offset: 0x99893, size: 0x8, addend: 0x0, symName: _OUTLINED_FUNCTION_1258, symObjAddr: 0xA7BC8, symBinAddr: 0x1000A22B0, symSize: 0x8 }
  - { offset: 0x998AB, size: 0x8, addend: 0x0, symName: _OUTLINED_FUNCTION_1260, symObjAddr: 0xA7BE0, symBinAddr: 0x1000A22C8, symSize: 0x10 }
  - { offset: 0x998C3, size: 0x8, addend: 0x0, symName: _OUTLINED_FUNCTION_1264, symObjAddr: 0xA7C08, symBinAddr: 0x1000A22F0, symSize: 0x8 }
  - { offset: 0x998DB, size: 0x8, addend: 0x0, symName: _OUTLINED_FUNCTION_1265, symObjAddr: 0xA7C10, symBinAddr: 0x1000A22F8, symSize: 0x8 }
  - { offset: 0x998F3, size: 0x8, addend: 0x0, symName: _OUTLINED_FUNCTION_1269, symObjAddr: 0xA7C30, symBinAddr: 0x1000A2318, symSize: 0x10 }
  - { offset: 0x9990B, size: 0x8, addend: 0x0, symName: _OUTLINED_FUNCTION_1271, symObjAddr: 0xA7C48, symBinAddr: 0x1000A2330, symSize: 0x8 }
  - { offset: 0x99923, size: 0x8, addend: 0x0, symName: _OUTLINED_FUNCTION_1272, symObjAddr: 0xA7C50, symBinAddr: 0x1000A2338, symSize: 0x1C }
  - { offset: 0x9993B, size: 0x8, addend: 0x0, symName: _OUTLINED_FUNCTION_1276, symObjAddr: 0xA7C9C, symBinAddr: 0x1000A2384, symSize: 0x10 }
  - { offset: 0x99953, size: 0x8, addend: 0x0, symName: _OUTLINED_FUNCTION_1280, symObjAddr: 0xA7CD8, symBinAddr: 0x1000A23C0, symSize: 0x8 }
  - { offset: 0x9996B, size: 0x8, addend: 0x0, symName: _OUTLINED_FUNCTION_1283, symObjAddr: 0xA7CF4, symBinAddr: 0x1000A23DC, symSize: 0xC }
  - { offset: 0x99983, size: 0x8, addend: 0x0, symName: _OUTLINED_FUNCTION_1286, symObjAddr: 0xA7D10, symBinAddr: 0x1000A23F8, symSize: 0xC }
  - { offset: 0x9999B, size: 0x8, addend: 0x0, symName: _OUTLINED_FUNCTION_1288, symObjAddr: 0xA7D28, symBinAddr: 0x1000A2410, symSize: 0xC }
  - { offset: 0x999B3, size: 0x8, addend: 0x0, symName: _OUTLINED_FUNCTION_1289, symObjAddr: 0xA7D34, symBinAddr: 0x1000A241C, symSize: 0x10 }
  - { offset: 0x999CB, size: 0x8, addend: 0x0, symName: _OUTLINED_FUNCTION_1295, symObjAddr: 0xA7D88, symBinAddr: 0x1000A2470, symSize: 0x10 }
  - { offset: 0x999E3, size: 0x8, addend: 0x0, symName: _OUTLINED_FUNCTION_1298, symObjAddr: 0xA7DB8, symBinAddr: 0x1000A24A0, symSize: 0x10 }
  - { offset: 0x999FB, size: 0x8, addend: 0x0, symName: _OUTLINED_FUNCTION_1299, symObjAddr: 0xA7DC8, symBinAddr: 0x1000A24B0, symSize: 0x10 }
  - { offset: 0x99A13, size: 0x8, addend: 0x0, symName: _OUTLINED_FUNCTION_1300, symObjAddr: 0xA7DD8, symBinAddr: 0x1000A24C0, symSize: 0x10 }
  - { offset: 0x99A2B, size: 0x8, addend: 0x0, symName: _OUTLINED_FUNCTION_1305, symObjAddr: 0xA7E28, symBinAddr: 0x1000A2510, symSize: 0xC }
  - { offset: 0x99A43, size: 0x8, addend: 0x0, symName: _OUTLINED_FUNCTION_1310, symObjAddr: 0xA7E74, symBinAddr: 0x1000A255C, symSize: 0x10 }
  - { offset: 0x99A5B, size: 0x8, addend: 0x0, symName: _OUTLINED_FUNCTION_1311, symObjAddr: 0xA7E84, symBinAddr: 0x1000A256C, symSize: 0x10 }
  - { offset: 0x99A73, size: 0x8, addend: 0x0, symName: _OUTLINED_FUNCTION_1317, symObjAddr: 0xA7EE0, symBinAddr: 0x1000A25C8, symSize: 0x10 }
  - { offset: 0x99A8B, size: 0x8, addend: 0x0, symName: _OUTLINED_FUNCTION_1318, symObjAddr: 0xA7EF0, symBinAddr: 0x1000A25D8, symSize: 0x10 }
  - { offset: 0x99AA3, size: 0x8, addend: 0x0, symName: _OUTLINED_FUNCTION_1321, symObjAddr: 0xA7F20, symBinAddr: 0x1000A2608, symSize: 0x10 }
  - { offset: 0x99ABB, size: 0x8, addend: 0x0, symName: _OUTLINED_FUNCTION_1328, symObjAddr: 0xA7F94, symBinAddr: 0x1000A267C, symSize: 0x10 }
  - { offset: 0x99AD3, size: 0x8, addend: 0x0, symName: _OUTLINED_FUNCTION_1330, symObjAddr: 0xA7FB4, symBinAddr: 0x1000A269C, symSize: 0x10 }
  - { offset: 0x99AEB, size: 0x8, addend: 0x0, symName: _OUTLINED_FUNCTION_1333, symObjAddr: 0xA7FE4, symBinAddr: 0x1000A26CC, symSize: 0x10 }
  - { offset: 0x99B03, size: 0x8, addend: 0x0, symName: _OUTLINED_FUNCTION_1339, symObjAddr: 0xA8044, symBinAddr: 0x1000A272C, symSize: 0x10 }
  - { offset: 0x99B1B, size: 0x8, addend: 0x0, symName: _OUTLINED_FUNCTION_1340, symObjAddr: 0xA8054, symBinAddr: 0x1000A273C, symSize: 0x10 }
  - { offset: 0x99B33, size: 0x8, addend: 0x0, symName: _OUTLINED_FUNCTION_1341, symObjAddr: 0xA8064, symBinAddr: 0x1000A274C, symSize: 0x10 }
  - { offset: 0x99B4B, size: 0x8, addend: 0x0, symName: _OUTLINED_FUNCTION_1343, symObjAddr: 0xA8084, symBinAddr: 0x1000A276C, symSize: 0x10 }
  - { offset: 0x99B63, size: 0x8, addend: 0x0, symName: _OUTLINED_FUNCTION_1352, symObjAddr: 0xA8148, symBinAddr: 0x1000A2830, symSize: 0xC }
  - { offset: 0x99B7B, size: 0x8, addend: 0x0, symName: _OUTLINED_FUNCTION_1367, symObjAddr: 0xA8270, symBinAddr: 0x1000A2958, symSize: 0x18 }
  - { offset: 0x99B93, size: 0x8, addend: 0x0, symName: _OUTLINED_FUNCTION_1370, symObjAddr: 0xA82AC, symBinAddr: 0x1000A2994, symSize: 0xC }
  - { offset: 0x99BAB, size: 0x8, addend: 0x0, symName: _OUTLINED_FUNCTION_1371, symObjAddr: 0xA82B8, symBinAddr: 0x1000A29A0, symSize: 0x18 }
  - { offset: 0x99BC3, size: 0x8, addend: 0x0, symName: _OUTLINED_FUNCTION_1372, symObjAddr: 0xA82D0, symBinAddr: 0x1000A29B8, symSize: 0xC }
  - { offset: 0x99BDB, size: 0x8, addend: 0x0, symName: _OUTLINED_FUNCTION_1373, symObjAddr: 0xA82DC, symBinAddr: 0x1000A29C4, symSize: 0xC }
  - { offset: 0x99BF3, size: 0x8, addend: 0x0, symName: _OUTLINED_FUNCTION_1374, symObjAddr: 0xA82E8, symBinAddr: 0x1000A29D0, symSize: 0xC }
  - { offset: 0x99C0B, size: 0x8, addend: 0x0, symName: _OUTLINED_FUNCTION_1375, symObjAddr: 0xA82F4, symBinAddr: 0x1000A29DC, symSize: 0xC }
  - { offset: 0x99C23, size: 0x8, addend: 0x0, symName: _OUTLINED_FUNCTION_1376, symObjAddr: 0xA8300, symBinAddr: 0x1000A29E8, symSize: 0xC }
  - { offset: 0x99C3B, size: 0x8, addend: 0x0, symName: _OUTLINED_FUNCTION_1377, symObjAddr: 0xA830C, symBinAddr: 0x1000A29F4, symSize: 0xC }
  - { offset: 0x99C53, size: 0x8, addend: 0x0, symName: _OUTLINED_FUNCTION_1378, symObjAddr: 0xA8318, symBinAddr: 0x1000A2A00, symSize: 0xC }
  - { offset: 0x99C6B, size: 0x8, addend: 0x0, symName: _OUTLINED_FUNCTION_1379, symObjAddr: 0xA8324, symBinAddr: 0x1000A2A0C, symSize: 0xC }
  - { offset: 0x99C83, size: 0x8, addend: 0x0, symName: _OUTLINED_FUNCTION_1383, symObjAddr: 0xA8378, symBinAddr: 0x1000A2A60, symSize: 0x18 }
  - { offset: 0x99C9B, size: 0x8, addend: 0x0, symName: _OUTLINED_FUNCTION_1385, symObjAddr: 0xA839C, symBinAddr: 0x1000A2A84, symSize: 0xC }
  - { offset: 0x99CB3, size: 0x8, addend: 0x0, symName: _OUTLINED_FUNCTION_1392, symObjAddr: 0xA8420, symBinAddr: 0x1000A2B08, symSize: 0xC }
  - { offset: 0x99CCB, size: 0x8, addend: 0x0, symName: _OUTLINED_FUNCTION_1398, symObjAddr: 0xA848C, symBinAddr: 0x1000A2B74, symSize: 0xC }
  - { offset: 0x99CE3, size: 0x8, addend: 0x0, symName: _OUTLINED_FUNCTION_1399, symObjAddr: 0xA8498, symBinAddr: 0x1000A2B80, symSize: 0xC }
  - { offset: 0x99CFB, size: 0x8, addend: 0x0, symName: _OUTLINED_FUNCTION_1400, symObjAddr: 0xA84A4, symBinAddr: 0x1000A2B8C, symSize: 0xC }
  - { offset: 0x99D13, size: 0x8, addend: 0x0, symName: _OUTLINED_FUNCTION_1408, symObjAddr: 0xA8528, symBinAddr: 0x1000A2C10, symSize: 0x18 }
  - { offset: 0x99D2B, size: 0x8, addend: 0x0, symName: _OUTLINED_FUNCTION_1409, symObjAddr: 0xA8540, symBinAddr: 0x1000A2C28, symSize: 0xC }
  - { offset: 0x99D43, size: 0x8, addend: 0x0, symName: _OUTLINED_FUNCTION_1410, symObjAddr: 0xA854C, symBinAddr: 0x1000A2C34, symSize: 0x18 }
  - { offset: 0x99D5B, size: 0x8, addend: 0x0, symName: _OUTLINED_FUNCTION_1414, symObjAddr: 0xA85A0, symBinAddr: 0x1000A2C88, symSize: 0xC }
  - { offset: 0x99D73, size: 0x8, addend: 0x0, symName: _OUTLINED_FUNCTION_1415, symObjAddr: 0xA85AC, symBinAddr: 0x1000A2C94, symSize: 0x18 }
  - { offset: 0x99D8B, size: 0x8, addend: 0x0, symName: _OUTLINED_FUNCTION_1416, symObjAddr: 0xA85C4, symBinAddr: 0x1000A2CAC, symSize: 0xC }
  - { offset: 0x99DA3, size: 0x8, addend: 0x0, symName: _OUTLINED_FUNCTION_1421, symObjAddr: 0xA8624, symBinAddr: 0x1000A2D0C, symSize: 0xC }
  - { offset: 0x99DBB, size: 0x8, addend: 0x0, symName: _OUTLINED_FUNCTION_1427, symObjAddr: 0xA86A8, symBinAddr: 0x1000A2D90, symSize: 0x18 }
  - { offset: 0x99DD3, size: 0x8, addend: 0x0, symName: _OUTLINED_FUNCTION_1429, symObjAddr: 0xA86CC, symBinAddr: 0x1000A2DB4, symSize: 0xC }
  - { offset: 0x99DEB, size: 0x8, addend: 0x0, symName: _OUTLINED_FUNCTION_1433, symObjAddr: 0xA8708, symBinAddr: 0x1000A2DF0, symSize: 0xC }
  - { offset: 0x99E03, size: 0x8, addend: 0x0, symName: _OUTLINED_FUNCTION_1437, symObjAddr: 0xA875C, symBinAddr: 0x1000A2E44, symSize: 0xC }
  - { offset: 0x99E1B, size: 0x8, addend: 0x0, symName: _OUTLINED_FUNCTION_1440, symObjAddr: 0xA878C, symBinAddr: 0x1000A2E74, symSize: 0xC }
  - { offset: 0x99E33, size: 0x8, addend: 0x0, symName: _OUTLINED_FUNCTION_1442, symObjAddr: 0xA87A4, symBinAddr: 0x1000A2E8C, symSize: 0xC }
  - { offset: 0x99E4B, size: 0x8, addend: 0x0, symName: _OUTLINED_FUNCTION_1445, symObjAddr: 0xA87D4, symBinAddr: 0x1000A2EBC, symSize: 0x18 }
  - { offset: 0x99E63, size: 0x8, addend: 0x0, symName: _OUTLINED_FUNCTION_1447, symObjAddr: 0xA87F8, symBinAddr: 0x1000A2EE0, symSize: 0xC }
  - { offset: 0x99E7B, size: 0x8, addend: 0x0, symName: _OUTLINED_FUNCTION_1448, symObjAddr: 0xA8804, symBinAddr: 0x1000A2EEC, symSize: 0x18 }
  - { offset: 0x99E93, size: 0x8, addend: 0x0, symName: _OUTLINED_FUNCTION_1449, symObjAddr: 0xA881C, symBinAddr: 0x1000A2F04, symSize: 0x18 }
  - { offset: 0x99EAB, size: 0x8, addend: 0x0, symName: _OUTLINED_FUNCTION_1454, symObjAddr: 0xA887C, symBinAddr: 0x1000A2F64, symSize: 0x14 }
  - { offset: 0x99EC3, size: 0x8, addend: 0x0, symName: _OUTLINED_FUNCTION_1456, symObjAddr: 0xA88B4, symBinAddr: 0x1000A2F9C, symSize: 0x14 }
  - { offset: 0x99EDB, size: 0x8, addend: 0x0, symName: _OUTLINED_FUNCTION_1461, symObjAddr: 0xA8910, symBinAddr: 0x1000A2FF8, symSize: 0xC }
  - { offset: 0x99EF3, size: 0x8, addend: 0x0, symName: _OUTLINED_FUNCTION_1462, symObjAddr: 0xA891C, symBinAddr: 0x1000A3004, symSize: 0xC }
  - { offset: 0x99F0B, size: 0x8, addend: 0x0, symName: _OUTLINED_FUNCTION_1463, symObjAddr: 0xA8928, symBinAddr: 0x1000A3010, symSize: 0xC }
  - { offset: 0x99F23, size: 0x8, addend: 0x0, symName: _OUTLINED_FUNCTION_1465, symObjAddr: 0xA8940, symBinAddr: 0x1000A3028, symSize: 0x8 }
  - { offset: 0x99F3B, size: 0x8, addend: 0x0, symName: _OUTLINED_FUNCTION_1468, symObjAddr: 0xA895C, symBinAddr: 0x1000A3044, symSize: 0x8 }
  - { offset: 0x99F53, size: 0x8, addend: 0x0, symName: _OUTLINED_FUNCTION_1470, symObjAddr: 0xA896C, symBinAddr: 0x1000A3054, symSize: 0x8 }
  - { offset: 0x99F6B, size: 0x8, addend: 0x0, symName: _OUTLINED_FUNCTION_1473, symObjAddr: 0xA8984, symBinAddr: 0x1000A306C, symSize: 0x8 }
  - { offset: 0x99F83, size: 0x8, addend: 0x0, symName: _OUTLINED_FUNCTION_1474, symObjAddr: 0xA898C, symBinAddr: 0x1000A3074, symSize: 0x8 }
  - { offset: 0x99F9B, size: 0x8, addend: 0x0, symName: _OUTLINED_FUNCTION_1477, symObjAddr: 0xA89A8, symBinAddr: 0x1000A3090, symSize: 0xC }
  - { offset: 0x99FB3, size: 0x8, addend: 0x0, symName: _OUTLINED_FUNCTION_1478, symObjAddr: 0xA89B4, symBinAddr: 0x1000A309C, symSize: 0xC }
  - { offset: 0x99FCB, size: 0x8, addend: 0x0, symName: _OUTLINED_FUNCTION_1481, symObjAddr: 0xA89D4, symBinAddr: 0x1000A30BC, symSize: 0xC }
  - { offset: 0x99FE3, size: 0x8, addend: 0x0, symName: _OUTLINED_FUNCTION_1485, symObjAddr: 0xA8A04, symBinAddr: 0x1000A30EC, symSize: 0xC }
  - { offset: 0x99FFB, size: 0x8, addend: 0x0, symName: _OUTLINED_FUNCTION_1489, symObjAddr: 0xA8A30, symBinAddr: 0x1000A3118, symSize: 0x1C }
  - { offset: 0x9A013, size: 0x8, addend: 0x0, symName: _OUTLINED_FUNCTION_1498, symObjAddr: 0xA8A90, symBinAddr: 0x1000A3178, symSize: 0xC }
  - { offset: 0x9A02B, size: 0x8, addend: 0x0, symName: _OUTLINED_FUNCTION_1503, symObjAddr: 0xA8AC4, symBinAddr: 0x1000A31AC, symSize: 0xC }
  - { offset: 0x9A043, size: 0x8, addend: 0x0, symName: _OUTLINED_FUNCTION_1508, symObjAddr: 0xA8AFC, symBinAddr: 0x1000A31E4, symSize: 0xC }
  - { offset: 0x9A05B, size: 0x8, addend: 0x0, symName: _OUTLINED_FUNCTION_1509, symObjAddr: 0xA8B08, symBinAddr: 0x1000A31F0, symSize: 0xC }
  - { offset: 0x9A073, size: 0x8, addend: 0x0, symName: _OUTLINED_FUNCTION_1511, symObjAddr: 0xA8B20, symBinAddr: 0x1000A3208, symSize: 0x8 }
  - { offset: 0x9A08B, size: 0x8, addend: 0x0, symName: _OUTLINED_FUNCTION_1513, symObjAddr: 0xA8B30, symBinAddr: 0x1000A3218, symSize: 0xC }
  - { offset: 0x9A0A3, size: 0x8, addend: 0x0, symName: _OUTLINED_FUNCTION_1514, symObjAddr: 0xA8B3C, symBinAddr: 0x1000A3224, symSize: 0x8 }
  - { offset: 0x9A0BB, size: 0x8, addend: 0x0, symName: _OUTLINED_FUNCTION_1515, symObjAddr: 0xA8B44, symBinAddr: 0x1000A322C, symSize: 0x8 }
  - { offset: 0x9A0D3, size: 0x8, addend: 0x0, symName: _OUTLINED_FUNCTION_1517, symObjAddr: 0xA8B58, symBinAddr: 0x1000A3240, symSize: 0x8 }
  - { offset: 0x9A0EB, size: 0x8, addend: 0x0, symName: _OUTLINED_FUNCTION_1520, symObjAddr: 0xA8B74, symBinAddr: 0x1000A325C, symSize: 0xC }
  - { offset: 0x9A103, size: 0x8, addend: 0x0, symName: _OUTLINED_FUNCTION_1526, symObjAddr: 0xA8BB8, symBinAddr: 0x1000A32A0, symSize: 0xC }
  - { offset: 0x9A11B, size: 0x8, addend: 0x0, symName: _OUTLINED_FUNCTION_1530, symObjAddr: 0xA8BE8, symBinAddr: 0x1000A32D0, symSize: 0x8 }
  - { offset: 0x9A133, size: 0x8, addend: 0x0, symName: _OUTLINED_FUNCTION_1535, symObjAddr: 0xA8C1C, symBinAddr: 0x1000A3304, symSize: 0xC }
  - { offset: 0x9A14B, size: 0x8, addend: 0x0, symName: _OUTLINED_FUNCTION_1540, symObjAddr: 0xA8C54, symBinAddr: 0x1000A333C, symSize: 0x8 }
  - { offset: 0x9A163, size: 0x8, addend: 0x0, symName: _OUTLINED_FUNCTION_1541, symObjAddr: 0xA8C5C, symBinAddr: 0x1000A3344, symSize: 0xC }
  - { offset: 0x9A17B, size: 0x8, addend: 0x0, symName: _OUTLINED_FUNCTION_1549, symObjAddr: 0xA8CB0, symBinAddr: 0x1000A3398, symSize: 0xC }
  - { offset: 0x9A193, size: 0x8, addend: 0x0, symName: _OUTLINED_FUNCTION_1555, symObjAddr: 0xA8CF0, symBinAddr: 0x1000A33D8, symSize: 0xC }
  - { offset: 0x9A1AB, size: 0x8, addend: 0x0, symName: _OUTLINED_FUNCTION_1568, symObjAddr: 0xA8D74, symBinAddr: 0x1000A345C, symSize: 0xC }
  - { offset: 0x9A1C3, size: 0x8, addend: 0x0, symName: _OUTLINED_FUNCTION_1569, symObjAddr: 0xA8D80, symBinAddr: 0x1000A3468, symSize: 0x8 }
  - { offset: 0x9A1DB, size: 0x8, addend: 0x0, symName: _OUTLINED_FUNCTION_1572, symObjAddr: 0xA8D9C, symBinAddr: 0x1000A3484, symSize: 0xC }
  - { offset: 0x9A1F3, size: 0x8, addend: 0x0, symName: _OUTLINED_FUNCTION_1573, symObjAddr: 0xA8DA8, symBinAddr: 0x1000A3490, symSize: 0x8 }
  - { offset: 0x9A20B, size: 0x8, addend: 0x0, symName: _OUTLINED_FUNCTION_1577, symObjAddr: 0xA8DC8, symBinAddr: 0x1000A34B0, symSize: 0xC }
  - { offset: 0x9A223, size: 0x8, addend: 0x0, symName: _OUTLINED_FUNCTION_1579, symObjAddr: 0xA8DDC, symBinAddr: 0x1000A34C4, symSize: 0x8 }
  - { offset: 0x9A23B, size: 0x8, addend: 0x0, symName: _OUTLINED_FUNCTION_1581, symObjAddr: 0xA8DF0, symBinAddr: 0x1000A34D8, symSize: 0x8 }
  - { offset: 0x9A253, size: 0x8, addend: 0x0, symName: _OUTLINED_FUNCTION_1588, symObjAddr: 0xA8E2C, symBinAddr: 0x1000A3514, symSize: 0x8 }
  - { offset: 0x9A26B, size: 0x8, addend: 0x0, symName: _OUTLINED_FUNCTION_1589, symObjAddr: 0xA8E34, symBinAddr: 0x1000A351C, symSize: 0xC }
  - { offset: 0x9A283, size: 0x8, addend: 0x0, symName: _OUTLINED_FUNCTION_1594, symObjAddr: 0xA8E6C, symBinAddr: 0x1000A3554, symSize: 0xC }
  - { offset: 0x9A29B, size: 0x8, addend: 0x0, symName: _OUTLINED_FUNCTION_1614, symObjAddr: 0xA8F4C, symBinAddr: 0x1000A3634, symSize: 0xC }
  - { offset: 0x9A2B3, size: 0x8, addend: 0x0, symName: _OUTLINED_FUNCTION_1616, symObjAddr: 0xA8F64, symBinAddr: 0x1000A364C, symSize: 0x8 }
  - { offset: 0x9A2CB, size: 0x8, addend: 0x0, symName: _OUTLINED_FUNCTION_1617, symObjAddr: 0xA8F6C, symBinAddr: 0x1000A3654, symSize: 0x8 }
  - { offset: 0x9A2E3, size: 0x8, addend: 0x0, symName: _OUTLINED_FUNCTION_1622, symObjAddr: 0xA8FA0, symBinAddr: 0x1000A3688, symSize: 0xC }
  - { offset: 0x9A2FB, size: 0x8, addend: 0x0, symName: _OUTLINED_FUNCTION_1624, symObjAddr: 0xA8FB4, symBinAddr: 0x1000A369C, symSize: 0x8 }
  - { offset: 0x9A313, size: 0x8, addend: 0x0, symName: _OUTLINED_FUNCTION_1634, symObjAddr: 0xA9018, symBinAddr: 0x1000A3700, symSize: 0xC }
  - { offset: 0x9A32B, size: 0x8, addend: 0x0, symName: _OUTLINED_FUNCTION_1637, symObjAddr: 0xA9034, symBinAddr: 0x1000A371C, symSize: 0xC }
  - { offset: 0x9A343, size: 0x8, addend: 0x0, symName: _OUTLINED_FUNCTION_1639, symObjAddr: 0xA904C, symBinAddr: 0x1000A3734, symSize: 0xC }
  - { offset: 0x9A35B, size: 0x8, addend: 0x0, symName: _OUTLINED_FUNCTION_1646, symObjAddr: 0xA90A0, symBinAddr: 0x1000A3788, symSize: 0xC }
  - { offset: 0x9A373, size: 0x8, addend: 0x0, symName: _OUTLINED_FUNCTION_1647, symObjAddr: 0xA90AC, symBinAddr: 0x1000A3794, symSize: 0xC }
  - { offset: 0x9A38B, size: 0x8, addend: 0x0, symName: _OUTLINED_FUNCTION_1649, symObjAddr: 0xA90C4, symBinAddr: 0x1000A37AC, symSize: 0xC }
  - { offset: 0x9A3A3, size: 0x8, addend: 0x0, symName: _OUTLINED_FUNCTION_1656, symObjAddr: 0xA9114, symBinAddr: 0x1000A37FC, symSize: 0xC }
  - { offset: 0x9A3BB, size: 0x8, addend: 0x0, symName: _OUTLINED_FUNCTION_1665, symObjAddr: 0xA9180, symBinAddr: 0x1000A3868, symSize: 0x8 }
  - { offset: 0x9A3D3, size: 0x8, addend: 0x0, symName: _OUTLINED_FUNCTION_1666, symObjAddr: 0xA9188, symBinAddr: 0x1000A3870, symSize: 0xC }
  - { offset: 0x9A3EB, size: 0x8, addend: 0x0, symName: _OUTLINED_FUNCTION_1667, symObjAddr: 0xA9194, symBinAddr: 0x1000A387C, symSize: 0xC }
  - { offset: 0x9A403, size: 0x8, addend: 0x0, symName: _OUTLINED_FUNCTION_1668, symObjAddr: 0xA91A0, symBinAddr: 0x1000A3888, symSize: 0xC }
  - { offset: 0x9A41B, size: 0x8, addend: 0x0, symName: _OUTLINED_FUNCTION_1671, symObjAddr: 0xA91C4, symBinAddr: 0x1000A38AC, symSize: 0xC }
  - { offset: 0x9A433, size: 0x8, addend: 0x0, symName: _OUTLINED_FUNCTION_1673, symObjAddr: 0xA91DC, symBinAddr: 0x1000A38C4, symSize: 0xC }
  - { offset: 0x9A44B, size: 0x8, addend: 0x0, symName: _OUTLINED_FUNCTION_1678, symObjAddr: 0xA9214, symBinAddr: 0x1000A38FC, symSize: 0x8 }
  - { offset: 0x9A463, size: 0x8, addend: 0x0, symName: _OUTLINED_FUNCTION_1679, symObjAddr: 0xA921C, symBinAddr: 0x1000A3904, symSize: 0x8 }
  - { offset: 0x9A47B, size: 0x8, addend: 0x0, symName: _OUTLINED_FUNCTION_1690, symObjAddr: 0xA9284, symBinAddr: 0x1000A396C, symSize: 0x8 }
  - { offset: 0x9A493, size: 0x8, addend: 0x0, symName: _OUTLINED_FUNCTION_1691, symObjAddr: 0xA928C, symBinAddr: 0x1000A3974, symSize: 0x8 }
  - { offset: 0x9A4AB, size: 0x8, addend: 0x0, symName: _OUTLINED_FUNCTION_1694, symObjAddr: 0xA92AC, symBinAddr: 0x1000A3994, symSize: 0x8 }
  - { offset: 0x9A4C3, size: 0x8, addend: 0x0, symName: _OUTLINED_FUNCTION_1696, symObjAddr: 0xA92BC, symBinAddr: 0x1000A39A4, symSize: 0x8 }
  - { offset: 0x9A4DB, size: 0x8, addend: 0x0, symName: _OUTLINED_FUNCTION_1697, symObjAddr: 0xA92C4, symBinAddr: 0x1000A39AC, symSize: 0xC }
  - { offset: 0x9A4F3, size: 0x8, addend: 0x0, symName: _OUTLINED_FUNCTION_1700, symObjAddr: 0xA92E4, symBinAddr: 0x1000A39CC, symSize: 0xC }
  - { offset: 0x9A50B, size: 0x8, addend: 0x0, symName: _OUTLINED_FUNCTION_1707, symObjAddr: 0xA9334, symBinAddr: 0x1000A3A1C, symSize: 0x8 }
  - { offset: 0x9A523, size: 0x8, addend: 0x0, symName: _OUTLINED_FUNCTION_1708, symObjAddr: 0xA933C, symBinAddr: 0x1000A3A24, symSize: 0x8 }
  - { offset: 0x9A53B, size: 0x8, addend: 0x0, symName: _OUTLINED_FUNCTION_1709, symObjAddr: 0xA9344, symBinAddr: 0x1000A3A2C, symSize: 0x8 }
  - { offset: 0x9A553, size: 0x8, addend: 0x0, symName: _OUTLINED_FUNCTION_1711, symObjAddr: 0xA9354, symBinAddr: 0x1000A3A3C, symSize: 0x8 }
  - { offset: 0x9A56B, size: 0x8, addend: 0x0, symName: _OUTLINED_FUNCTION_1712, symObjAddr: 0xA935C, symBinAddr: 0x1000A3A44, symSize: 0x8 }
  - { offset: 0x9A583, size: 0x8, addend: 0x0, symName: _OUTLINED_FUNCTION_1726, symObjAddr: 0xA93E4, symBinAddr: 0x1000A3ACC, symSize: 0xC }
  - { offset: 0x9A59B, size: 0x8, addend: 0x0, symName: _OUTLINED_FUNCTION_1729, symObjAddr: 0xA9400, symBinAddr: 0x1000A3AE8, symSize: 0xC }
  - { offset: 0x9A5B3, size: 0x8, addend: 0x0, symName: _OUTLINED_FUNCTION_1737, symObjAddr: 0xA9458, symBinAddr: 0x1000A3B40, symSize: 0xC }
  - { offset: 0x9A5CB, size: 0x8, addend: 0x0, symName: _OUTLINED_FUNCTION_1739, symObjAddr: 0xA9470, symBinAddr: 0x1000A3B58, symSize: 0xC }
  - { offset: 0x9A5E3, size: 0x8, addend: 0x0, symName: _OUTLINED_FUNCTION_1740, symObjAddr: 0xA947C, symBinAddr: 0x1000A3B64, symSize: 0xC }
  - { offset: 0x9A5FB, size: 0x8, addend: 0x0, symName: _OUTLINED_FUNCTION_1742, symObjAddr: 0xA9494, symBinAddr: 0x1000A3B7C, symSize: 0x8 }
  - { offset: 0x9A613, size: 0x8, addend: 0x0, symName: _OUTLINED_FUNCTION_1746, symObjAddr: 0xA94C0, symBinAddr: 0x1000A3BA8, symSize: 0xC }
  - { offset: 0x9A62B, size: 0x8, addend: 0x0, symName: _OUTLINED_FUNCTION_1751, symObjAddr: 0xA94F0, symBinAddr: 0x1000A3BD8, symSize: 0x8 }
  - { offset: 0x9A643, size: 0x8, addend: 0x0, symName: _OUTLINED_FUNCTION_1756, symObjAddr: 0xA951C, symBinAddr: 0x1000A3C04, symSize: 0x8 }
  - { offset: 0x9A65B, size: 0x8, addend: 0x0, symName: _OUTLINED_FUNCTION_1766, symObjAddr: 0xA9580, symBinAddr: 0x1000A3C68, symSize: 0xC }
  - { offset: 0x9A673, size: 0x8, addend: 0x0, symName: _OUTLINED_FUNCTION_1767, symObjAddr: 0xA958C, symBinAddr: 0x1000A3C74, symSize: 0xC }
  - { offset: 0x9A68B, size: 0x8, addend: 0x0, symName: _OUTLINED_FUNCTION_1768, symObjAddr: 0xA9598, symBinAddr: 0x1000A3C80, symSize: 0x8 }
  - { offset: 0x9A6A3, size: 0x8, addend: 0x0, symName: _OUTLINED_FUNCTION_1780, symObjAddr: 0xA960C, symBinAddr: 0x1000A3CF4, symSize: 0x8 }
  - { offset: 0x9A6BB, size: 0x8, addend: 0x0, symName: _OUTLINED_FUNCTION_1783, symObjAddr: 0xA9624, symBinAddr: 0x1000A3D0C, symSize: 0xC }
  - { offset: 0x9A6D3, size: 0x8, addend: 0x0, symName: _OUTLINED_FUNCTION_1784, symObjAddr: 0xA9630, symBinAddr: 0x1000A3D18, symSize: 0x8 }
  - { offset: 0x9A6EB, size: 0x8, addend: 0x0, symName: _OUTLINED_FUNCTION_1785, symObjAddr: 0xA9638, symBinAddr: 0x1000A3D20, symSize: 0x8 }
  - { offset: 0x9A703, size: 0x8, addend: 0x0, symName: _OUTLINED_FUNCTION_1786, symObjAddr: 0xA9640, symBinAddr: 0x1000A3D28, symSize: 0xC }
  - { offset: 0x9A71B, size: 0x8, addend: 0x0, symName: _OUTLINED_FUNCTION_1789, symObjAddr: 0xA9660, symBinAddr: 0x1000A3D48, symSize: 0x8 }
  - { offset: 0x9A733, size: 0x8, addend: 0x0, symName: _OUTLINED_FUNCTION_1790, symObjAddr: 0xA9668, symBinAddr: 0x1000A3D50, symSize: 0x8 }
  - { offset: 0x9A74B, size: 0x8, addend: 0x0, symName: _OUTLINED_FUNCTION_1792, symObjAddr: 0xA9678, symBinAddr: 0x1000A3D60, symSize: 0x8 }
  - { offset: 0x9A763, size: 0x8, addend: 0x0, symName: _OUTLINED_FUNCTION_1798, symObjAddr: 0xA96B8, symBinAddr: 0x1000A3DA0, symSize: 0xC }
  - { offset: 0x9A77B, size: 0x8, addend: 0x0, symName: _OUTLINED_FUNCTION_1799, symObjAddr: 0xA96C4, symBinAddr: 0x1000A3DAC, symSize: 0x14 }
  - { offset: 0x9A793, size: 0x8, addend: 0x0, symName: _OUTLINED_FUNCTION_1801, symObjAddr: 0xA96E4, symBinAddr: 0x1000A3DCC, symSize: 0x14 }
  - { offset: 0x9A7AB, size: 0x8, addend: 0x0, symName: _OUTLINED_FUNCTION_1802, symObjAddr: 0xA96F8, symBinAddr: 0x1000A3DE0, symSize: 0xC }
  - { offset: 0x9A7C3, size: 0x8, addend: 0x0, symName: _OUTLINED_FUNCTION_1803, symObjAddr: 0xA9704, symBinAddr: 0x1000A3DEC, symSize: 0x14 }
  - { offset: 0x9A7DB, size: 0x8, addend: 0x0, symName: _OUTLINED_FUNCTION_1807, symObjAddr: 0xA9748, symBinAddr: 0x1000A3E30, symSize: 0x14 }
  - { offset: 0x9A7F3, size: 0x8, addend: 0x0, symName: _OUTLINED_FUNCTION_1810, symObjAddr: 0xA977C, symBinAddr: 0x1000A3E64, symSize: 0xC }
  - { offset: 0x9A80B, size: 0x8, addend: 0x0, symName: _OUTLINED_FUNCTION_1815, symObjAddr: 0xA97D8, symBinAddr: 0x1000A3EC0, symSize: 0xC }
  - { offset: 0x9A823, size: 0x8, addend: 0x0, symName: _OUTLINED_FUNCTION_1819, symObjAddr: 0xA9820, symBinAddr: 0x1000A3F08, symSize: 0x14 }
  - { offset: 0x9A83B, size: 0x8, addend: 0x0, symName: _OUTLINED_FUNCTION_1821, symObjAddr: 0xA9840, symBinAddr: 0x1000A3F28, symSize: 0x14 }
  - { offset: 0x9A853, size: 0x8, addend: 0x0, symName: _OUTLINED_FUNCTION_1832, symObjAddr: 0xA98FC, symBinAddr: 0x1000A3FE4, symSize: 0xC }
  - { offset: 0x9A86B, size: 0x8, addend: 0x0, symName: _OUTLINED_FUNCTION_1839, symObjAddr: 0xA9980, symBinAddr: 0x1000A4068, symSize: 0xC }
  - { offset: 0x9A883, size: 0x8, addend: 0x0, symName: _OUTLINED_FUNCTION_1841, symObjAddr: 0xA99A0, symBinAddr: 0x1000A4088, symSize: 0xC }
  - { offset: 0x9A89B, size: 0x8, addend: 0x0, symName: _OUTLINED_FUNCTION_1845, symObjAddr: 0xA99E0, symBinAddr: 0x1000A40C8, symSize: 0xC }
  - { offset: 0x9A8B3, size: 0x8, addend: 0x0, symName: _OUTLINED_FUNCTION_1846, symObjAddr: 0xA99EC, symBinAddr: 0x1000A40D4, symSize: 0xC }
  - { offset: 0x9A8CB, size: 0x8, addend: 0x0, symName: _OUTLINED_FUNCTION_1847, symObjAddr: 0xA99F8, symBinAddr: 0x1000A40E0, symSize: 0xC }
  - { offset: 0x9A8E3, size: 0x8, addend: 0x0, symName: _OUTLINED_FUNCTION_1848, symObjAddr: 0xA9A04, symBinAddr: 0x1000A40EC, symSize: 0xC }
  - { offset: 0x9A8FB, size: 0x8, addend: 0x0, symName: _OUTLINED_FUNCTION_1849, symObjAddr: 0xA9A10, symBinAddr: 0x1000A40F8, symSize: 0xC }
  - { offset: 0x9A913, size: 0x8, addend: 0x0, symName: _OUTLINED_FUNCTION_1856, symObjAddr: 0xA9A84, symBinAddr: 0x1000A416C, symSize: 0x14 }
  - { offset: 0x9A92B, size: 0x8, addend: 0x0, symName: _OUTLINED_FUNCTION_1857, symObjAddr: 0xA9A98, symBinAddr: 0x1000A4180, symSize: 0xC }
  - { offset: 0x9A943, size: 0x8, addend: 0x0, symName: _OUTLINED_FUNCTION_1861, symObjAddr: 0xA9AD8, symBinAddr: 0x1000A41C0, symSize: 0xC }
  - { offset: 0x9A95B, size: 0x8, addend: 0x0, symName: _OUTLINED_FUNCTION_1863, symObjAddr: 0xA9AF0, symBinAddr: 0x1000A41D8, symSize: 0xC }
  - { offset: 0x9A973, size: 0x8, addend: 0x0, symName: _OUTLINED_FUNCTION_1866, symObjAddr: 0xA9B1C, symBinAddr: 0x1000A4204, symSize: 0x14 }
  - { offset: 0x9A98B, size: 0x8, addend: 0x0, symName: _OUTLINED_FUNCTION_1867, symObjAddr: 0xA9B30, symBinAddr: 0x1000A4218, symSize: 0xC }
  - { offset: 0x9A9A3, size: 0x8, addend: 0x0, symName: _OUTLINED_FUNCTION_1868, symObjAddr: 0xA9B3C, symBinAddr: 0x1000A4224, symSize: 0x14 }
  - { offset: 0x9A9BB, size: 0x8, addend: 0x0, symName: _OUTLINED_FUNCTION_1869, symObjAddr: 0xA9B50, symBinAddr: 0x1000A4238, symSize: 0xC }
  - { offset: 0x9A9D3, size: 0x8, addend: 0x0, symName: _OUTLINED_FUNCTION_1871, symObjAddr: 0xA9B68, symBinAddr: 0x1000A4250, symSize: 0xC }
  - { offset: 0x9A9EB, size: 0x8, addend: 0x0, symName: _OUTLINED_FUNCTION_1872, symObjAddr: 0xA9B74, symBinAddr: 0x1000A425C, symSize: 0xC }
  - { offset: 0x9AA03, size: 0x8, addend: 0x0, symName: _OUTLINED_FUNCTION_1873, symObjAddr: 0xA9B80, symBinAddr: 0x1000A4268, symSize: 0xC }
  - { offset: 0x9AA1B, size: 0x8, addend: 0x0, symName: _OUTLINED_FUNCTION_1875, symObjAddr: 0xA9BA0, symBinAddr: 0x1000A4288, symSize: 0x14 }
  - { offset: 0x9AA33, size: 0x8, addend: 0x0, symName: _OUTLINED_FUNCTION_1876, symObjAddr: 0xA9BB4, symBinAddr: 0x1000A429C, symSize: 0x14 }
  - { offset: 0x9AA4B, size: 0x8, addend: 0x0, symName: _OUTLINED_FUNCTION_1877, symObjAddr: 0xA9BC8, symBinAddr: 0x1000A42B0, symSize: 0x14 }
  - { offset: 0x9AA63, size: 0x8, addend: 0x0, symName: _OUTLINED_FUNCTION_1880, symObjAddr: 0xA9BFC, symBinAddr: 0x1000A42E4, symSize: 0xC }
  - { offset: 0x9AA7B, size: 0x8, addend: 0x0, symName: _OUTLINED_FUNCTION_1881, symObjAddr: 0xA9C08, symBinAddr: 0x1000A42F0, symSize: 0xC }
  - { offset: 0x9AA93, size: 0x8, addend: 0x0, symName: _OUTLINED_FUNCTION_1888, symObjAddr: 0xA9C8C, symBinAddr: 0x1000A4374, symSize: 0xC }
  - { offset: 0x9AAAB, size: 0x8, addend: 0x0, symName: _OUTLINED_FUNCTION_1891, symObjAddr: 0xA9CB8, symBinAddr: 0x1000A43A0, symSize: 0x14 }
  - { offset: 0x9AAC3, size: 0x8, addend: 0x0, symName: _OUTLINED_FUNCTION_1892, symObjAddr: 0xA9CCC, symBinAddr: 0x1000A43B4, symSize: 0x14 }
  - { offset: 0x9AADB, size: 0x8, addend: 0x0, symName: _OUTLINED_FUNCTION_1893, symObjAddr: 0xA9CE0, symBinAddr: 0x1000A43C8, symSize: 0x14 }
  - { offset: 0x9AAF3, size: 0x8, addend: 0x0, symName: _OUTLINED_FUNCTION_1894, symObjAddr: 0xA9CF4, symBinAddr: 0x1000A43DC, symSize: 0xC }
  - { offset: 0x9AB0B, size: 0x8, addend: 0x0, symName: _OUTLINED_FUNCTION_1895, symObjAddr: 0xA9D00, symBinAddr: 0x1000A43E8, symSize: 0xC }
  - { offset: 0x9AB23, size: 0x8, addend: 0x0, symName: _OUTLINED_FUNCTION_1896, symObjAddr: 0xA9D0C, symBinAddr: 0x1000A43F4, symSize: 0xC }
  - { offset: 0x9AB3B, size: 0x8, addend: 0x0, symName: _OUTLINED_FUNCTION_1900, symObjAddr: 0xA9D44, symBinAddr: 0x1000A442C, symSize: 0xC }
  - { offset: 0x9AB53, size: 0x8, addend: 0x0, symName: _OUTLINED_FUNCTION_1904, symObjAddr: 0xA9D8C, symBinAddr: 0x1000A4474, symSize: 0xC }
  - { offset: 0x9AB6B, size: 0x8, addend: 0x0, symName: _OUTLINED_FUNCTION_1910, symObjAddr: 0xA9DEC, symBinAddr: 0x1000A44D4, symSize: 0x14 }
  - { offset: 0x9AB83, size: 0x8, addend: 0x0, symName: _OUTLINED_FUNCTION_1912, symObjAddr: 0xA9E0C, symBinAddr: 0x1000A44F4, symSize: 0xC }
  - { offset: 0x9AB9B, size: 0x8, addend: 0x0, symName: _OUTLINED_FUNCTION_1922, symObjAddr: 0xA9EAC, symBinAddr: 0x1000A4594, symSize: 0xC }
  - { offset: 0x9ABB3, size: 0x8, addend: 0x0, symName: _OUTLINED_FUNCTION_1924, symObjAddr: 0xA9ECC, symBinAddr: 0x1000A45B4, symSize: 0x14 }
  - { offset: 0x9ABCB, size: 0x8, addend: 0x0, symName: _OUTLINED_FUNCTION_1925, symObjAddr: 0xA9EE0, symBinAddr: 0x1000A45C8, symSize: 0x14 }
  - { offset: 0x9ABE3, size: 0x8, addend: 0x0, symName: _OUTLINED_FUNCTION_1928, symObjAddr: 0xA9F0C, symBinAddr: 0x1000A45F4, symSize: 0x14 }
  - { offset: 0x9ABFB, size: 0x8, addend: 0x0, symName: _OUTLINED_FUNCTION_1939, symObjAddr: 0xA9FD0, symBinAddr: 0x1000A46B8, symSize: 0x14 }
  - { offset: 0x9AC13, size: 0x8, addend: 0x0, symName: _OUTLINED_FUNCTION_1942, symObjAddr: 0xAA00C, symBinAddr: 0x1000A46F4, symSize: 0x14 }
  - { offset: 0x9AC2B, size: 0x8, addend: 0x0, symName: _OUTLINED_FUNCTION_1948, symObjAddr: 0xAA074, symBinAddr: 0x1000A475C, symSize: 0x14 }
  - { offset: 0x9AC43, size: 0x8, addend: 0x0, symName: _OUTLINED_FUNCTION_1952, symObjAddr: 0xAA0B4, symBinAddr: 0x1000A479C, symSize: 0xC }
  - { offset: 0x9AC5B, size: 0x8, addend: 0x0, symName: _OUTLINED_FUNCTION_1954, symObjAddr: 0xAA0CC, symBinAddr: 0x1000A47B4, symSize: 0xC }
  - { offset: 0x9AC73, size: 0x8, addend: 0x0, symName: _OUTLINED_FUNCTION_1955, symObjAddr: 0xAA0D8, symBinAddr: 0x1000A47C0, symSize: 0xC }
  - { offset: 0x9AC8B, size: 0x8, addend: 0x0, symName: _OUTLINED_FUNCTION_1959, symObjAddr: 0xAA118, symBinAddr: 0x1000A4800, symSize: 0xC }
  - { offset: 0x9ACA3, size: 0x8, addend: 0x0, symName: _OUTLINED_FUNCTION_1966, symObjAddr: 0xAA184, symBinAddr: 0x1000A486C, symSize: 0x14 }
  - { offset: 0x9ACBB, size: 0x8, addend: 0x0, symName: _OUTLINED_FUNCTION_1969, symObjAddr: 0xAA1B0, symBinAddr: 0x1000A4898, symSize: 0xC }
  - { offset: 0x9ACD3, size: 0x8, addend: 0x0, symName: _OUTLINED_FUNCTION_1971, symObjAddr: 0xAA1D0, symBinAddr: 0x1000A48B8, symSize: 0xC }
  - { offset: 0x9ACEB, size: 0x8, addend: 0x0, symName: _OUTLINED_FUNCTION_1976, symObjAddr: 0xAA22C, symBinAddr: 0x1000A4914, symSize: 0xC }
  - { offset: 0x9AD03, size: 0x8, addend: 0x0, symName: _OUTLINED_FUNCTION_1978, symObjAddr: 0xAA24C, symBinAddr: 0x1000A4934, symSize: 0xC }
  - { offset: 0x9AD1B, size: 0x8, addend: 0x0, symName: _OUTLINED_FUNCTION_1986, symObjAddr: 0xAA2C4, symBinAddr: 0x1000A49AC, symSize: 0xC }
  - { offset: 0x9AD33, size: 0x8, addend: 0x0, symName: _OUTLINED_FUNCTION_1990, symObjAddr: 0xAA2FC, symBinAddr: 0x1000A49E4, symSize: 0xC }
  - { offset: 0x9AD4B, size: 0x8, addend: 0x0, symName: _OUTLINED_FUNCTION_1991, symObjAddr: 0xAA308, symBinAddr: 0x1000A49F0, symSize: 0xC }
  - { offset: 0x9AD63, size: 0x8, addend: 0x0, symName: _OUTLINED_FUNCTION_1994, symObjAddr: 0xAA32C, symBinAddr: 0x1000A4A14, symSize: 0xC }
  - { offset: 0x9AD7B, size: 0x8, addend: 0x0, symName: _OUTLINED_FUNCTION_1995, symObjAddr: 0xAA338, symBinAddr: 0x1000A4A20, symSize: 0x14 }
  - { offset: 0x9AD93, size: 0x8, addend: 0x0, symName: _OUTLINED_FUNCTION_1997, symObjAddr: 0xAA358, symBinAddr: 0x1000A4A40, symSize: 0x14 }
  - { offset: 0x9ADAB, size: 0x8, addend: 0x0, symName: _OUTLINED_FUNCTION_2000, symObjAddr: 0xAA394, symBinAddr: 0x1000A4A7C, symSize: 0x1C }
  - { offset: 0x9ADC3, size: 0x8, addend: 0x0, symName: _OUTLINED_FUNCTION_2004, symObjAddr: 0xAA404, symBinAddr: 0x1000A4AEC, symSize: 0x1C }
  - { offset: 0x9ADDB, size: 0x8, addend: 0x0, symName: _OUTLINED_FUNCTION_2009, symObjAddr: 0xAA48C, symBinAddr: 0x1000A4B74, symSize: 0x14 }
  - { offset: 0x9ADF3, size: 0x8, addend: 0x0, symName: _OUTLINED_FUNCTION_2010, symObjAddr: 0xAA4A0, symBinAddr: 0x1000A4B88, symSize: 0x14 }
  - { offset: 0x9AE0B, size: 0x8, addend: 0x0, symName: _OUTLINED_FUNCTION_2011, symObjAddr: 0xAA4B4, symBinAddr: 0x1000A4B9C, symSize: 0x24 }
  - { offset: 0x9AE23, size: 0x8, addend: 0x0, symName: _OUTLINED_FUNCTION_2013, symObjAddr: 0xAA4EC, symBinAddr: 0x1000A4BD4, symSize: 0xC }
  - { offset: 0xB5240, size: 0x8, addend: 0x0, symName: '__ZN69_$LT$core..alloc..layout..LayoutError$u20$as$u20$core..fmt..Debug$GT$3fmt17h9902189354e2963bE.136', symObjAddr: 0x1BB40, symBinAddr: 0x10001BC30, symSize: 0x18 }
  - { offset: 0xB693C, size: 0x8, addend: 0x0, symName: __ZN4core3ops8function6FnOnce9call_once17h0eace32a9007c8b9E, symObjAddr: 0x1BB58, symBinAddr: 0x10001BC48, symSize: 0x4 }
  - { offset: 0xB697E, size: 0x8, addend: 0x0, symName: __ZN4core3ops8function6FnOnce9call_once17h42f2b72ce2c5235fE, symObjAddr: 0x1BBD4, symBinAddr: 0x10001BCC4, symSize: 0x8 }
  - { offset: 0xB69B1, size: 0x8, addend: 0x0, symName: __ZN4core3ops8function6FnOnce9call_once17h42f2b72ce2c5235fE, symObjAddr: 0x1BBD4, symBinAddr: 0x10001BCC4, symSize: 0x8 }
  - { offset: 0xB69CC, size: 0x8, addend: 0x0, symName: __ZN4core3ops8function6FnOnce9call_once17h42f2b72ce2c5235fE, symObjAddr: 0x1BBD4, symBinAddr: 0x10001BCC4, symSize: 0x8 }
  - { offset: 0xB69E4, size: 0x8, addend: 0x0, symName: __ZN4core3ops8function6FnOnce9call_once17h42f2b72ce2c5235fE, symObjAddr: 0x1BBD4, symBinAddr: 0x10001BCC4, symSize: 0x8 }
  - { offset: 0xB6A00, size: 0x8, addend: 0x0, symName: __ZN4core3ops8function6FnOnce9call_once17h42f2b72ce2c5235fE, symObjAddr: 0x1BBD4, symBinAddr: 0x10001BCC4, symSize: 0x8 }
  - { offset: 0xB6BFD, size: 0x8, addend: 0x0, symName: __ZN5bytes5bytes13SHARED_VTABLE17h312ee02daaab5461E, symObjAddr: 0xC9918, symBinAddr: 0x1000D63D8, symSize: 0x0 }
  - { offset: 0xB6DB6, size: 0x8, addend: 0x0, symName: __ZN5bytes5bytes21PROMOTABLE_ODD_VTABLE17hd79c673f032cd3f4E, symObjAddr: 0xCDA28, symBinAddr: 0x1000DA4E8, symSize: 0x0 }
  - { offset: 0xB6DD2, size: 0x8, addend: 0x0, symName: __ZN5bytes5bytes22PROMOTABLE_EVEN_VTABLE17h84225efe3855fe70E, symObjAddr: 0xCDA00, symBinAddr: 0x1000DA4C0, symSize: 0x0 }
  - { offset: 0xB6E55, size: 0x8, addend: 0x0, symName: __ZN5bytes5bytes20promotable_odd_clone17h925460ff5bd67935E, symObjAddr: 0x1BA18, symBinAddr: 0x10001BB08, symSize: 0x24 }
  - { offset: 0xB6F24, size: 0x8, addend: 0x0, symName: __ZN5bytes5bytes21promotable_odd_to_vec17h6bcd05496a4c42d3E, symObjAddr: 0x1BA3C, symBinAddr: 0x10001BB2C, symSize: 0x1C }
  - { offset: 0xB6F74, size: 0x8, addend: 0x0, symName: __ZN5bytes5bytes21promotable_odd_to_mut17heebcf2d581c75182E, symObjAddr: 0x1BA58, symBinAddr: 0x10001BB48, symSize: 0x1C }
  - { offset: 0xB6FC4, size: 0x8, addend: 0x0, symName: __ZN5bytes5bytes20promotable_is_unique17hf9d195d5b0afaf70E, symObjAddr: 0x1BA74, symBinAddr: 0x10001BB64, symSize: 0x18 }
  - { offset: 0xB6FF4, size: 0x8, addend: 0x0, symName: __ZN5bytes5bytes20promotable_is_unique17hf9d195d5b0afaf70E, symObjAddr: 0x1BA74, symBinAddr: 0x10001BB64, symSize: 0x18 }
  - { offset: 0xB7016, size: 0x8, addend: 0x0, symName: __ZN5bytes5bytes20promotable_is_unique17hf9d195d5b0afaf70E, symObjAddr: 0x1BA74, symBinAddr: 0x10001BB64, symSize: 0x18 }
  - { offset: 0xB717E, size: 0x8, addend: 0x0, symName: __ZN5bytes5bytes19promotable_odd_drop17h9103c09296c57e4aE, symObjAddr: 0x1BA8C, symBinAddr: 0x10001BB7C, symSize: 0x10 }
  - { offset: 0xB7209, size: 0x8, addend: 0x0, symName: __ZN5bytes5bytes16free_boxed_slice17hfb590802a3aab2bcE, symObjAddr: 0x1BA9C, symBinAddr: 0x10001BB8C, symSize: 0x38 }
  - { offset: 0xB7255, size: 0x8, addend: 0x0, symName: __ZN5bytes5bytes16free_boxed_slice17hfb590802a3aab2bcE, symObjAddr: 0x1BA9C, symBinAddr: 0x10001BB8C, symSize: 0x38 }
  - { offset: 0xB7274, size: 0x8, addend: 0x0, symName: __ZN5bytes5bytes16free_boxed_slice17hfb590802a3aab2bcE, symObjAddr: 0x1BA9C, symBinAddr: 0x10001BB8C, symSize: 0x38 }
  - { offset: 0xB736F, size: 0x8, addend: 0x0, symName: __ZN5bytes5bytes14release_shared17h53e64fa93b955a54E, symObjAddr: 0x1BAD4, symBinAddr: 0x10001BBC4, symSize: 0x6C }
  - { offset: 0xB756C, size: 0x8, addend: 0x0, symName: __ZN5bytes5bytes17promotable_to_mut17h9006c91c48d6c66bE, symObjAddr: 0x1BB5C, symBinAddr: 0x10001BC4C, symSize: 0x78 }
  - { offset: 0xB78E7, size: 0x8, addend: 0x0, symName: __ZN5bytes5bytes18shared_to_mut_impl17hcb30d9b7f8f360e9E, symObjAddr: 0x1BC48, symBinAddr: 0x10001BD38, symSize: 0xA0 }
  - { offset: 0xB7CED, size: 0x8, addend: 0x0, symName: __ZN5bytes5bytes17promotable_to_vec17h0d21f44139975dbaE, symObjAddr: 0x1BDE8, symBinAddr: 0x10001BED8, symSize: 0x70 }
  - { offset: 0xB7EC6, size: 0x8, addend: 0x0, symName: __ZN5bytes5bytes18shared_to_vec_impl17h3e43c6482ad11423E, symObjAddr: 0x1BE58, symBinAddr: 0x10001BF48, symSize: 0x74 }
  - { offset: 0xB802F, size: 0x8, addend: 0x0, symName: __ZN5bytes5bytes17shallow_clone_vec17he883c71e81fb1497E, symObjAddr: 0x1BECC, symBinAddr: 0x1000A547C, symSize: 0x9C }
  - { offset: 0xB82B3, size: 0x8, addend: 0x0, symName: __ZN5bytes5bytes17shallow_clone_arc17he627882890f50f0cE, symObjAddr: 0x1BF68, symBinAddr: 0x10001BFBC, symSize: 0x30 }
  - { offset: 0xB836C, size: 0x8, addend: 0x0, symName: __ZN5bytes5bytes12shared_clone17hef93333e9d19796bE, symObjAddr: 0x1BFA4, symBinAddr: 0x10001BFEC, symSize: 0x14 }
  - { offset: 0xB841F, size: 0x8, addend: 0x0, symName: __ZN5bytes5bytes13shared_to_vec17hef72b0ed58b4d7fcE, symObjAddr: 0x1BFB8, symBinAddr: 0x10001C000, symSize: 0x14 }
  - { offset: 0xB84B4, size: 0x8, addend: 0x0, symName: __ZN5bytes5bytes13shared_to_mut17hea082da25b03c379E, symObjAddr: 0x1BFCC, symBinAddr: 0x10001C014, symSize: 0x14 }
  - { offset: 0xB854A, size: 0x8, addend: 0x0, symName: __ZN5bytes5bytes16shared_is_unique17hb1f7b170de631a6eE, symObjAddr: 0x1BFE0, symBinAddr: 0x10001C028, symSize: 0x10 }
  - { offset: 0xB857A, size: 0x8, addend: 0x0, symName: __ZN5bytes5bytes16shared_is_unique17hb1f7b170de631a6eE, symObjAddr: 0x1BFE0, symBinAddr: 0x10001C028, symSize: 0x10 }
  - { offset: 0xB859C, size: 0x8, addend: 0x0, symName: __ZN5bytes5bytes16shared_is_unique17hb1f7b170de631a6eE, symObjAddr: 0x1BFE0, symBinAddr: 0x10001C028, symSize: 0x10 }
  - { offset: 0xB8674, size: 0x8, addend: 0x0, symName: __ZN5bytes5bytes11shared_drop17h6d68dcf63a5b8899E, symObjAddr: 0x1BFF0, symBinAddr: 0x10001C038, symSize: 0x8 }
  - { offset: 0xB8766, size: 0x8, addend: 0x0, symName: __ZN5bytes5bytes21promotable_even_clone17ha7d1d3e79e1ad610E, symObjAddr: 0x1BFF8, symBinAddr: 0x10001C040, symSize: 0x24 }
  - { offset: 0xB88A3, size: 0x8, addend: 0x0, symName: __ZN5bytes5bytes22promotable_even_to_vec17h6f1fea5f5fcf07efE, symObjAddr: 0x1C01C, symBinAddr: 0x10001C064, symSize: 0x1C }
  - { offset: 0xB88F3, size: 0x8, addend: 0x0, symName: __ZN5bytes5bytes22promotable_even_to_mut17h6e8db26f8609867fE, symObjAddr: 0x1C038, symBinAddr: 0x10001C080, symSize: 0x1C }
  - { offset: 0xB8A79, size: 0x8, addend: 0x0, symName: __ZN5bytes5bytes20promotable_even_drop17h6f504258a1de153fE, symObjAddr: 0x1C054, symBinAddr: 0x10001C09C, symSize: 0x14 }
  - { offset: 0xB8B5A, size: 0x8, addend: 0x0, symName: __ZN5bytes5bytes12static_clone17h4e500debe602e88aE, symObjAddr: 0x1C21C, symBinAddr: 0x10001C264, symSize: 0x18 }
  - { offset: 0xB8B9C, size: 0x8, addend: 0x0, symName: __ZN5bytes5bytes12static_clone17h4e500debe602e88aE, symObjAddr: 0x1C21C, symBinAddr: 0x10001C264, symSize: 0x18 }
  - { offset: 0xB8BBE, size: 0x8, addend: 0x0, symName: __ZN5bytes5bytes12static_clone17h4e500debe602e88aE, symObjAddr: 0x1C21C, symBinAddr: 0x10001C264, symSize: 0x18 }
  - { offset: 0xB8BDC, size: 0x8, addend: 0x0, symName: __ZN5bytes5bytes13static_to_vec17haa43e02df8a1c751E, symObjAddr: 0x1C234, symBinAddr: 0x10001C27C, symSize: 0x8 }
  - { offset: 0xB8C3F, size: 0x8, addend: 0x0, symName: __ZN5bytes5bytes13static_to_mut17h6c77c0d10cd1a9e6E, symObjAddr: 0x1C23C, symBinAddr: 0x10001C284, symSize: 0x3C }
  - { offset: 0xB8EB2, size: 0x8, addend: 0x0, symName: '__ZN92_$LT$bytes..bytes..Bytes$u20$as$u20$core..convert..From$LT$alloc..vec..Vec$LT$u8$GT$$GT$$GT$4from17ha5cf000c40c525d1E', symObjAddr: 0x1C674, symBinAddr: 0x10001C634, symSize: 0xB0 }
  - { offset: 0xB9426, size: 0x8, addend: 0x0, symName: __ZN5bytes9bytes_mut13SHARED_VTABLE17hbfa9a0419f1bbeb4E, symObjAddr: 0xD2338, symBinAddr: 0x1000DEDD8, symSize: 0x0 }
  - { offset: 0xB9545, size: 0x8, addend: 0x0, symName: __ZN5bytes9bytes_mut14shared_v_clone17hc928f148a9eeb0b4E, symObjAddr: 0x1C068, symBinAddr: 0x10001C0B0, symSize: 0x3C }
  - { offset: 0xB9649, size: 0x8, addend: 0x0, symName: __ZN5bytes9bytes_mut15shared_v_to_vec17h11c5536d252260edE, symObjAddr: 0x1C0A4, symBinAddr: 0x10001C0EC, symSize: 0x84 }
  - { offset: 0xB9826, size: 0x8, addend: 0x0, symName: __ZN5bytes9bytes_mut15shared_v_to_mut17h108da04a019519e1E, symObjAddr: 0x1C128, symBinAddr: 0x10001C170, symSize: 0x78 }
  - { offset: 0xB9BFE, size: 0x8, addend: 0x0, symName: __ZN5bytes9bytes_mut18shared_v_is_unique17h7c05d646605e3b73E, symObjAddr: 0x1C1A0, symBinAddr: 0x10001C1E8, symSize: 0x10 }
  - { offset: 0xB9C2E, size: 0x8, addend: 0x0, symName: __ZN5bytes9bytes_mut18shared_v_is_unique17h7c05d646605e3b73E, symObjAddr: 0x1C1A0, symBinAddr: 0x10001C1E8, symSize: 0x10 }
  - { offset: 0xB9C50, size: 0x8, addend: 0x0, symName: __ZN5bytes9bytes_mut18shared_v_is_unique17h7c05d646605e3b73E, symObjAddr: 0x1C1A0, symBinAddr: 0x10001C1E8, symSize: 0x10 }
  - { offset: 0xB9D29, size: 0x8, addend: 0x0, symName: __ZN5bytes9bytes_mut13shared_v_drop17hb798e9677e5d9aeeE, symObjAddr: 0x1C1B0, symBinAddr: 0x10001C1F8, symSize: 0x8 }
  - { offset: 0xB9D96, size: 0x8, addend: 0x0, symName: __ZN5bytes9bytes_mut14release_shared17h42b8230c0dc7bf8eE, symObjAddr: 0x1C1B8, symBinAddr: 0x10001C200, symSize: 0x44 }
  - { offset: 0xB9F46, size: 0x8, addend: 0x0, symName: __ZN5bytes9bytes_mut16increment_shared17hc687fd06aaef79faE, symObjAddr: 0x1C1FC, symBinAddr: 0x10001C244, symSize: 0x20 }
  - { offset: 0xBA006, size: 0x8, addend: 0x0, symName: '__ZN68_$LT$bytes..bytes_mut..BytesMut$u20$as$u20$core..ops..drop..Drop$GT$4drop17h51770e5fa5893ae7E', symObjAddr: 0x1C888, symBinAddr: 0x10001C848, symSize: 0x24 }
  - { offset: 0xBA18E, size: 0x8, addend: 0x0, symName: '__ZN74_$LT$bytes..bytes_mut..BytesMut$u20$as$u20$bytes..buf..buf_mut..BufMut$GT$9put_slice17h1eba43d454606670E', symObjAddr: 0x1CAF4, symBinAddr: 0x10001CAB4, symSize: 0x68 }
  - { offset: 0xBA40E, size: 0x8, addend: 0x0, symName: __ZN5bytes5abort17hb3f0e96612125169E, symObjAddr: 0x1BF98, symBinAddr: 0x1000A5518, symSize: 0xC }
  - { offset: 0xBA428, size: 0x8, addend: 0x0, symName: __ZN5bytes13panic_advance17h4e7421410f3cb2b9E, symObjAddr: 0x1C3A4, symBinAddr: 0x1000A5524, symSize: 0x48 }
  - { offset: 0xBA4AF, size: 0x8, addend: 0x0, symName: __ZN5bytes18panic_does_not_fit17h3f76fa55279c49a3E, symObjAddr: 0x1C3EC, symBinAddr: 0x1000A556C, symSize: 0x40 }
  - { offset: 0xBA6FB, size: 0x8, addend: 0x0, symName: '__ZN5bytes3fmt5debug66_$LT$impl$u20$core..fmt..Debug$u20$for$u20$bytes..bytes..Bytes$GT$3fmt17haaacc33034cfdec4E', symObjAddr: 0x1C42C, symBinAddr: 0x10001C3EC, symSize: 0x1A8 }
  - { offset: 0xBAC5B, size: 0x8, addend: 0x0, symName: __ZN5alloc3vec9from_elem17h446dd794551d616cE, symObjAddr: 0x1C364, symBinAddr: 0x10001C3AC, symSize: 0x40 }
  - { offset: 0xBAE63, size: 0x8, addend: 0x0, symName: __ZN5alloc5alloc15exchange_malloc17hca9577c5b3236b08E.139, symObjAddr: 0x1BDC8, symBinAddr: 0x10001BEB8, symSize: 0x20 }
  - { offset: 0xBB36E, size: 0x8, addend: 0x0, symName: '__ZN5alloc5slice29_$LT$impl$u20$$u5b$T$u5d$$GT$6to_vec17h6d34825127335eaeE', symObjAddr: 0x1BCE8, symBinAddr: 0x10001BDD8, symSize: 0x2C }
  - { offset: 0xBBB0D, size: 0x8, addend: 0x0, symName: __ZN5bytes9bytes_mut8BytesMut17advance_unchecked17he1d90beafe7eff04E, symObjAddr: 0x1BBDC, symBinAddr: 0x10001BCCC, symSize: 0x6C }
  - { offset: 0xBBD05, size: 0x8, addend: 0x0, symName: __ZN5bytes9bytes_mut8BytesMut8from_vec17h70729b224f13d361E, symObjAddr: 0x1BD14, symBinAddr: 0x10001BE04, symSize: 0x38 }
  - { offset: 0xBBD24, size: 0x8, addend: 0x0, symName: __ZN5bytes9bytes_mut8BytesMut8from_vec17h70729b224f13d361E, symObjAddr: 0x1BD14, symBinAddr: 0x10001BE04, symSize: 0x38 }
  - { offset: 0xBBEC8, size: 0x8, addend: 0x0, symName: '__ZN5alloc7raw_vec20RawVecInner$LT$A$GT$16with_capacity_in17hb8d764f8c646d789E', symObjAddr: 0x1BD4C, symBinAddr: 0x10001BE3C, symSize: 0x2C }
  - { offset: 0xBBF1F, size: 0x8, addend: 0x0, symName: __ZN5bytes9bytes_mut8BytesMut17promote_to_shared17h00180273b00b603dE, symObjAddr: 0x1BD78, symBinAddr: 0x10001BE68, symSize: 0x50 }
  - { offset: 0xBC265, size: 0x8, addend: 0x0, symName: __ZN4core3fmt9Formatter9write_fmt17h8804b3e4d773731bE.153, symObjAddr: 0x1C278, symBinAddr: 0x10001C2C0, symSize: 0x10 }
  - { offset: 0xBC293, size: 0x8, addend: 0x0, symName: __ZN4core3fmt9Formatter9write_fmt17h8804b3e4d773731bE.153, symObjAddr: 0x1C278, symBinAddr: 0x10001C2C0, symSize: 0x10 }
  - { offset: 0xBC2B1, size: 0x8, addend: 0x0, symName: __ZN4core3fmt9Formatter9write_fmt17h8804b3e4d773731bE.153, symObjAddr: 0x1C278, symBinAddr: 0x10001C2C0, symSize: 0x10 }
  - { offset: 0xBC2CD, size: 0x8, addend: 0x0, symName: __ZN4core3fmt9Formatter9write_fmt17h8804b3e4d773731bE.153, symObjAddr: 0x1C278, symBinAddr: 0x10001C2C0, symSize: 0x10 }
  - { offset: 0xBC3F5, size: 0x8, addend: 0x0, symName: '__ZN5alloc3vec16Vec$LT$T$C$A$GT$16into_boxed_slice17h1923e3bc187a6081E', symObjAddr: 0x1C288, symBinAddr: 0x10001C2D0, symSize: 0x48 }
  - { offset: 0xBC5C3, size: 0x8, addend: 0x0, symName: '__ZN5alloc7raw_vec20RawVecInner$LT$A$GT$16shrink_unchecked17hee0b58e3637432cfE', symObjAddr: 0x1C2D0, symBinAddr: 0x10001C318, symSize: 0x94 }
  - { offset: 0xBCA17, size: 0x8, addend: 0x0, symName: __ZN5bytes5bytes5Bytes12try_into_mut17h0397c3fb5efcb7d4E, symObjAddr: 0x1C5D4, symBinAddr: 0x10001C594, symSize: 0x68 }
  - { offset: 0xBCA7F, size: 0x8, addend: 0x0, symName: __ZN5bytes5bytes5Bytes15copy_from_slice17h2be121c74b8a698dE, symObjAddr: 0x1C63C, symBinAddr: 0x10001C5FC, symSize: 0x38 }
  - { offset: 0xBCBC2, size: 0x8, addend: 0x0, symName: __ZN5bytes5bytes5Bytes8split_to17h5c75cfa05cefc190E, symObjAddr: 0x1C724, symBinAddr: 0x10001C6E4, symSize: 0xB0 }
  - { offset: 0xBCD82, size: 0x8, addend: 0x0, symName: __ZN5bytes5bytes5Bytes9split_off17h5ef25db98ae9964eE, symObjAddr: 0x1C7D4, symBinAddr: 0x10001C794, symSize: 0xB4 }
  - { offset: 0xBD095, size: 0x8, addend: 0x0, symName: __ZN5bytes9bytes_mut8BytesMut13reserve_inner17h51eb27d494f4d504E, symObjAddr: 0x1C8AC, symBinAddr: 0x10001C86C, symSize: 0x1A4 }
  - { offset: 0xBD9C2, size: 0x8, addend: 0x0, symName: __ZN5bytes9bytes_mut8BytesMut8split_to17h123776f5dbe5368aE, symObjAddr: 0x1CA50, symBinAddr: 0x10001CA10, symSize: 0x6C }
  - { offset: 0xBDA94, size: 0x8, addend: 0x0, symName: __ZN5bytes9bytes_mut8BytesMut13shallow_clone17h8550372b73a7ce0aE, symObjAddr: 0x1CABC, symBinAddr: 0x10001CA7C, symSize: 0x38 }
  - { offset: 0xBDC7E, size: 0x8, addend: 0x0, symName: _OUTLINED_FUNCTION_17, symObjAddr: 0xA2D08, symBinAddr: 0x10009D3F0, symSize: 0x10 }
  - { offset: 0xBDC96, size: 0x8, addend: 0x0, symName: _OUTLINED_FUNCTION_28, symObjAddr: 0xA2E1C, symBinAddr: 0x10009D504, symSize: 0x14 }
  - { offset: 0xBDCAE, size: 0x8, addend: 0x0, symName: _OUTLINED_FUNCTION_65, symObjAddr: 0xA316C, symBinAddr: 0x10009D854, symSize: 0xC }
  - { offset: 0xBDCC6, size: 0x8, addend: 0x0, symName: _OUTLINED_FUNCTION_81, symObjAddr: 0xA333C, symBinAddr: 0x10009DA24, symSize: 0x14 }
  - { offset: 0xBDCDE, size: 0x8, addend: 0x0, symName: _OUTLINED_FUNCTION_127, symObjAddr: 0xA3758, symBinAddr: 0x10009DE40, symSize: 0xC }
  - { offset: 0xBDCF6, size: 0x8, addend: 0x0, symName: _OUTLINED_FUNCTION_131, symObjAddr: 0xA378C, symBinAddr: 0x10009DE74, symSize: 0x10 }
  - { offset: 0xBDD0E, size: 0x8, addend: 0x0, symName: _OUTLINED_FUNCTION_267, symObjAddr: 0xA4168, symBinAddr: 0x10009E850, symSize: 0x8 }
  - { offset: 0xBDD26, size: 0x8, addend: 0x0, symName: _OUTLINED_FUNCTION_270, symObjAddr: 0xA4188, symBinAddr: 0x10009E870, symSize: 0x20 }
  - { offset: 0xBDD3E, size: 0x8, addend: 0x0, symName: _OUTLINED_FUNCTION_398, symObjAddr: 0xA499C, symBinAddr: 0x10009F084, symSize: 0x14 }
  - { offset: 0xBDD56, size: 0x8, addend: 0x0, symName: _OUTLINED_FUNCTION_408, symObjAddr: 0xA4A3C, symBinAddr: 0x10009F124, symSize: 0x8 }
  - { offset: 0xBDD6E, size: 0x8, addend: 0x0, symName: _OUTLINED_FUNCTION_424, symObjAddr: 0xA4AF8, symBinAddr: 0x10009F1E0, symSize: 0x8 }
  - { offset: 0xBDD86, size: 0x8, addend: 0x0, symName: _OUTLINED_FUNCTION_532, symObjAddr: 0xA511C, symBinAddr: 0x10009F804, symSize: 0xC }
  - { offset: 0xBDD9E, size: 0x8, addend: 0x0, symName: _OUTLINED_FUNCTION_554, symObjAddr: 0xA526C, symBinAddr: 0x10009F954, symSize: 0xC }
  - { offset: 0xBDDB6, size: 0x8, addend: 0x0, symName: _OUTLINED_FUNCTION_582, symObjAddr: 0xA5460, symBinAddr: 0x10009FB48, symSize: 0xC }
  - { offset: 0xBDDCE, size: 0x8, addend: 0x0, symName: _OUTLINED_FUNCTION_641, symObjAddr: 0xA574C, symBinAddr: 0x10009FE34, symSize: 0x8 }
  - { offset: 0xBDDE6, size: 0x8, addend: 0x0, symName: _OUTLINED_FUNCTION_652, symObjAddr: 0xA57E4, symBinAddr: 0x10009FECC, symSize: 0xC }
  - { offset: 0xBDDFE, size: 0x8, addend: 0x0, symName: _OUTLINED_FUNCTION_654, symObjAddr: 0xA57F8, symBinAddr: 0x10009FEE0, symSize: 0xC }
  - { offset: 0xBDE16, size: 0x8, addend: 0x0, symName: _OUTLINED_FUNCTION_700, symObjAddr: 0xA5B08, symBinAddr: 0x1000A01F0, symSize: 0x1C }
  - { offset: 0xBDE2E, size: 0x8, addend: 0x0, symName: _OUTLINED_FUNCTION_874, symObjAddr: 0xA65D8, symBinAddr: 0x1000A0CC0, symSize: 0x1C }
  - { offset: 0xBDE46, size: 0x8, addend: 0x0, symName: _OUTLINED_FUNCTION_946, symObjAddr: 0xA69E4, symBinAddr: 0x1000A10CC, symSize: 0xC }
  - { offset: 0xBDE5E, size: 0x8, addend: 0x0, symName: _OUTLINED_FUNCTION_1259, symObjAddr: 0xA7BD0, symBinAddr: 0x1000A22B8, symSize: 0x10 }
  - { offset: 0xBDE76, size: 0x8, addend: 0x0, symName: _OUTLINED_FUNCTION_1282, symObjAddr: 0xA7CE8, symBinAddr: 0x1000A23D0, symSize: 0xC }
  - { offset: 0xBDE8E, size: 0x8, addend: 0x0, symName: _OUTLINED_FUNCTION_1319, symObjAddr: 0xA7F00, symBinAddr: 0x1000A25E8, symSize: 0x10 }
  - { offset: 0xBDEA6, size: 0x8, addend: 0x0, symName: _OUTLINED_FUNCTION_1347, symObjAddr: 0xA80C4, symBinAddr: 0x1000A27AC, symSize: 0x14 }
  - { offset: 0xBDEBE, size: 0x8, addend: 0x0, symName: _OUTLINED_FUNCTION_1582, symObjAddr: 0xA8DF8, symBinAddr: 0x1000A34E0, symSize: 0x8 }
  - { offset: 0xBDED6, size: 0x8, addend: 0x0, symName: _OUTLINED_FUNCTION_1804, symObjAddr: 0xA9718, symBinAddr: 0x1000A3E00, symSize: 0xC }
  - { offset: 0xBDEEE, size: 0x8, addend: 0x0, symName: _OUTLINED_FUNCTION_1806, symObjAddr: 0xA9730, symBinAddr: 0x1000A3E18, symSize: 0x18 }
  - { offset: 0xBDF06, size: 0x8, addend: 0x0, symName: _OUTLINED_FUNCTION_1899, symObjAddr: 0xA9D30, symBinAddr: 0x1000A4418, symSize: 0x14 }
  - { offset: 0xBDF1E, size: 0x8, addend: 0x0, symName: _OUTLINED_FUNCTION_1909, symObjAddr: 0xA9DD8, symBinAddr: 0x1000A44C0, symSize: 0x14 }
  - { offset: 0x23795E, size: 0x8, addend: 0x0, symName: '__ZN42_$LT$$RF$T$u20$as$u20$core..fmt..Debug$GT$3fmt17hf4e8be02ddce97bbE', symObjAddr: 0x558D4, symBinAddr: 0x10005444C, symSize: 0x6C }
  - { offset: 0x237AD7, size: 0x8, addend: 0x0, symName: '__ZN42_$LT$$RF$T$u20$as$u20$core..fmt..Debug$GT$3fmt17hf4e8be02ddce97bbE', symObjAddr: 0x558D4, symBinAddr: 0x10005444C, symSize: 0x6C }
  - { offset: 0x237B43, size: 0x8, addend: 0x0, symName: '__ZN42_$LT$$RF$T$u20$as$u20$core..fmt..Debug$GT$3fmt17h8faffe5763627b56E', symObjAddr: 0x55940, symBinAddr: 0x1000544B8, symSize: 0x78 }
  - { offset: 0x222ECA, size: 0x8, addend: 0x0, symName: __MergedGlobals.3702, symObjAddr: 0xF81678, symBinAddr: 0x1000E55C8, symSize: 0x0 }
  - { offset: 0x222EFB, size: 0x8, addend: 0x0, symName: '__ZN16parking_lot_core11parking_lot16with_thread_data11THREAD_DATA29_$u7b$$u7b$constant$u7d$$u7d$28_$u7b$$u7b$closure$u7d$$u7d$23__RUST_STD_INTERNAL_VAL17had52b4102387731eE', symObjAddr: 0xD5C60, symBinAddr: 0x1000E5228, symSize: 0x0 }
  - { offset: 0x222FA6, size: 0x8, addend: 0x0, symName: __MergedGlobals.3702, symObjAddr: 0xF81678, symBinAddr: 0x1000E55C8, symSize: 0x0 }
  - { offset: 0x2231D1, size: 0x8, addend: 0x0, symName: __ZN16parking_lot_core11parking_lot16create_hashtable17hbf553be65818d037E, symObjAddr: 0x4EDC4, symBinAddr: 0x1000A6654, symSize: 0x58 }
  - { offset: 0x223691, size: 0x8, addend: 0x0, symName: '__ZN16parking_lot_core9word_lock16with_thread_data11THREAD_DATA29_$u7b$$u7b$constant$u7d$$u7d$28_$u7b$$u7b$closure$u7d$$u7d$23__RUST_STD_INTERNAL_VAL17h90dd59d9e13ab082E', symObjAddr: 0xD5C78, symBinAddr: 0x1000E5240, symSize: 0x0 }
  - { offset: 0x224C4C, size: 0x8, addend: 0x0, symName: '__ZN4core3ptr88drop_in_place$LT$core..option..Option$LT$parking_lot_core..word_lock..ThreadData$GT$$GT$17h504f3abffd38b729E', symObjAddr: 0x4F26C, symBinAddr: 0x10004DE38, symSize: 0x10 }
  - { offset: 0x224C9B, size: 0x8, addend: 0x0, symName: '__ZN4core3ptr60drop_in_place$LT$parking_lot_core..word_lock..ThreadData$GT$17hf767cfd66c34912fE', symObjAddr: 0x4F27C, symBinAddr: 0x10004DE48, symSize: 0x24 }
  - { offset: 0x224D09, size: 0x8, addend: 0x0, symName: '__ZN4core3ptr81drop_in_place$LT$core..result..Result$LT$$LP$$RP$$C$std..io..error..Error$GT$$GT$17h1656ed38093fd404E', symObjAddr: 0x4F2BC, symBinAddr: 0x10004DE88, symSize: 0xC }
  - { offset: 0x224DD0, size: 0x8, addend: 0x0, symName: '__ZN4core3ptr42drop_in_place$LT$std..io..error..Error$GT$17h6b0bad2b6ef80972E', symObjAddr: 0x4F2C8, symBinAddr: 0x10004DE94, symSize: 0x50 }
  - { offset: 0x224E10, size: 0x8, addend: 0x0, symName: '__ZN4core3ptr42drop_in_place$LT$std..io..error..Error$GT$17h6b0bad2b6ef80972E', symObjAddr: 0x4F2C8, symBinAddr: 0x10004DE94, symSize: 0x50 }
  - { offset: 0x224E27, size: 0x8, addend: 0x0, symName: '__ZN4core3ptr42drop_in_place$LT$std..io..error..Error$GT$17h6b0bad2b6ef80972E', symObjAddr: 0x4F2C8, symBinAddr: 0x10004DE94, symSize: 0x50 }
  - { offset: 0x225006, size: 0x8, addend: 0x0, symName: '__ZN4core3ptr93drop_in_place$LT$std..io..default_write_fmt..Adapter$LT$std..sys..stdio..unix..Stderr$GT$$GT$17h793fd820956607b2E', symObjAddr: 0x4F328, symBinAddr: 0x10004DEF4, symSize: 0x8 }
  - { offset: 0x225A08, size: 0x8, addend: 0x0, symName: __ZN4core3fmt5Write10write_char17h2a8b3e573702847eE, symObjAddr: 0x4F368, symBinAddr: 0x10004DF34, symSize: 0x60 }
  - { offset: 0x225B8B, size: 0x8, addend: 0x0, symName: __ZN4core3fmt5Write9write_fmt17h6afe9fd6a9c12d2aE, symObjAddr: 0x4F3C8, symBinAddr: 0x10004DF94, symSize: 0x18 }
  - { offset: 0x225FA3, size: 0x8, addend: 0x0, symName: __ZN3std3sys12thread_local6native4lazy7destroy17haa21ffa4dc457a58E, symObjAddr: 0x4F2A0, symBinAddr: 0x10004DE6C, symSize: 0x1C }
  - { offset: 0x225FCE, size: 0x8, addend: 0x0, symName: __ZN3std3sys12thread_local6native4lazy7destroy17haa21ffa4dc457a58E, symObjAddr: 0x4F2A0, symBinAddr: 0x10004DE6C, symSize: 0x1C }
  - { offset: 0x225FE2, size: 0x8, addend: 0x0, symName: __ZN3std3sys12thread_local6native4lazy7destroy17haa21ffa4dc457a58E, symObjAddr: 0x4F2A0, symBinAddr: 0x10004DE6C, symSize: 0x1C }
  - { offset: 0x225FF2, size: 0x8, addend: 0x0, symName: __ZN3std3sys12thread_local6native4lazy7destroy17haa21ffa4dc457a58E, symObjAddr: 0x4F2A0, symBinAddr: 0x10004DE6C, symSize: 0x1C }
  - { offset: 0x22600E, size: 0x8, addend: 0x0, symName: __ZN3std3sys12thread_local6native4lazy7destroy17haa21ffa4dc457a58E, symObjAddr: 0x4F2A0, symBinAddr: 0x10004DE6C, symSize: 0x1C }
  - { offset: 0x226032, size: 0x8, addend: 0x0, symName: __ZN3std3sys12thread_local6native4lazy7destroy17haa21ffa4dc457a58E, symObjAddr: 0x4F2A0, symBinAddr: 0x10004DE6C, symSize: 0x1C }
  - { offset: 0x22613D, size: 0x8, addend: 0x0, symName: '__ZN81_$LT$std..io..default_write_fmt..Adapter$LT$T$GT$$u20$as$u20$core..fmt..Write$GT$9write_str17h8741688882b117e7E', symObjAddr: 0x4F330, symBinAddr: 0x10004DEFC, symSize: 0x38 }
  - { offset: 0x2262B2, size: 0x8, addend: 0x0, symName: __ZN3std2io5error14repr_bitpacked14kind_from_prim17h59038ef252e51c54E.1001, symObjAddr: 0x4F318, symBinAddr: 0x10004DEE4, symSize: 0x10 }
  - { offset: 0x22656E, size: 0x8, addend: 0x0, symName: __ZN3std2io5Write9write_all17h5e58928de84c81e0E, symObjAddr: 0x4F3E0, symBinAddr: 0x10004DFAC, symSize: 0xCC }
  - { offset: 0x226727, size: 0x8, addend: 0x0, symName: __ZN3std2io5Write9write_fmt17h4124a347d2ad3cd4E, symObjAddr: 0x4F4AC, symBinAddr: 0x10004E078, symSize: 0x5C }
  - { offset: 0x226C7B, size: 0x8, addend: 0x0, symName: __ZN16parking_lot_core11parking_lot10ThreadData3new17hb9a2e2608f08a135E, symObjAddr: 0x4EBF8, symBinAddr: 0x10004DB10, symSize: 0x1CC }
  - { offset: 0x227FB1, size: 0x8, addend: 0x0, symName: __ZN16parking_lot_core9word_lock8WordLock9lock_slow17h6409ab6382eeaa96E, symObjAddr: 0x4EE1C, symBinAddr: 0x1000A66AC, symSize: 0x218 }
  - { offset: 0x228CA4, size: 0x8, addend: 0x0, symName: __ZN16parking_lot_core11parking_lot9HashTable3new17h8fa8d2e26fcaaf6cE, symObjAddr: 0x4F034, symBinAddr: 0x10004DCDC, symSize: 0x130 }
  - { offset: 0x2292A3, size: 0x8, addend: 0x0, symName: __ZN16parking_lot_core9word_lock8WordLock11unlock_slow17h5b60692f32dd9c02E, symObjAddr: 0x4F164, symBinAddr: 0x1000A68C4, symSize: 0xDC }
  - { offset: 0x2297DE, size: 0x8, addend: 0x0, symName: '__ZN5alloc7raw_vec19RawVec$LT$T$C$A$GT$8grow_one17h0712bc5daef4ac0aE', symObjAddr: 0x4F240, symBinAddr: 0x10004DE0C, symSize: 0x2C }
  - { offset: 0x229B84, size: 0x8, addend: 0x0, symName: _OUTLINED_FUNCTION_562, symObjAddr: 0xA52E4, symBinAddr: 0x10009F9CC, symSize: 0x10 }
  - { offset: 0x229B9C, size: 0x8, addend: 0x0, symName: _OUTLINED_FUNCTION_926, symObjAddr: 0xA6894, symBinAddr: 0x1000A0F7C, symSize: 0x24 }
  - { offset: 0x229BB4, size: 0x8, addend: 0x0, symName: _OUTLINED_FUNCTION_1096, symObjAddr: 0xA7334, symBinAddr: 0x1000A1A1C, symSize: 0x1C }
  - { offset: 0x229BCC, size: 0x8, addend: 0x0, symName: _OUTLINED_FUNCTION_1252, symObjAddr: 0xA7B74, symBinAddr: 0x1000A225C, symSize: 0x1C }
  - { offset: 0x229BE4, size: 0x8, addend: 0x0, symName: _OUTLINED_FUNCTION_1366, symObjAddr: 0xA8258, symBinAddr: 0x1000A2940, symSize: 0x18 }
  - { offset: 0x229BFC, size: 0x8, addend: 0x0, symName: _OUTLINED_FUNCTION_1595, symObjAddr: 0xA8E78, symBinAddr: 0x1000A3560, symSize: 0x8 }
  - { offset: 0x229C14, size: 0x8, addend: 0x0, symName: _OUTLINED_FUNCTION_1918, symObjAddr: 0xA9E6C, symBinAddr: 0x1000A4554, symSize: 0x14 }
  - { offset: 0x9E052, size: 0x8, addend: 0x0, symName: '__ZN68_$LT$anstyle..color..DisplayBuffer$u20$as$u20$core..fmt..Display$GT$3fmt17h30abcc29b0644084E', symObjAddr: 0x19334, symBinAddr: 0x100019464, symSize: 0x44 }
  - { offset: 0x9E127, size: 0x8, addend: 0x0, symName: '__ZN67_$LT$anstyle..style..StyleDisplay$u20$as$u20$core..fmt..Display$GT$3fmt17h89b8dc678c62433bE', symObjAddr: 0x18F58, symBinAddr: 0x100019088, symSize: 0xC }
  - { offset: 0x9EA7A, size: 0x8, addend: 0x0, symName: __ZN7anstyle5style5Style6fmt_to17he179546de09d4e31E, symObjAddr: 0x18F64, symBinAddr: 0x100019094, symSize: 0x2AC }
  - { offset: 0x9ECD7, size: 0x8, addend: 0x0, symName: __ZN7anstyle5color13DisplayBuffer9write_str17hb7f472885933c413E, symObjAddr: 0x19210, symBinAddr: 0x100019340, symSize: 0x5C }
  - { offset: 0x9ED7A, size: 0x8, addend: 0x0, symName: __ZN7anstyle5color13DisplayBuffer10write_code17h7345f7f382b6ec96E, symObjAddr: 0x1926C, symBinAddr: 0x10001939C, symSize: 0xC8 }
  - { offset: 0x9EE5C, size: 0x8, addend: 0x0, symName: __ZN7anstyle5color12Ansi256Color19as_underline_buffer17hf99bf204d62a5caeE, symObjAddr: 0x19378, symBinAddr: 0x1000194A8, symSize: 0x48 }
  - { offset: 0x9EE7D, size: 0x8, addend: 0x0, symName: _OUTLINED_FUNCTION_104, symObjAddr: 0xA34D8, symBinAddr: 0x10009DBC0, symSize: 0x10 }
  - { offset: 0x9EE95, size: 0x8, addend: 0x0, symName: _OUTLINED_FUNCTION_151, symObjAddr: 0xA38E8, symBinAddr: 0x10009DFD0, symSize: 0x14 }
  - { offset: 0x9EEAD, size: 0x8, addend: 0x0, symName: _OUTLINED_FUNCTION_269, symObjAddr: 0xA4178, symBinAddr: 0x10009E860, symSize: 0x10 }
  - { offset: 0x9EEC5, size: 0x8, addend: 0x0, symName: _OUTLINED_FUNCTION_509, symObjAddr: 0xA4FD4, symBinAddr: 0x10009F6BC, symSize: 0xC }
  - { offset: 0x9EEDD, size: 0x8, addend: 0x0, symName: _OUTLINED_FUNCTION_534, symObjAddr: 0xA5134, symBinAddr: 0x10009F81C, symSize: 0xC }
  - { offset: 0x9EEF5, size: 0x8, addend: 0x0, symName: _OUTLINED_FUNCTION_537, symObjAddr: 0xA5150, symBinAddr: 0x10009F838, symSize: 0x8 }
  - { offset: 0x9EF0D, size: 0x8, addend: 0x0, symName: _OUTLINED_FUNCTION_621, symObjAddr: 0xA5644, symBinAddr: 0x10009FD2C, symSize: 0xC }
  - { offset: 0x9EF25, size: 0x8, addend: 0x0, symName: _OUTLINED_FUNCTION_629, symObjAddr: 0xA56C4, symBinAddr: 0x10009FDAC, symSize: 0x8 }
  - { offset: 0x9EF3D, size: 0x8, addend: 0x0, symName: _OUTLINED_FUNCTION_677, symObjAddr: 0xA59A0, symBinAddr: 0x1000A0088, symSize: 0xC }
  - { offset: 0x9EF55, size: 0x8, addend: 0x0, symName: _OUTLINED_FUNCTION_1731, symObjAddr: 0xA9414, symBinAddr: 0x1000A3AFC, symSize: 0xC }
  - { offset: 0x9EF6D, size: 0x8, addend: 0x0, symName: _OUTLINED_FUNCTION_1809, symObjAddr: 0xA9770, symBinAddr: 0x1000A3E58, symSize: 0xC }
  - { offset: 0x9EF85, size: 0x8, addend: 0x0, symName: _OUTLINED_FUNCTION_2012, symObjAddr: 0xAA4D8, symBinAddr: 0x1000A4BC0, symSize: 0x14 }
  - { offset: 0x200431, size: 0x8, addend: 0x0, symName: '__ZN92_$LT$hyper_util..client..legacy..connect..http..ConnectError$u20$as$u20$core..fmt..Debug$GT$3fmt17h6c519e3e43f74041E', symObjAddr: 0x4DACC, symBinAddr: 0x10004CC30, symSize: 0x7C }
  - { offset: 0x20050F, size: 0x8, addend: 0x0, symName: '__ZN94_$LT$hyper_util..client..legacy..connect..http..ConnectError$u20$as$u20$core..error..Error$GT$6source17h18d1c00589ab444eE', symObjAddr: 0x4DB48, symBinAddr: 0x10004CCAC, symSize: 0x8 }
  - { offset: 0x20052D, size: 0x8, addend: 0x0, symName: '__ZN94_$LT$hyper_util..client..legacy..connect..http..ConnectError$u20$as$u20$core..error..Error$GT$6source17h18d1c00589ab444eE', symObjAddr: 0x4DB48, symBinAddr: 0x10004CCAC, symSize: 0x8 }
  - { offset: 0x20056F, size: 0x8, addend: 0x0, symName: '__ZN94_$LT$hyper_util..client..legacy..connect..http..ConnectError$u20$as$u20$core..fmt..Display$GT$3fmt17hefe182889b7b5192E', symObjAddr: 0x4DB50, symBinAddr: 0x10004CCB4, symSize: 0x8 }
  - { offset: 0x200E13, size: 0x8, addend: 0x0, symName: '__ZN77_$LT$hyper_util..rt..tokio..TokioTimer$u20$as$u20$hyper..rt..timer..Timer$GT$11sleep_until17hda794ac26d04259dE', symObjAddr: 0x4D984, symBinAddr: 0x10004CAE8, symSize: 0x44 }
  - { offset: 0x200EAA, size: 0x8, addend: 0x0, symName: '__ZN77_$LT$hyper_util..rt..tokio..TokioTimer$u20$as$u20$hyper..rt..timer..Timer$GT$3now17hb6b70da33c9c6e62E', symObjAddr: 0x4DA14, symBinAddr: 0x10004CB78, symSize: 0x4 }
  - { offset: 0x200ED8, size: 0x8, addend: 0x0, symName: '__ZN77_$LT$hyper_util..rt..tokio..TokioTimer$u20$as$u20$hyper..rt..timer..Timer$GT$3now17hb6b70da33c9c6e62E', symObjAddr: 0x4DA14, symBinAddr: 0x10004CB78, symSize: 0x4 }
  - { offset: 0x200EED, size: 0x8, addend: 0x0, symName: '__ZN77_$LT$hyper_util..rt..tokio..TokioTimer$u20$as$u20$hyper..rt..timer..Timer$GT$3now17hb6b70da33c9c6e62E', symObjAddr: 0x4DA14, symBinAddr: 0x10004CB78, symSize: 0x4 }
  - { offset: 0x200F01, size: 0x8, addend: 0x0, symName: '__ZN77_$LT$hyper_util..rt..tokio..TokioTimer$u20$as$u20$hyper..rt..timer..Timer$GT$3now17hb6b70da33c9c6e62E', symObjAddr: 0x4DA14, symBinAddr: 0x10004CB78, symSize: 0x4 }
  - { offset: 0x200F15, size: 0x8, addend: 0x0, symName: '__ZN77_$LT$hyper_util..rt..tokio..TokioTimer$u20$as$u20$hyper..rt..timer..Timer$GT$3now17hb6b70da33c9c6e62E', symObjAddr: 0x4DA14, symBinAddr: 0x10004CB78, symSize: 0x4 }
  - { offset: 0x200F2B, size: 0x8, addend: 0x0, symName: '__ZN77_$LT$hyper_util..rt..tokio..TokioTimer$u20$as$u20$hyper..rt..timer..Timer$GT$5reset17ha171a3edb61b3918E', symObjAddr: 0x4DA18, symBinAddr: 0x10004CB7C, symSize: 0x70 }
  - { offset: 0x201140, size: 0x8, addend: 0x0, symName: '__ZN77_$LT$hyper_util..rt..tokio..TokioTimer$u20$as$u20$hyper..rt..timer..Timer$GT$5sleep17hb0063f426ca5220dE', symObjAddr: 0x4DA88, symBinAddr: 0x10004CBEC, symSize: 0x44 }
  - { offset: 0x2011BE, size: 0x8, addend: 0x0, symName: '__ZN82_$LT$hyper_util..rt..tokio..TokioSleep$u20$as$u20$core..future..future..Future$GT$4poll17hcbd0729f0296d4c3E', symObjAddr: 0x4DA0C, symBinAddr: 0x10004CB70, symSize: 0x8 }
  - { offset: 0x202AF8, size: 0x8, addend: 0x0, symName: '__ZN70_$LT$core..option..Option$LT$T$GT$$u20$as$u20$core..cmp..PartialEq$GT$2eq17hfddd304f054e8047E', symObjAddr: 0x4D0F4, symBinAddr: 0x10004C258, symSize: 0x9C }
  - { offset: 0x203CF9, size: 0x8, addend: 0x0, symName: '__ZN4core3ptr59drop_in_place$LT$tokio..runtime..task..error..JoinError$GT$17h31cb03758fd16b7cE', symObjAddr: 0x4CE3C, symBinAddr: 0x10004BFA0, symSize: 0x40 }
  - { offset: 0x203E6A, size: 0x8, addend: 0x0, symName: '__ZN4core3ptr225drop_in_place$LT$core..task..poll..Poll$LT$core..result..Result$LT$core..result..Result$LT$hyper_util..client..legacy..connect..dns..SocketAddrs$C$std..io..error..Error$GT$$C$tokio..runtime..task..error..JoinError$GT$$GT$$GT$17h2e4123bd720a1a6cE', symObjAddr: 0x4CEAC, symBinAddr: 0x10004C010, symSize: 0x14 }
  - { offset: 0x203EF5, size: 0x8, addend: 0x0, symName: '__ZN4core3ptr195drop_in_place$LT$core..result..Result$LT$core..result..Result$LT$hyper_util..client..legacy..connect..dns..SocketAddrs$C$std..io..error..Error$GT$$C$tokio..runtime..task..error..JoinError$GT$$GT$17h608810a593c13966E', symObjAddr: 0x4CEC0, symBinAddr: 0x10004C024, symSize: 0x30 }
  - { offset: 0x203FCC, size: 0x8, addend: 0x0, symName: '__ZN4core3ptr42drop_in_place$LT$std..io..error..Error$GT$17hd8375665ad3ff5b3E', symObjAddr: 0x4CEF0, symBinAddr: 0x10004C054, symSize: 0x30 }
  - { offset: 0x20400C, size: 0x8, addend: 0x0, symName: '__ZN4core3ptr42drop_in_place$LT$std..io..error..Error$GT$17hd8375665ad3ff5b3E', symObjAddr: 0x4CEF0, symBinAddr: 0x10004C054, symSize: 0x30 }
  - { offset: 0x204023, size: 0x8, addend: 0x0, symName: '__ZN4core3ptr42drop_in_place$LT$std..io..error..Error$GT$17hd8375665ad3ff5b3E', symObjAddr: 0x4CEF0, symBinAddr: 0x10004C054, symSize: 0x30 }
  - { offset: 0x204153, size: 0x8, addend: 0x0, symName: '__ZN4core3ptr205drop_in_place$LT$$LT$hyper_util..client..legacy..connect..dns..GaiResolver$u20$as$u20$tower_service..Service$LT$hyper_util..client..legacy..connect..dns..Name$GT$$GT$..call..$u7b$$u7b$closure$u7d$$u7d$$GT$17hb7b9c92986adb076E', symObjAddr: 0x4CF20, symBinAddr: 0x10004C084, symSize: 0xC }
  - { offset: 0x204179, size: 0x8, addend: 0x0, symName: '__ZN4core3ptr205drop_in_place$LT$$LT$hyper_util..client..legacy..connect..dns..GaiResolver$u20$as$u20$tower_service..Service$LT$hyper_util..client..legacy..connect..dns..Name$GT$$GT$..call..$u7b$$u7b$closure$u7d$$u7d$$GT$17hb7b9c92986adb076E', symObjAddr: 0x4CF20, symBinAddr: 0x10004C084, symSize: 0xC }
  - { offset: 0x20418E, size: 0x8, addend: 0x0, symName: '__ZN4core3ptr205drop_in_place$LT$$LT$hyper_util..client..legacy..connect..dns..GaiResolver$u20$as$u20$tower_service..Service$LT$hyper_util..client..legacy..connect..dns..Name$GT$$GT$..call..$u7b$$u7b$closure$u7d$$u7d$$GT$17hb7b9c92986adb076E', symObjAddr: 0x4CF20, symBinAddr: 0x10004C084, symSize: 0xC }
  - { offset: 0x20419F, size: 0x8, addend: 0x0, symName: '__ZN4core3ptr205drop_in_place$LT$$LT$hyper_util..client..legacy..connect..dns..GaiResolver$u20$as$u20$tower_service..Service$LT$hyper_util..client..legacy..connect..dns..Name$GT$$GT$..call..$u7b$$u7b$closure$u7d$$u7d$$GT$17hb7b9c92986adb076E', symObjAddr: 0x4CF20, symBinAddr: 0x10004C084, symSize: 0xC }
  - { offset: 0x2041B9, size: 0x8, addend: 0x0, symName: '__ZN4core3ptr205drop_in_place$LT$$LT$hyper_util..client..legacy..connect..dns..GaiResolver$u20$as$u20$tower_service..Service$LT$hyper_util..client..legacy..connect..dns..Name$GT$$GT$..call..$u7b$$u7b$closure$u7d$$u7d$$GT$17hb7b9c92986adb076E', symObjAddr: 0x4CF20, symBinAddr: 0x10004C084, symSize: 0xC }
  - { offset: 0x2043CB, size: 0x8, addend: 0x0, symName: '__ZN4core3ptr148drop_in_place$LT$core..task..poll..Poll$LT$core..option..Option$LT$core..result..Result$LT$bytes..bytes..Bytes$C$hyper..error..Error$GT$$GT$$GT$$GT$17hde7bad97011a3be2E', symObjAddr: 0x4CF90, symBinAddr: 0x10004C0F4, symSize: 0x58 }
  - { offset: 0x2045A7, size: 0x8, addend: 0x0, symName: '__ZN4core3ptr136drop_in_place$LT$std..sync..poison..PoisonError$LT$std..sync..poison..mutex..MutexGuard$LT$futures_channel..mpsc..SenderTask$GT$$GT$$GT$17h716c835cf8860bb0E', symObjAddr: 0x4CFE8, symBinAddr: 0x10004C14C, symSize: 0x10 }
  - { offset: 0x204727, size: 0x8, addend: 0x0, symName: '__ZN4core3ptr54drop_in_place$LT$tokio..runtime..scheduler..Handle$GT$17h1c10592d4a983fadE', symObjAddr: 0x4D190, symBinAddr: 0x10004C2F4, symSize: 0x4C }
  - { offset: 0x2049E5, size: 0x8, addend: 0x0, symName: '__ZN4core3ptr67drop_in_place$LT$tokio..runtime..task..TaskHarnessScheduleHooks$GT$17h86740168168f295cE', symObjAddr: 0x4D8CC, symBinAddr: 0x10004CA30, symSize: 0x20 }
  - { offset: 0x204A0D, size: 0x8, addend: 0x0, symName: '__ZN4core3ptr67drop_in_place$LT$tokio..runtime..task..TaskHarnessScheduleHooks$GT$17h86740168168f295cE', symObjAddr: 0x4D8CC, symBinAddr: 0x10004CA30, symSize: 0x20 }
  - { offset: 0x204A99, size: 0x8, addend: 0x0, symName: '__ZN4core3ptr298drop_in_place$LT$tokio..runtime..task..core..Stage$LT$tokio..runtime..blocking..task..BlockingTask$LT$$LT$hyper_util..client..legacy..connect..dns..GaiResolver$u20$as$u20$tower_service..Service$LT$hyper_util..client..legacy..connect..dns..Name$GT$$GT$..call..$u7b$$u7b$closure$u7d$$u7d$$GT$$GT$$GT$17he86ebf1411ac55c1E', symObjAddr: 0x4D8EC, symBinAddr: 0x10004CA50, symSize: 0x30 }
  - { offset: 0x204BFF, size: 0x8, addend: 0x0, symName: '__ZN4core3ptr54drop_in_place$LT$hyper_util..rt..tokio..TokioSleep$GT$17h0aaffa9cacc67b33E', symObjAddr: 0x4D9C8, symBinAddr: 0x10004CB2C, symSize: 0x44 }
  - { offset: 0x206FEE, size: 0x8, addend: 0x0, symName: __ZN4core5error5Error7type_id17hd84441ab70619748E, symObjAddr: 0x4CE7C, symBinAddr: 0x10004BFE0, symSize: 0xC }
  - { offset: 0x207022, size: 0x8, addend: 0x0, symName: __ZN4core5error5Error7type_id17hd84441ab70619748E, symObjAddr: 0x4CE7C, symBinAddr: 0x10004BFE0, symSize: 0xC }
  - { offset: 0x208104, size: 0x8, addend: 0x0, symName: __ZN5hyper2rt5timer5Sleep9__type_id17h6c4708080b77887aE, symObjAddr: 0x4D978, symBinAddr: 0x10004CADC, symSize: 0xC }
  - { offset: 0x208137, size: 0x8, addend: 0x0, symName: __ZN5hyper2rt5timer5Sleep9__type_id17h6c4708080b77887aE, symObjAddr: 0x4D978, symBinAddr: 0x10004CADC, symSize: 0xC }
  - { offset: 0x208F09, size: 0x8, addend: 0x0, symName: __ZN5alloc5alloc15exchange_malloc17hca9577c5b3236b08E.859, symObjAddr: 0x4CE88, symBinAddr: 0x10004BFEC, symSize: 0x24 }
  - { offset: 0x20A32A, size: 0x8, addend: 0x0, symName: '__ZN5alloc5boxed16Box$LT$T$C$A$GT$13new_uninit_in17hd36fbc58ebad3d55E', symObjAddr: 0x4CFF8, symBinAddr: 0x10004C15C, symSize: 0x1C }
  - { offset: 0x20BEA2, size: 0x8, addend: 0x0, symName: __ZN5tokio7runtime4task3raw4poll17heda886050f0c5b0fE, symObjAddr: 0x4D1DC, symBinAddr: 0x10004C340, symSize: 0x508 }
  - { offset: 0x20C923, size: 0x8, addend: 0x0, symName: __ZN5tokio7runtime4task3raw7dealloc17h28dda69645da34e0E, symObjAddr: 0x4D6E4, symBinAddr: 0x10004C848, symSize: 0x4 }
  - { offset: 0x20C94B, size: 0x8, addend: 0x0, symName: __ZN5tokio7runtime4task3raw7dealloc17h28dda69645da34e0E, symObjAddr: 0x4D6E4, symBinAddr: 0x10004C848, symSize: 0x4 }
  - { offset: 0x20C97B, size: 0x8, addend: 0x0, symName: __ZN5tokio7runtime4task3raw15try_read_output17h07cfeb8b554f85bbE, symObjAddr: 0x4D6E8, symBinAddr: 0x10004C84C, symSize: 0x58 }
  - { offset: 0x20CAA7, size: 0x8, addend: 0x0, symName: __ZN5tokio7runtime4task3raw21drop_join_handle_slow17h69272829204ceb35E, symObjAddr: 0x4D740, symBinAddr: 0x10004C8A4, symSize: 0x38 }
  - { offset: 0x20CBD5, size: 0x8, addend: 0x0, symName: __ZN5tokio7runtime4task3raw17drop_abort_handle17h3452b8b7ad3d17d6E, symObjAddr: 0x4D778, symBinAddr: 0x10004C8DC, symSize: 0x4 }
  - { offset: 0x20CBFD, size: 0x8, addend: 0x0, symName: __ZN5tokio7runtime4task3raw17drop_abort_handle17h3452b8b7ad3d17d6E, symObjAddr: 0x4D778, symBinAddr: 0x10004C8DC, symSize: 0x4 }
  - { offset: 0x20CC2D, size: 0x8, addend: 0x0, symName: __ZN5tokio7runtime4task3raw8shutdown17hb676253266c5131bE, symObjAddr: 0x4D77C, symBinAddr: 0x10004C8E0, symSize: 0x3C }
  - { offset: 0x20D656, size: 0x8, addend: 0x0, symName: __ZN5tokio7runtime4task7harness11cancel_task17h424fcfa1d67b6149E, symObjAddr: 0x4D7E4, symBinAddr: 0x10004C948, symSize: 0x38 }
  - { offset: 0x210047, size: 0x8, addend: 0x0, symName: __ZN3std2io5error5Error3new17hf98c770c2424db4eE, symObjAddr: 0x4CE08, symBinAddr: 0x10004BF6C, symSize: 0x34 }
  - { offset: 0x21034D, size: 0x8, addend: 0x0, symName: '__ZN5alloc7raw_vec19RawVec$LT$T$C$A$GT$8grow_one17h307b595ec4b8aea2E', symObjAddr: 0x4CF2C, symBinAddr: 0x10004C090, symSize: 0x28 }
  - { offset: 0x21046E, size: 0x8, addend: 0x0, symName: '__ZN5alloc4sync16Arc$LT$T$C$A$GT$9drop_slow17ha96b60ac86687933E', symObjAddr: 0x4CF54, symBinAddr: 0x10004C0B8, symSize: 0x3C }
  - { offset: 0x21087E, size: 0x8, addend: 0x0, symName: __ZN10hyper_util6client6legacy7connect4http19ConnectingTcpRemote3new17h814cc845ef7c3ff9E, symObjAddr: 0x4D014, symBinAddr: 0x10004C178, symSize: 0xA8 }
  - { offset: 0x210B06, size: 0x8, addend: 0x0, symName: '__ZN5alloc3vec9into_iter21IntoIter$LT$T$C$A$GT$32forget_allocation_drop_remaining17hf9063889496cd4bbE', symObjAddr: 0x4D0BC, symBinAddr: 0x10004C220, symSize: 0x38 }
  - { offset: 0x21106B, size: 0x8, addend: 0x0, symName: '__ZN5tokio7runtime4task7harness20Harness$LT$T$C$S$GT$14drop_reference17h287acb05c85cac51E', symObjAddr: 0x4D7B8, symBinAddr: 0x10004C91C, symSize: 0x2C }
  - { offset: 0x2110C8, size: 0x8, addend: 0x0, symName: '__ZN5tokio7runtime4task7harness20Harness$LT$T$C$S$GT$8complete17h390f12d59310362bE', symObjAddr: 0x4D81C, symBinAddr: 0x10004C980, symSize: 0x58 }
  - { offset: 0x2111E8, size: 0x8, addend: 0x0, symName: '__ZN5tokio7runtime4task4core17Core$LT$T$C$S$GT$21drop_future_or_output17h3e5ace3a21c60d16E', symObjAddr: 0x4D874, symBinAddr: 0x10004C9D8, symSize: 0x1C }
  - { offset: 0x2112AE, size: 0x8, addend: 0x0, symName: '__ZN5tokio7runtime4task7harness20Harness$LT$T$C$S$GT$7dealloc17hd26b20d4deb449fcE', symObjAddr: 0x4D890, symBinAddr: 0x10004C9F4, symSize: 0x3C }
  - { offset: 0x21155E, size: 0x8, addend: 0x0, symName: '__ZN5tokio7runtime4task4core17Core$LT$T$C$S$GT$9set_stage17h4efca7c1da99eeccE', symObjAddr: 0x4D91C, symBinAddr: 0x10004CA80, symSize: 0x34 }
  - { offset: 0x211628, size: 0x8, addend: 0x0, symName: '__ZN5tokio7runtime4task4core17Core$LT$T$C$S$GT$12store_output17h7e635d5ab610ed7aE', symObjAddr: 0x4D950, symBinAddr: 0x10004CAB4, symSize: 0x28 }
  - { offset: 0x212BA7, size: 0x8, addend: 0x0, symName: _OUTLINED_FUNCTION_253, symObjAddr: 0xA40C8, symBinAddr: 0x10009E7B0, symSize: 0x10 }
  - { offset: 0x212BBF, size: 0x8, addend: 0x0, symName: _OUTLINED_FUNCTION_823, symObjAddr: 0xA62A8, symBinAddr: 0x1000A0990, symSize: 0x14 }
  - { offset: 0x212BD7, size: 0x8, addend: 0x0, symName: _OUTLINED_FUNCTION_1168, symObjAddr: 0xA7734, symBinAddr: 0x1000A1E1C, symSize: 0x8 }
  - { offset: 0x212BEF, size: 0x8, addend: 0x0, symName: _OUTLINED_FUNCTION_1346, symObjAddr: 0xA80B4, symBinAddr: 0x1000A279C, symSize: 0x10 }
  - { offset: 0x212C07, size: 0x8, addend: 0x0, symName: _OUTLINED_FUNCTION_1550, symObjAddr: 0xA8CBC, symBinAddr: 0x1000A33A4, symSize: 0xC }
  - { offset: 0x212C1F, size: 0x8, addend: 0x0, symName: _OUTLINED_FUNCTION_1698, symObjAddr: 0xA92D0, symBinAddr: 0x1000A39B8, symSize: 0x8 }
  - { offset: 0x2398B2, size: 0x8, addend: 0x0, symName: __ZN4core3ptr25swap_nonoverlapping_bytes26swap_nonoverlapping_chunks17hc483e6299399408eE, symObjAddr: 0x7CE5C, symBinAddr: 0x100077B64, symSize: 0x20 }
  - { offset: 0x239CAC, size: 0x8, addend: 0x0, symName: __ZN4core3ptr25swap_nonoverlapping_bytes26swap_nonoverlapping_chunks17hc483e6299399408eE, symObjAddr: 0x7CE5C, symBinAddr: 0x100077B64, symSize: 0x20 }
  - { offset: 0x239CF6, size: 0x8, addend: 0x0, symName: __ZN4core3ptr25swap_nonoverlapping_bytes26swap_nonoverlapping_chunks17hc483e6299399408eE, symObjAddr: 0x7CE5C, symBinAddr: 0x100077B64, symSize: 0x20 }
  - { offset: 0x239D15, size: 0x8, addend: 0x0, symName: __ZN4core3ptr25swap_nonoverlapping_bytes26swap_nonoverlapping_chunks17hc483e6299399408eE, symObjAddr: 0x7CE5C, symBinAddr: 0x100077B64, symSize: 0x20 }
  - { offset: 0x23AABE, size: 0x8, addend: 0x0, symName: '__ZN110_$LT$core..iter..adapters..enumerate..Enumerate$LT$I$GT$$u20$as$u20$core..iter..traits..iterator..Iterator$GT$4next17h166d0a1f787620ddE', symObjAddr: 0x7CEBC, symBinAddr: 0x100077BC4, symSize: 0x38 }
  - { offset: 0x23ACBC, size: 0x8, addend: 0x0, symName: '__ZN102_$LT$core..iter..adapters..zip..Zip$LT$A$C$B$GT$$u20$as$u20$core..iter..traits..iterator..Iterator$GT$4next17h29f84a0b85b59576E', symObjAddr: 0x7CF88, symBinAddr: 0x100077C90, symSize: 0x44 }
  - { offset: 0x23B131, size: 0x8, addend: 0x0, symName: '__ZN81_$LT$core..str..iter..Chars$u20$as$u20$core..iter..traits..iterator..Iterator$GT$5count17h9fd7098971323915E.1509', symObjAddr: 0x7CE7C, symBinAddr: 0x100077B84, symSize: 0x40 }
  - { offset: 0x23B33D, size: 0x8, addend: 0x0, symName: '__ZN81_$LT$core..str..iter..Chars$u20$as$u20$core..iter..traits..iterator..Iterator$GT$4next17h31d85d0a77abe227E', symObjAddr: 0x7CEF4, symBinAddr: 0x100077BFC, symSize: 0x94 }
  - { offset: 0x23C6D7, size: 0x8, addend: 0x0, symName: __ZN6strsim4jaro17h184605947906b29bE, symObjAddr: 0x7CFCC, symBinAddr: 0x100077CD4, symSize: 0x2AC }
  - { offset: 0x3B34E3, size: 0x8, addend: 0x0, symName: __ZN4core3fmt9Formatter12pad_integral17hb30c41365f2ae320E, symObjAddr: 0x337F8, symBinAddr: 0x1000337B8, symSize: 0x280 }
  - { offset: 0x3B387A, size: 0x8, addend: 0x0, symName: __ZN4core3fmt9Formatter3pad17hf4614a1c20e4508eE, symObjAddr: 0x34C40, symBinAddr: 0x100034A50, symSize: 0x1EC }
  - { offset: 0x3B3C2B, size: 0x8, addend: 0x0, symName: __ZN4core3fmt9Formatter25debug_tuple_field1_finish17h9c5ede4ec5a57fbfE, symObjAddr: 0x3687C, symBinAddr: 0x100036534, symSize: 0x12C }
  - { offset: 0x3B3DF3, size: 0x8, addend: 0x0, symName: __ZN4core3fmt9Formatter25debug_tuple_field2_finish17h3a3e56296721aa98E, symObjAddr: 0x369A8, symBinAddr: 0x100036660, symSize: 0x1C8 }
  - { offset: 0x3B40EB, size: 0x8, addend: 0x0, symName: __ZN4core3fmt9Formatter25debug_tuple_field3_finish17h584c19e872c58f02E, symObjAddr: 0x36B70, symBinAddr: 0x100036828, symSize: 0x248 }
  - { offset: 0x3B4504, size: 0x8, addend: 0x0, symName: __ZN4core3fmt9Formatter26debug_struct_field1_finish17hc7a3bc8aac89cc3bE, symObjAddr: 0x36DB8, symBinAddr: 0x100036A70, symSize: 0xD0 }
  - { offset: 0x3B45DB, size: 0x8, addend: 0x0, symName: __ZN4core3fmt9Formatter26debug_struct_field2_finish17h844ed70214b90ab7E, symObjAddr: 0x36E88, symBinAddr: 0x100036B40, symSize: 0x104 }
  - { offset: 0x3B470E, size: 0x8, addend: 0x0, symName: '__ZN68_$LT$core..fmt..builders..PadAdapter$u20$as$u20$core..fmt..Write$GT$9write_str17h5e689f5661e08c5aE', symObjAddr: 0x35F48, symBinAddr: 0x100035C00, symSize: 0x22C }
  - { offset: 0x3B496D, size: 0x8, addend: 0x0, symName: '__ZN68_$LT$core..fmt..builders..PadAdapter$u20$as$u20$core..fmt..Write$GT$10write_char17h716c13c5de8a4527E', symObjAddr: 0x362B4, symBinAddr: 0x100035F6C, symSize: 0x80 }
  - { offset: 0x3B49BC, size: 0x8, addend: 0x0, symName: __ZN4core3fmt8builders10DebugTuple5field17h459c5e0195c30ccfE, symObjAddr: 0x36174, symBinAddr: 0x100035E2C, symSize: 0x140 }
  - { offset: 0x3B4B3A, size: 0x8, addend: 0x0, symName: __ZN4core3fmt8builders10DebugTuple6finish17hd5de67e8ed3e6125E, symObjAddr: 0x36350, symBinAddr: 0x100036008, symSize: 0xB4 }
  - { offset: 0x3B4CD3, size: 0x8, addend: 0x0, symName: __ZN4core3fmt8builders11DebugStruct21finish_non_exhaustive17h9b7d3479d8e82e13E, symObjAddr: 0x36404, symBinAddr: 0x1000360BC, symSize: 0xC4 }
  - { offset: 0x3B4E03, size: 0x8, addend: 0x0, symName: __ZN4core3fmt8builders11DebugStruct5field17h3258b872fad0c517E, symObjAddr: 0x364C8, symBinAddr: 0x100036180, symSize: 0x1AC }
  - { offset: 0x3B500F, size: 0x8, addend: 0x0, symName: __ZN4core3fmt8builders11DebugStruct6finish17hf111625dd93b01ddE, symObjAddr: 0x36674, symBinAddr: 0x10003632C, symSize: 0x7C }
  - { offset: 0x3B5117, size: 0x8, addend: 0x0, symName: __ZN4core3fmt8builders9DebugList5entry17he732e1493945ef46E, symObjAddr: 0x366F0, symBinAddr: 0x1000363A8, symSize: 0x140 }
  - { offset: 0x3B529C, size: 0x8, addend: 0x0, symName: __ZN4core3fmt8builders9DebugList6finish17h14d1ed16cd133200E, symObjAddr: 0x36830, symBinAddr: 0x1000364E8, symSize: 0x4C }
  - { offset: 0x3B549E, size: 0x8, addend: 0x0, symName: '__ZN4core3fmt3num3imp51_$LT$impl$u20$core..fmt..Display$u20$for$u20$u8$GT$3fmt17h98dd3bacd3ed43bdE', symObjAddr: 0x35490, symBinAddr: 0x100035148, symSize: 0xA4 }
  - { offset: 0x3B559C, size: 0x8, addend: 0x0, symName: '__ZN4core3fmt3num3imp52_$LT$impl$u20$core..fmt..Display$u20$for$u20$i32$GT$3fmt17h44e9b3674c32bab8E', symObjAddr: 0x35534, symBinAddr: 0x1000351EC, symSize: 0x138 }
  - { offset: 0x3B56A4, size: 0x8, addend: 0x0, symName: '__ZN4core3fmt3num3imp52_$LT$impl$u20$core..fmt..Display$u20$for$u20$i64$GT$3fmt17he46465887a655020E', symObjAddr: 0x3566C, symBinAddr: 0x100035324, symSize: 0x144 }
  - { offset: 0x3B57CC, size: 0x8, addend: 0x0, symName: '__ZN4core3fmt3num3imp52_$LT$impl$u20$core..fmt..Display$u20$for$u20$u16$GT$3fmt17ha58bc3935f56e4d0E', symObjAddr: 0x357B0, symBinAddr: 0x100035468, symSize: 0xF0 }
  - { offset: 0x3B58BE, size: 0x8, addend: 0x0, symName: '__ZN4core3fmt3num3imp52_$LT$impl$u20$core..fmt..Display$u20$for$u20$u32$GT$3fmt17h8d9a26a42695d350E', symObjAddr: 0x358A0, symBinAddr: 0x100035558, symSize: 0x130 }
  - { offset: 0x3B59C4, size: 0x8, addend: 0x0, symName: '__ZN4core3fmt3num3imp52_$LT$impl$u20$core..fmt..Display$u20$for$u20$u64$GT$3fmt17hf290744b1c26d37fE', symObjAddr: 0x359D0, symBinAddr: 0x100035688, symSize: 0x13C }
  - { offset: 0x3B5AFD, size: 0x8, addend: 0x0, symName: '__ZN4core3fmt3num52_$LT$impl$u20$core..fmt..Debug$u20$for$u20$usize$GT$3fmt17h9ee511eeaaac07a5E.467', symObjAddr: 0x34A70, symBinAddr: 0x100034880, symSize: 0x1D0 }
  - { offset: 0x3B5C66, size: 0x8, addend: 0x0, symName: '__ZN4core3fmt3num52_$LT$impl$u20$core..fmt..LowerHex$u20$for$u20$u8$GT$3fmt17hedb4777804964d81E', symObjAddr: 0x35B0C, symBinAddr: 0x1000357C4, symSize: 0x78 }
  - { offset: 0x3B5CF0, size: 0x8, addend: 0x0, symName: '__ZN4core3fmt3num52_$LT$impl$u20$core..fmt..UpperHex$u20$for$u20$u8$GT$3fmt17h50925e9b57f75ef7E', symObjAddr: 0x35B84, symBinAddr: 0x10003583C, symSize: 0x78 }
  - { offset: 0x3B5D87, size: 0x8, addend: 0x0, symName: '__ZN4core3fmt3num53_$LT$impl$u20$core..fmt..LowerHex$u20$for$u20$u32$GT$3fmt17h1ec811601ebe3a63E', symObjAddr: 0x35C74, symBinAddr: 0x10003592C, symSize: 0x78 }
  - { offset: 0x3B5E0B, size: 0x8, addend: 0x0, symName: '__ZN4core3fmt3num53_$LT$impl$u20$core..fmt..LowerHex$u20$for$u20$i32$GT$3fmt17hf4f3f6cb5a210a86E', symObjAddr: 0x35BFC, symBinAddr: 0x1000358B4, symSize: 0x78 }
  - { offset: 0x3B5EAA, size: 0x8, addend: 0x0, symName: '__ZN4core3fmt3num53_$LT$impl$u20$core..fmt..LowerHex$u20$for$u20$u64$GT$3fmt17hfc912d2a86e92a47E', symObjAddr: 0x35CEC, symBinAddr: 0x1000359A4, symSize: 0x74 }
  - { offset: 0x3B5F41, size: 0x8, addend: 0x0, symName: '__ZN4core3fmt3num53_$LT$impl$u20$core..fmt..UpperHex$u20$for$u20$u32$GT$3fmt17h34ed060ad6fb82ebE', symObjAddr: 0x35DD8, symBinAddr: 0x100035A90, symSize: 0x78 }
  - { offset: 0x3B5FC5, size: 0x8, addend: 0x0, symName: '__ZN4core3fmt3num53_$LT$impl$u20$core..fmt..UpperHex$u20$for$u20$i32$GT$3fmt17h87b90536a374a042E', symObjAddr: 0x35D60, symBinAddr: 0x100035A18, symSize: 0x78 }
  - { offset: 0x3B6064, size: 0x8, addend: 0x0, symName: '__ZN4core3fmt3num53_$LT$impl$u20$core..fmt..UpperHex$u20$for$u20$u64$GT$3fmt17hf105ba80954e3508E', symObjAddr: 0x35E50, symBinAddr: 0x100035B08, symSize: 0x74 }
  - { offset: 0x3B60EE, size: 0x8, addend: 0x0, symName: '__ZN4core3fmt3num54_$LT$impl$u20$core..fmt..LowerHex$u20$for$u20$u128$GT$3fmt17h4364df5c7524a733E', symObjAddr: 0x35EC4, symBinAddr: 0x100035B7C, symSize: 0x84 }
  - { offset: 0x3B618A, size: 0x8, addend: 0x0, symName: '__ZN4core3fmt3num50_$LT$impl$u20$core..fmt..Debug$u20$for$u20$u32$GT$3fmt17h63d27749e7694155E', symObjAddr: 0x39164, symBinAddr: 0x100038AC4, symSize: 0xC8 }
  - { offset: 0x3B6212, size: 0x8, addend: 0x0, symName: '__ZN41_$LT$char$u20$as$u20$core..fmt..Debug$GT$3fmt17h30366c1c7f9644c7E', symObjAddr: 0x33588, symBinAddr: 0x100033548, symSize: 0xA8 }
  - { offset: 0x3B635C, size: 0x8, addend: 0x0, symName: __ZN4core3fmt5write17h164e2e78980a3344E, symObjAddr: 0x33630, symBinAddr: 0x1000335F0, symSize: 0x1C8 }
  - { offset: 0x3B65B8, size: 0x8, addend: 0x0, symName: __ZN4core3fmt9Formatter12pad_integral12write_prefix17hb8ba5c49cdc42ad5E, symObjAddr: 0x33BF0, symBinAddr: 0x100033BB0, symSize: 0x7C }
  - { offset: 0x3B6852, size: 0x8, addend: 0x0, symName: '__ZN40_$LT$str$u20$as$u20$core..fmt..Debug$GT$3fmt17h78d738a10a78752bE', symObjAddr: 0x34458, symBinAddr: 0x100034274, symSize: 0x344 }
  - { offset: 0x3B6CB4, size: 0x8, addend: 0x0, symName: '__ZN44_$LT$$RF$T$u20$as$u20$core..fmt..Display$GT$3fmt17h360d8bfef4237bfdE', symObjAddr: 0x34A00, symBinAddr: 0x100034810, symSize: 0x10 }
  - { offset: 0x3B6CE4, size: 0x8, addend: 0x0, symName: '__ZN44_$LT$$RF$T$u20$as$u20$core..fmt..Display$GT$3fmt17hb422673cb8856047E', symObjAddr: 0x387B4, symBinAddr: 0x100038114, symSize: 0x750 }
  - { offset: 0x3B71DC, size: 0x8, addend: 0x0, symName: '__ZN44_$LT$$RF$T$u20$as$u20$core..fmt..Display$GT$3fmt17h315a7a3c4f7bdcbbE', symObjAddr: 0x395EC, symBinAddr: 0x100038F4C, symSize: 0x8 }
  - { offset: 0x3B71FD, size: 0x8, addend: 0x0, symName: '__ZN43_$LT$bool$u20$as$u20$core..fmt..Display$GT$3fmt17h65bad19dd4638338E', symObjAddr: 0x34E2C, symBinAddr: 0x100034C3C, symSize: 0x34 }
  - { offset: 0x3B7249, size: 0x8, addend: 0x0, symName: '__ZN43_$LT$char$u20$as$u20$core..fmt..Display$GT$3fmt17he0b9d2d6b8d677c9E', symObjAddr: 0x34E60, symBinAddr: 0x100034C70, symSize: 0xD4 }
  - { offset: 0x3B72BE, size: 0x8, addend: 0x0, symName: '__ZN59_$LT$core..fmt..Arguments$u20$as$u20$core..fmt..Display$GT$3fmt17h52418a8a7efea083E', symObjAddr: 0x3508C, symBinAddr: 0x100034D44, symSize: 0xC }
  - { offset: 0x3B72DF, size: 0x8, addend: 0x0, symName: '__ZN42_$LT$$RF$T$u20$as$u20$core..fmt..Debug$GT$3fmt17h6813e4b81119822dE', symObjAddr: 0x35098, symBinAddr: 0x100034D50, symSize: 0x10 }
  - { offset: 0x3B72FA, size: 0x8, addend: 0x0, symName: '__ZN42_$LT$$RF$T$u20$as$u20$core..fmt..Debug$GT$3fmt17hdc2a3d6d42f71ceaE', symObjAddr: 0x36FB0, symBinAddr: 0x100036C44, symSize: 0xC }
  - { offset: 0x3B7316, size: 0x8, addend: 0x0, symName: __ZN4core3fmt17pointer_fmt_inner17h2b953d6d0d84cc95E, symObjAddr: 0x353D8, symBinAddr: 0x100035090, symSize: 0xB8 }
  - { offset: 0x3B7442, size: 0x8, addend: 0x0, symName: __ZN4core3fmt5Write9write_fmt17h745afc1aa007832bE, symObjAddr: 0x36334, symBinAddr: 0x100035FEC, symSize: 0x1C }
  - { offset: 0x3B74A8, size: 0x8, addend: 0x0, symName: __ZN4core3fmt5Write10write_char17hc7bd6fd1ca90d3f5E, symObjAddr: 0x386AC, symBinAddr: 0x10003800C, symSize: 0xEC }
  - { offset: 0x3B75B2, size: 0x8, addend: 0x0, symName: __ZN4core3fmt5Write9write_fmt17h1338533b53592359E, symObjAddr: 0x38798, symBinAddr: 0x1000380F8, symSize: 0x1C }
  - { offset: 0x3B7618, size: 0x8, addend: 0x0, symName: __ZN4core3fmt5Write10write_char17h4d75857624942983E, symObjAddr: 0x38FD0, symBinAddr: 0x100038930, symSize: 0xEC }
  - { offset: 0x3B7722, size: 0x8, addend: 0x0, symName: __ZN4core3fmt5Write9write_fmt17h7ec734f509aaedf0E, symObjAddr: 0x390BC, symBinAddr: 0x100038A1C, symSize: 0x1C }
  - { offset: 0x3B7795, size: 0x8, addend: 0x0, symName: __ZN4core3fmt5Write10write_char17h327cb3b7b77bf140E, symObjAddr: 0x39644, symBinAddr: 0x100038FA4, symSize: 0xEC }
  - { offset: 0x3B789F, size: 0x8, addend: 0x0, symName: __ZN4core3fmt5Write9write_fmt17h19c815d1dc24bc83E, symObjAddr: 0x39730, symBinAddr: 0x100039090, symSize: 0x1C }
  - { offset: 0x3B78F8, size: 0x8, addend: 0x0, symName: __ZN4core3fmt5Write10write_char17hd06bf30838c9bc3fE, symObjAddr: 0x3979C, symBinAddr: 0x1000390FC, symSize: 0xEC }
  - { offset: 0x3B7A02, size: 0x8, addend: 0x0, symName: __ZN4core3fmt5Write9write_fmt17h438d4f6f3d26c4d1E, symObjAddr: 0x39888, symBinAddr: 0x1000391E8, symSize: 0x1C }
  - { offset: 0x3B7A62, size: 0x8, addend: 0x0, symName: '__ZN53_$LT$core..fmt..Error$u20$as$u20$core..fmt..Debug$GT$3fmt17hdaf7e34180b4a8deE.607', symObjAddr: 0x38644, symBinAddr: 0x100037FA4, symSize: 0x18 }
  - { offset: 0x3B7A7F, size: 0x8, addend: 0x0, symName: '__ZN53_$LT$core..fmt..Error$u20$as$u20$core..fmt..Debug$GT$3fmt17hdaf7e34180b4a8deE.607', symObjAddr: 0x38644, symBinAddr: 0x100037FA4, symSize: 0x18 }
  - { offset: 0x3B7A96, size: 0x8, addend: 0x0, symName: '__ZN45_$LT$$RF$T$u20$as$u20$core..fmt..LowerHex$GT$3fmt17h05b3a3d2bfbdae41E', symObjAddr: 0x38F04, symBinAddr: 0x100038864, symSize: 0x7C }
  - { offset: 0x3B7B89, size: 0x8, addend: 0x0, symName: __ZN4core7unicode12unicode_data15grapheme_extend11lookup_slow17hf7d326cb6e780d1eE, symObjAddr: 0x341B8, symBinAddr: 0x100034178, symSize: 0xFC }
  - { offset: 0x3B7D5B, size: 0x8, addend: 0x0, symName: __ZN4core7unicode9printable12is_printable17h2646e2e575849d73E, symObjAddr: 0x33EF4, symBinAddr: 0x100033EB4, symSize: 0x2C4 }
  - { offset: 0x3B825D, size: 0x8, addend: 0x0, symName: '__ZN73_$LT$core..num..nonzero..NonZero$LT$T$GT$$u20$as$u20$core..fmt..Debug$GT$3fmt17hc41b09fcc8e635b3E', symObjAddr: 0x3922C, symBinAddr: 0x100038B8C, symSize: 0x8 }
  - { offset: 0x3B82E3, size: 0x8, addend: 0x0, symName: '__ZN70_$LT$core..num..error..ParseIntError$u20$as$u20$core..fmt..Display$GT$3fmt17h5ead7e0c08bc1fcfE', symObjAddr: 0x39234, symBinAddr: 0x100038B94, symSize: 0x28 }
  - { offset: 0x3B8318, size: 0x8, addend: 0x0, symName: '__ZN72_$LT$core..num..error..TryFromIntError$u20$as$u20$core..fmt..Display$GT$3fmt17h763405ddb052613bE', symObjAddr: 0x398A4, symBinAddr: 0x100039204, symSize: 0x14 }
  - { offset: 0x3B8529, size: 0x8, addend: 0x0, symName: '__ZN4core5slice29_$LT$impl$u20$$u5b$T$u5d$$GT$15copy_from_slice17len_mismatch_fail8do_panic7runtime17h02afd8a3a33616a5E', symObjAddr: 0x37E3C, symBinAddr: 0x1000A5990, symSize: 0x54 }
  - { offset: 0x3B855D, size: 0x8, addend: 0x0, symName: '__ZN4core5slice29_$LT$impl$u20$$u5b$T$u5d$$GT$15copy_from_slice17len_mismatch_fail17h4b4b495d36eedb23E', symObjAddr: 0x37E24, symBinAddr: 0x1000A5978, symSize: 0x18 }
  - { offset: 0x3B8881, size: 0x8, addend: 0x0, symName: __ZN4core5slice5index16slice_index_fail8do_panic7runtime17hc2f4cb0f83a9f516E, symObjAddr: 0x34314, symBinAddr: 0x1000A560C, symSize: 0x50 }
  - { offset: 0x3B88B3, size: 0x8, addend: 0x0, symName: __ZN4core5slice5index16slice_index_fail8do_panic7runtime17h7c85dbf6702bad0fE, symObjAddr: 0x34364, symBinAddr: 0x1000A565C, symSize: 0x50 }
  - { offset: 0x3B88E5, size: 0x8, addend: 0x0, symName: __ZN4core5slice5index16slice_index_fail8do_panic7runtime17h2465cf9dde14bb9eE, symObjAddr: 0x343B4, symBinAddr: 0x1000A56AC, symSize: 0x50 }
  - { offset: 0x3B8919, size: 0x8, addend: 0x0, symName: __ZN4core5slice5index16slice_index_fail17hefbaa1bb9611e99cE, symObjAddr: 0x342D0, symBinAddr: 0x1000A55C8, symSize: 0x44 }
  - { offset: 0x3B8C0F, size: 0x8, addend: 0x0, symName: __ZN4core5slice6memchr14memchr_aligned17h2090105558adc3b5E, symObjAddr: 0x37EF4, symBinAddr: 0x100037A44, symSize: 0xD8 }
  - { offset: 0x3B8C33, size: 0x8, addend: 0x0, symName: __ZN4core5slice6memchr14memchr_aligned17h2090105558adc3b5E, symObjAddr: 0x37EF4, symBinAddr: 0x100037A44, symSize: 0xD8 }
  - { offset: 0x3B8C47, size: 0x8, addend: 0x0, symName: __ZN4core5slice6memchr14memchr_aligned17h2090105558adc3b5E, symObjAddr: 0x37EF4, symBinAddr: 0x100037A44, symSize: 0xD8 }
  - { offset: 0x3B8C5C, size: 0x8, addend: 0x0, symName: __ZN4core5slice6memchr14memchr_aligned17h2090105558adc3b5E, symObjAddr: 0x37EF4, symBinAddr: 0x100037A44, symSize: 0xD8 }
  - { offset: 0x3B8CF7, size: 0x8, addend: 0x0, symName: __ZN4core5slice6memchr7memrchr17h507833fefca73613E, symObjAddr: 0x37FCC, symBinAddr: 0x100037B1C, symSize: 0x118 }
  - { offset: 0x3B8F2B, size: 0x8, addend: 0x0, symName: __ZN4core5slice4sort6shared9smallsort22panic_on_ord_violation17h4776d59d4c698189E, symObjAddr: 0x37E90, symBinAddr: 0x1000A59E4, symSize: 0x38 }
  - { offset: 0x3B8F68, size: 0x8, addend: 0x0, symName: __ZN4core5slice4sort6stable5drift11sqrt_approx17h1992f821a29ab3b9E, symObjAddr: 0x37EC8, symBinAddr: 0x100037A18, symSize: 0x2C }
  - { offset: 0x3B916E, size: 0x8, addend: 0x0, symName: __ZN4core6result13unwrap_failed17hecc7e6934498f5c2E, symObjAddr: 0x3812C, symBinAddr: 0x1000A5A64, symSize: 0x5C }
  - { offset: 0x3B91F7, size: 0x8, addend: 0x0, symName: '__ZN4core4char7methods22_$LT$impl$u20$char$GT$16escape_debug_ext17h7fd3d5a0914badefE', symObjAddr: 0x33C6C, symBinAddr: 0x100033C2C, symSize: 0x288 }
  - { offset: 0x3B9616, size: 0x8, addend: 0x0, symName: __ZN4core6option13unwrap_failed17h2bbb35b31c2cb6f3E, symObjAddr: 0x342B4, symBinAddr: 0x1000A55AC, symSize: 0x1C }
  - { offset: 0x3B9664, size: 0x8, addend: 0x0, symName: __ZN4core6option13expect_failed17h0ccd2b94a57b79d0E, symObjAddr: 0x380E4, symBinAddr: 0x1000A5A1C, symSize: 0x48 }
  - { offset: 0x3B98ED, size: 0x8, addend: 0x0, symName: __ZN4core3str5count14do_count_chars17h33e6469de2df7647E, symObjAddr: 0x33A78, symBinAddr: 0x100033A38, symSize: 0x178 }
  - { offset: 0x3B990A, size: 0x8, addend: 0x0, symName: __ZN4core3str5count14do_count_chars17h33e6469de2df7647E, symObjAddr: 0x33A78, symBinAddr: 0x100033A38, symSize: 0x178 }
  - { offset: 0x3B991E, size: 0x8, addend: 0x0, symName: __ZN4core3str5count14do_count_chars17h33e6469de2df7647E, symObjAddr: 0x33A78, symBinAddr: 0x100033A38, symSize: 0x178 }
  - { offset: 0x3B9E20, size: 0x8, addend: 0x0, symName: __ZN4core3str16slice_error_fail17he312d86f3b7ce317E, symObjAddr: 0x3479C, symBinAddr: 0x1000A5750, symSize: 0xC }
  - { offset: 0x3B9E3A, size: 0x8, addend: 0x0, symName: __ZN4core3str19slice_error_fail_rt17h7ffac88431dff4f3E, symObjAddr: 0x347A8, symBinAddr: 0x1000345B8, symSize: 0x258 }
  - { offset: 0x3B9F62, size: 0x8, addend: 0x0, symName: __ZN4core3str8converts9from_utf817h907df036b51c9b19E, symObjAddr: 0x351A0, symBinAddr: 0x100034E58, symSize: 0x238 }
  - { offset: 0x3BA071, size: 0x8, addend: 0x0, symName: __ZN4core3str7pattern11StrSearcher3new17h365be42c5338e9efE, symObjAddr: 0x37980, symBinAddr: 0x100037614, symSize: 0x3DC }
  - { offset: 0x3BA31A, size: 0x8, addend: 0x0, symName: '__ZN87_$LT$core..str..lossy..Utf8Chunks$u20$as$u20$core..iter..traits..iterator..Iterator$GT$4next17h7c6935794b4bf75bE', symObjAddr: 0x3833C, symBinAddr: 0x100037C9C, symSize: 0x1C0 }
  - { offset: 0x3BA540, size: 0x8, addend: 0x0, symName: '__ZN66_$LT$core..str..error..Utf8Error$u20$as$u20$core..fmt..Display$GT$3fmt17h7929e0cdec4892caE', symObjAddr: 0x390D8, symBinAddr: 0x100038A38, symSize: 0x8C }
  - { offset: 0x3BABF2, size: 0x8, addend: 0x0, symName: '__ZN71_$LT$core..ops..range..Range$LT$Idx$GT$$u20$as$u20$core..fmt..Debug$GT$3fmt17h81c5689bd48f13c8E', symObjAddr: 0x34A10, symBinAddr: 0x100034820, symSize: 0x60 }
  - { offset: 0x3BAE65, size: 0x8, addend: 0x0, symName: __ZN4core9panicking9panic_fmt17hfe9cfd57c06d80d9E, symObjAddr: 0x34404, symBinAddr: 0x1000A56FC, symSize: 0x20 }
  - { offset: 0x3BAE94, size: 0x8, addend: 0x0, symName: __ZN4core9panicking5panic17h4a3c64c65dc98033E, symObjAddr: 0x34424, symBinAddr: 0x1000A571C, symSize: 0x34 }
  - { offset: 0x3BAEC8, size: 0x8, addend: 0x0, symName: __ZN4core9panicking11panic_const23panic_const_div_by_zero17hc8ccfb6d43a5a054E, symObjAddr: 0x34F34, symBinAddr: 0x1000A575C, symSize: 0x34 }
  - { offset: 0x3BAEF7, size: 0x8, addend: 0x0, symName: __ZN4core9panicking11panic_const23panic_const_rem_by_zero17h949d2d238097b6ddE, symObjAddr: 0x38188, symBinAddr: 0x1000A5AC0, symSize: 0x34 }
  - { offset: 0x3BAF26, size: 0x8, addend: 0x0, symName: __ZN4core9panicking11panic_const28panic_const_async_fn_resumed17h86a73eab4bf9906aE, symObjAddr: 0x381BC, symBinAddr: 0x1000A5AF4, symSize: 0x34 }
  - { offset: 0x3BAF56, size: 0x8, addend: 0x0, symName: __ZN4core9panicking18panic_bounds_check17hc44da13ec084d376E, symObjAddr: 0x34F68, symBinAddr: 0x1000A5790, symSize: 0x40 }
  - { offset: 0x3BAF88, size: 0x8, addend: 0x0, symName: __ZN4core9panicking19assert_failed_inner17hfb93774e4aca671fE, symObjAddr: 0x34FA8, symBinAddr: 0x1000A57D0, symSize: 0xE4 }
  - { offset: 0x3BAFD0, size: 0x8, addend: 0x0, symName: __ZN4core9panicking13assert_failed17hae7772335a475aaaE, symObjAddr: 0x36F8C, symBinAddr: 0x1000A58B4, symSize: 0x24 }
  - { offset: 0x3BAFFA, size: 0x8, addend: 0x0, symName: __ZN4core9panicking14panic_nounwind17h6b2e5f463f7678f3E, symObjAddr: 0x381F0, symBinAddr: 0x1000A5B28, symSize: 0x48 }
  - { offset: 0x3BB03E, size: 0x8, addend: 0x0, symName: __ZN4core9panicking18panic_nounwind_fmt17hbccf1478dcdd0d51E, symObjAddr: 0x38238, symBinAddr: 0x1000A5B70, symSize: 0x3C }
  - { offset: 0x3BB083, size: 0x8, addend: 0x0, symName: __ZN4core9panicking19panic_cannot_unwind17hf78649432160e0dbE, symObjAddr: 0x38274, symBinAddr: 0x1000A5BAC, symSize: 0xC }
  - { offset: 0x3BB09E, size: 0x8, addend: 0x0, symName: __ZN4core9panicking16panic_in_cleanup17h0018177c7013b04bE, symObjAddr: 0x38280, symBinAddr: 0x1000A5BB8, symSize: 0xC }
  - { offset: 0x3BB0B9, size: 0x8, addend: 0x0, symName: __ZN4core9panicking26panic_nounwind_nobacktrace17h251dcd38966d0e56E, symObjAddr: 0x3828C, symBinAddr: 0x1000A5BC4, symSize: 0x48 }
  - { offset: 0x3BB0F9, size: 0x8, addend: 0x0, symName: __ZN4core3ffi5c_str4CStr19from_bytes_with_nul17h1961d7e667fc8bd9E, symObjAddr: 0x350A8, symBinAddr: 0x100034D60, symSize: 0xF8 }
  - { offset: 0x3BB274, size: 0x8, addend: 0x0, symName: __ZN4core3net6parser6Parser14read_ipv4_addr17hf1eb8bfd1756a1f2E, symObjAddr: 0x36FBC, symBinAddr: 0x100036C50, symSize: 0x390 }
  - { offset: 0x3BB43B, size: 0x8, addend: 0x0, symName: __ZN4core3net6parser6Parser14read_ipv6_addr17hc0839af9db01d8b7E, symObjAddr: 0x3734C, symBinAddr: 0x100036FE0, symSize: 0x1B4 }
  - { offset: 0x3BB938, size: 0x8, addend: 0x0, symName: '__ZN4core3net6parser6Parser11read_number28_$u7b$$u7b$closure$u7d$$u7d$17ha480f39391dd68dcE', symObjAddr: 0x376FC, symBinAddr: 0x100037390, symSize: 0x284 }
  - { offset: 0x3BBBD8, size: 0x8, addend: 0x0, symName: __ZN4core3net6parser6Parser14read_ipv6_addr11read_groups17hb77959f975924e44E, symObjAddr: 0x37500, symBinAddr: 0x100037194, symSize: 0x1FC }
  - { offset: 0x3BBF26, size: 0x8, addend: 0x0, symName: '__ZN67_$LT$core..net..ip_addr..Ipv4Addr$u20$as$u20$core..fmt..Display$GT$3fmt17h6513381b60885348E', symObjAddr: 0x384FC, symBinAddr: 0x100037E5C, symSize: 0x148 }
  - { offset: 0x3BC0EA, size: 0x8, addend: 0x0, symName: '__ZN86_$LT$core..net..display_buffer..DisplayBuffer$LT$_$GT$$u20$as$u20$core..fmt..Write$GT$9write_str17h8193d428e5cb9597E', symObjAddr: 0x3865C, symBinAddr: 0x100037FBC, symSize: 0x50 }
  - { offset: 0x3BC191, size: 0x8, addend: 0x0, symName: '__ZN86_$LT$core..net..display_buffer..DisplayBuffer$LT$_$GT$$u20$as$u20$core..fmt..Write$GT$9write_str17h6a536cefeb78690eE', symObjAddr: 0x38F80, symBinAddr: 0x1000388E0, symSize: 0x50 }
  - { offset: 0x3BC238, size: 0x8, addend: 0x0, symName: '__ZN86_$LT$core..net..display_buffer..DisplayBuffer$LT$_$GT$$u20$as$u20$core..fmt..Write$GT$9write_str17h9e97877d5d2c34dcE', symObjAddr: 0x395F4, symBinAddr: 0x100038F54, symSize: 0x50 }
  - { offset: 0x3BC2DF, size: 0x8, addend: 0x0, symName: '__ZN86_$LT$core..net..display_buffer..DisplayBuffer$LT$_$GT$$u20$as$u20$core..fmt..Write$GT$9write_str17h63f2e65f2d3e5331E', symObjAddr: 0x3974C, symBinAddr: 0x1000390AC, symSize: 0x50 }
  - { offset: 0x3BC3A6, size: 0x8, addend: 0x0, symName: '__ZN71_$LT$core..net..socket_addr..SocketAddr$u20$as$u20$core..fmt..Debug$GT$3fmt17h747c3d39c66e8105E', symObjAddr: 0x3925C, symBinAddr: 0x100038BBC, symSize: 0x1C }
  - { offset: 0x3BC3C4, size: 0x8, addend: 0x0, symName: '__ZN71_$LT$core..net..socket_addr..SocketAddr$u20$as$u20$core..fmt..Debug$GT$3fmt17h747c3d39c66e8105E', symObjAddr: 0x3925C, symBinAddr: 0x100038BBC, symSize: 0x1C }
  - { offset: 0x3BC40A, size: 0x8, addend: 0x0, symName: '__ZN75_$LT$core..net..socket_addr..SocketAddrV6$u20$as$u20$core..fmt..Display$GT$3fmt17hfe35cc387747a442E', symObjAddr: 0x39278, symBinAddr: 0x100038BD8, symSize: 0x230 }
  - { offset: 0x3BC67E, size: 0x8, addend: 0x0, symName: '__ZN75_$LT$core..net..socket_addr..SocketAddrV4$u20$as$u20$core..fmt..Display$GT$3fmt17heb4bdd312f955d99E', symObjAddr: 0x394A8, symBinAddr: 0x100038E08, symSize: 0x144 }
  - { offset: 0x3BC8F2, size: 0x8, addend: 0x0, symName: __ZN4core4cell22panic_already_borrowed8do_panic7runtime17h75f4247cf40d346fE, symObjAddr: 0x37D68, symBinAddr: 0x1000A58E4, symSize: 0x44 }
  - { offset: 0x3BC926, size: 0x8, addend: 0x0, symName: __ZN4core4cell22panic_already_borrowed17h4fa42f1e3626b259E, symObjAddr: 0x37D5C, symBinAddr: 0x1000A58D8, symSize: 0xC }
  - { offset: 0x3BC95B, size: 0x8, addend: 0x0, symName: '__ZN65_$LT$core..cell..BorrowMutError$u20$as$u20$core..fmt..Display$GT$3fmt17h778e10d6fba8f374E', symObjAddr: 0x37DAC, symBinAddr: 0x1000379F0, symSize: 0x14 }
  - { offset: 0x3BC9A4, size: 0x8, addend: 0x0, symName: __ZN4core4cell30panic_already_mutably_borrowed8do_panic7runtime17hcd0a801fe1b5362fE, symObjAddr: 0x37DCC, symBinAddr: 0x1000A5934, symSize: 0x44 }
  - { offset: 0x3BC9D8, size: 0x8, addend: 0x0, symName: __ZN4core4cell30panic_already_mutably_borrowed17hd8b9067969a6f752E, symObjAddr: 0x37DC0, symBinAddr: 0x1000A5928, symSize: 0xC }
  - { offset: 0x3BCA0D, size: 0x8, addend: 0x0, symName: '__ZN62_$LT$core..cell..BorrowError$u20$as$u20$core..fmt..Display$GT$3fmt17h80f4a626dd81473dE', symObjAddr: 0x37E10, symBinAddr: 0x100037A04, symSize: 0x14 }
  - { offset: 0x3BCA4A, size: 0x8, addend: 0x0, symName: '__ZN54_$LT$core..any..TypeId$u20$as$u20$core..fmt..Debug$GT$3fmt17h9be3c05ad8c03fe4E', symObjAddr: 0x382D4, symBinAddr: 0x100037C34, symSize: 0x68 }
  - { offset: 0x3BCA8D, size: 0x8, addend: 0x0, symName: _OUTLINED_FUNCTION_52, symObjAddr: 0xA3058, symBinAddr: 0x10009D740, symSize: 0x14 }
  - { offset: 0x229C8B, size: 0x8, addend: 0x0, symName: '__ZN90_$LT$percent_encoding..PercentEncode$u20$as$u20$core..iter..traits..iterator..Iterator$GT$4next17hd299d132aee7c68dE', symObjAddr: 0x4F508, symBinAddr: 0x10004E0D4, symSize: 0xE0 }
  - { offset: 0x229CCF, size: 0x8, addend: 0x0, symName: '__ZN90_$LT$percent_encoding..PercentEncode$u20$as$u20$core..iter..traits..iterator..Iterator$GT$4next17hd299d132aee7c68dE', symObjAddr: 0x4F508, symBinAddr: 0x10004E0D4, symSize: 0xE0 }
  - { offset: 0x22A032, size: 0x8, addend: 0x0, symName: __ZN16percent_encoding18after_percent_sign17h9fb65002377faa5aE, symObjAddr: 0x4F650, symBinAddr: 0x10004E21C, symSize: 0x80 }
  - { offset: 0x22B54F, size: 0x8, addend: 0x0, symName: '__ZN4core4char7methods22_$LT$impl$u20$char$GT$8to_digit17h105aa7855312a7abE.1004', symObjAddr: 0x4F6D0, symBinAddr: 0x10004E29C, symSize: 0x24 }
  - { offset: 0x22BBE0, size: 0x8, addend: 0x0, symName: '__ZN87_$LT$T$u20$as$u20$alloc..slice..$LT$impl$u20$$u5b$T$u5d$$GT$..to_vec_in..ConvertVec$GT$6to_vec17h8e285100c4b0605eE', symObjAddr: 0x4F5E8, symBinAddr: 0x10004E1B4, symSize: 0x50 }
  - { offset: 0x22C185, size: 0x8, addend: 0x0, symName: __ZN16percent_encoding9ascii_set8AsciiSet21should_percent_encode17h288a6c48fedb5425E, symObjAddr: 0x4F638, symBinAddr: 0x10004E204, symSize: 0x18 }
  - { offset: 0x2B5D62, size: 0x8, addend: 0x0, symName: '__ZN5tokio4sync9semaphore9Semaphore18acquire_many_owned28_$u7b$$u7b$closure$u7d$$u7d$17h4b2f6c315c551782E', symObjAddr: 0x8884C, symBinAddr: 0x100083088, symSize: 0xCC }
  - { offset: 0x2B6EB3, size: 0x8, addend: 0x0, symName: '__ZN4core3ptr270drop_in_place$LT$core..pin..Pin$LT$alloc..boxed..Box$LT$dyn$u20$core..future..future..Future$u2b$Output$u20$$u3d$$u20$core..result..Result$LT$tokio..sync..semaphore..OwnedSemaphorePermit$C$tokio..sync..batch_semaphore..AcquireError$GT$$u2b$core..marker..Send$GT$$GT$$GT$17ha38f7d0efa919e0eE', symObjAddr: 0x887D8, symBinAddr: 0x100083014, symSize: 0x34 }
  - { offset: 0x2B6FE2, size: 0x8, addend: 0x0, symName: '__ZN4core3ptr103drop_in_place$LT$tokio..sync..semaphore..Semaphore..acquire_many_owned..$u7b$$u7b$closure$u7d$$u7d$$GT$17he232d783dd668d0eE', symObjAddr: 0x8880C, symBinAddr: 0x100083048, symSize: 0x40 }
  - { offset: 0x2B70DF, size: 0x8, addend: 0x0, symName: '__ZN4core3ptr237drop_in_place$LT$core..option..Option$LT$$LP$u32$C$tokio_util..sync..reusable_box..ReusableBoxFuture$LT$core..result..Result$LT$tokio..sync..semaphore..OwnedSemaphorePermit$C$tokio..sync..batch_semaphore..AcquireError$GT$$GT$$RP$$GT$$GT$17h658d9f521c55a19dE', symObjAddr: 0x88A14, symBinAddr: 0x100083250, symSize: 0xC }
  - { offset: 0x2B732C, size: 0x8, addend: 0x0, symName: '__ZN88_$LT$core..future..pending..Pending$LT$T$GT$$u20$as$u20$core..future..future..Future$GT$4poll17h9a6635a41cc7523cE', symObjAddr: 0x88A0C, symBinAddr: 0x100083248, symSize: 0x8 }
  - { offset: 0x2B7E02, size: 0x8, addend: 0x0, symName: '__ZN110_$LT$core..ops..range..RangeFrom$LT$usize$GT$$u20$as$u20$core..slice..index..SliceIndex$LT$$u5b$T$u5d$$GT$$GT$9index_mut17h176d142849018942E', symObjAddr: 0x88E80, symBinAddr: 0x1000836BC, symSize: 0x18 }
  - { offset: 0x2B8250, size: 0x8, addend: 0x0, symName: __ZN4core5error5Error7type_id17h86f3f6e5de1034a3E, symObjAddr: 0x88E74, symBinAddr: 0x1000836B0, symSize: 0xC }
  - { offset: 0x2B8284, size: 0x8, addend: 0x0, symName: __ZN4core5error5Error7type_id17h86f3f6e5de1034a3E, symObjAddr: 0x88E74, symBinAddr: 0x1000836B0, symSize: 0xC }
  - { offset: 0x2B89DD, size: 0x8, addend: 0x0, symName: '__ZN101_$LT$tokio_util..codec..length_delimited..LengthDelimitedCodecError$u20$as$u20$core..fmt..Display$GT$3fmt17h7576eab73ca755dbE', symObjAddr: 0x887C0, symBinAddr: 0x100082FFC, symSize: 0x18 }
  - { offset: 0x2B8B90, size: 0x8, addend: 0x0, symName: '__ZN113_$LT$tokio_util..codec..length_delimited..LengthDelimitedCodec$u20$as$u20$tokio_util..codec..decoder..Decoder$GT$6decode17hb75782106946c84bE', symObjAddr: 0x88BC0, symBinAddr: 0x1000833FC, symSize: 0x238 }
  - { offset: 0x2B91C9, size: 0x8, addend: 0x0, symName: '__ZN99_$LT$tokio_util..codec..length_delimited..LengthDelimitedCodecError$u20$as$u20$core..fmt..Debug$GT$3fmt17h1c32086c58459f06E', symObjAddr: 0x88E44, symBinAddr: 0x100083680, symSize: 0x30 }
  - { offset: 0x2B9423, size: 0x8, addend: 0x0, symName: '__ZN74_$LT$bytes..bytes_mut..BytesMut$u20$as$u20$bytes..buf..buf_mut..BufMut$GT$3put17h1f048b2761111828E', symObjAddr: 0x88F60, symBinAddr: 0x100083788, symSize: 0x120 }
  - { offset: 0x2B9926, size: 0x8, addend: 0x0, symName: '__ZN5bytes3buf8buf_impl3Buf11get_uint_le28_$u7b$$u7b$closure$u7d$$u7d$17h473e89d745cb8886E', symObjAddr: 0x88F4C, symBinAddr: 0x1000AAD1C, symSize: 0x14 }
  - { offset: 0x2B9982, size: 0x8, addend: 0x0, symName: __ZN5bytes3buf8buf_impl3Buf17try_copy_to_slice17h68fd6d6751a9fe90E, symObjAddr: 0x88E98, symBinAddr: 0x1000836D4, symSize: 0xB4 }
  - { offset: 0x2B9D8A, size: 0x8, addend: 0x0, symName: '__ZN78_$LT$std..io..cursor..Cursor$LT$T$GT$$u20$as$u20$bytes..buf..buf_impl..Buf$GT$7advance17h2df3d75cdec9352aE', symObjAddr: 0x88DF8, symBinAddr: 0x100083634, symSize: 0x38 }
  - { offset: 0x2B9DC6, size: 0x8, addend: 0x0, symName: '__ZN78_$LT$std..io..cursor..Cursor$LT$T$GT$$u20$as$u20$bytes..buf..buf_impl..Buf$GT$7advance17h2df3d75cdec9352aE', symObjAddr: 0x88DF8, symBinAddr: 0x100083634, symSize: 0x38 }
  - { offset: 0x2BA32B, size: 0x8, addend: 0x0, symName: '__ZN10tokio_util4sync12reusable_box26ReusableBoxFuture$LT$T$GT$3new17hde3e767080e07d7aE', symObjAddr: 0x88918, symBinAddr: 0x100083154, symSize: 0x38 }
  - { offset: 0x2BA59D, size: 0x8, addend: 0x0, symName: '__ZN10tokio_util4sync12reusable_box26ReusableBoxFuture$LT$T$GT$3set17h76469b1933ab0c2aE', symObjAddr: 0x88950, symBinAddr: 0x10008318C, symSize: 0xBC }
  - { offset: 0x2BAB07, size: 0x8, addend: 0x0, symName: __ZN10tokio_util4sync14poll_semaphore13PollSemaphore12poll_acquire17hf3160d5f9717ee93E, symObjAddr: 0x88A20, symBinAddr: 0x10008325C, symSize: 0x1A0 }
  - { offset: 0x2BB441, size: 0x8, addend: 0x0, symName: __ZN3std2io5error5Error3new17h7a1babba8f11c6f2E, symObjAddr: 0x88E30, symBinAddr: 0x10008366C, symSize: 0x14 }
  - { offset: 0x2BB633, size: 0x8, addend: 0x0, symName: __ZN5bytes9bytes_mut8BytesMut17extend_from_slice17h8c13c0ec57e63febE.1957, symObjAddr: 0x89080, symBinAddr: 0x1000838A8, symSize: 0x54 }
  - { offset: 0x2BB8D2, size: 0x8, addend: 0x0, symName: _OUTLINED_FUNCTION_1080, symObjAddr: 0xA725C, symBinAddr: 0x1000A1944, symSize: 0x10 }
  - { offset: 0x2BB8EA, size: 0x8, addend: 0x0, symName: _OUTLINED_FUNCTION_1458, symObjAddr: 0xA88F4, symBinAddr: 0x1000A2FDC, symSize: 0xC }
  - { offset: 0xBE549, size: 0x8, addend: 0x0, symName: '__ZN93_$LT$clap_builder..parser..matches..matched_arg..MatchedArg$u20$as$u20$core..clone..Clone$GT$5clone17hd445673a7fb513fbE', symObjAddr: 0x2F7A0, symBinAddr: 0x10002F760, symSize: 0x1FC }
  - { offset: 0xBFD89, size: 0x8, addend: 0x0, symName: '__ZN12clap_builder6parser8features11suggestions17did_you_mean_flag28_$u7b$$u7b$closure$u7d$$u7d$17h5c453d47eeec6a28E', symObjAddr: 0x1CB5C, symBinAddr: 0x10001CB1C, symSize: 0x2BC }
  - { offset: 0xC158A, size: 0x8, addend: 0x0, symName: '__ZN12clap_builder6parser9validator9Validator25fails_arg_required_unless28_$u7b$$u7b$closure$u7d$$u7d$17ha1a856133349c7b4E', symObjAddr: 0x32AA4, symBinAddr: 0x100032A64, symSize: 0xC }
  - { offset: 0xC16F0, size: 0x8, addend: 0x0, symName: __ZN12clap_builder6parser9validator23gather_direct_conflicts17h7fd9141188b787afE, symObjAddr: 0x2620C, symBinAddr: 0x1000261CC, symSize: 0x120 }
  - { offset: 0xC1F90, size: 0x8, addend: 0x0, symName: '__ZN80_$LT$clap_builder..parser..error..MatchesError$u20$as$u20$core..fmt..Display$GT$3fmt17h795d36f9e02f0fc8E', symObjAddr: 0x2BB50, symBinAddr: 0x10002BB10, symSize: 0x7C }
  - { offset: 0xC2396, size: 0x8, addend: 0x0, symName: '__ZN78_$LT$clap_builder..util..any_value..AnyValueId$u20$as$u20$core..fmt..Debug$GT$3fmt17h6507fb393313ae70E', symObjAddr: 0x33028, symBinAddr: 0x100032FE8, symSize: 0x14 }
  - { offset: 0xC23C3, size: 0x8, addend: 0x0, symName: '__ZN76_$LT$clap_builder..util..any_value..AnyValue$u20$as$u20$core..fmt..Debug$GT$3fmt17h4396e18d9f959decE', symObjAddr: 0x32FC4, symBinAddr: 0x100032F84, symSize: 0x64 }
  - { offset: 0xC2C28, size: 0x8, addend: 0x0, symName: '__ZN106_$LT$clap_builder..util..flat_map..Iter$LT$K$C$V$GT$$u20$as$u20$core..iter..traits..iterator..Iterator$GT$4next17hb8f45941d9efec1dE', symObjAddr: 0x24B90, symBinAddr: 0x100024B50, symSize: 0x44 }
  - { offset: 0xC3501, size: 0x8, addend: 0x0, symName: '__ZN111_$LT$clap_builder..util..flat_set..FlatSet$LT$T$GT$$u20$as$u20$core..iter..traits..collect..Extend$LT$T$GT$$GT$6extend17h849d0ba836b71429E', symObjAddr: 0x22AC0, symBinAddr: 0x100022A80, symSize: 0x5C }
  - { offset: 0xC37EA, size: 0x8, addend: 0x0, symName: '__ZN73_$LT$clap_builder..util..escape..Escape$u20$as$u20$core..fmt..Display$GT$3fmt17h01ffdc65bd042b2dE', symObjAddr: 0x2554C, symBinAddr: 0x10002550C, symSize: 0x54 }
  - { offset: 0xC39F7, size: 0x8, addend: 0x0, symName: '__ZN70_$LT$clap_builder..builder..str..Str$u20$as$u20$core..fmt..Display$GT$3fmt17hbda06f058f23a846E', symObjAddr: 0x2053C, symBinAddr: 0x1000204FC, symSize: 0xC }
  - { offset: 0xC3BE9, size: 0x8, addend: 0x0, symName: '__ZN91_$LT$$RF$clap_builder..builder..styled_str..StyledStr$u20$as$u20$core..default..Default$GT$7default7DEFAULT17h4572d91d3e5c0e45E', symObjAddr: 0xAE870, symBinAddr: 0x1000AFC38, symSize: 0x0 }
  - { offset: 0xC3BFE, size: 0x8, addend: 0x0, symName: '__ZN99_$LT$clap_builder..builder..styled_str..StyledStr$u20$as$u20$core..convert..From$LT$$RF$str$GT$$GT$4from17ha76735ec8d9deb99E', symObjAddr: 0x1E380, symBinAddr: 0x10001E340, symSize: 0x34 }
  - { offset: 0xC3D8F, size: 0x8, addend: 0x0, symName: '__ZN83_$LT$clap_builder..builder..styled_str..StyledStr$u20$as$u20$core..fmt..Display$GT$3fmt17hbce7c56bf9e5d1bfE', symObjAddr: 0x1FEC4, symBinAddr: 0x10001FE84, symSize: 0x4C }
  - { offset: 0xC408A, size: 0x8, addend: 0x0, symName: '__ZN73_$LT$P$u20$as$u20$clap_builder..builder..value_parser..AnyValueParser$GT$9parse_ref17ha9def91b6590adeaE', symObjAddr: 0x1ED38, symBinAddr: 0x10001ECF8, symSize: 0x34 }
  - { offset: 0xC4116, size: 0x8, addend: 0x0, symName: '__ZN73_$LT$P$u20$as$u20$clap_builder..builder..value_parser..AnyValueParser$GT$10parse_ref_17h5551e99188571e0cE', symObjAddr: 0x1ED6C, symBinAddr: 0x10001ED2C, symSize: 0x34 }
  - { offset: 0xC41AE, size: 0x8, addend: 0x0, symName: '__ZN73_$LT$P$u20$as$u20$clap_builder..builder..value_parser..AnyValueParser$GT$7type_id17ha87837c6555db82fE', symObjAddr: 0x1EDA0, symBinAddr: 0x10001ED60, symSize: 0xC }
  - { offset: 0xC41DC, size: 0x8, addend: 0x0, symName: '__ZN73_$LT$P$u20$as$u20$clap_builder..builder..value_parser..AnyValueParser$GT$7type_id17ha87837c6555db82fE', symObjAddr: 0x1EDA0, symBinAddr: 0x10001ED60, symSize: 0xC }
  - { offset: 0xC4200, size: 0x8, addend: 0x0, symName: '__ZN73_$LT$P$u20$as$u20$clap_builder..builder..value_parser..AnyValueParser$GT$9clone_any17he59028545fe72ce5E', symObjAddr: 0x1EDAC, symBinAddr: 0x10001ED6C, symSize: 0x40 }
  - { offset: 0xC429A, size: 0x8, addend: 0x0, symName: '__ZN73_$LT$P$u20$as$u20$clap_builder..builder..value_parser..AnyValueParser$GT$9parse_ref17h4fdfca0c963908cdE', symObjAddr: 0x23AA8, symBinAddr: 0x100023A68, symSize: 0x34 }
  - { offset: 0xC4322, size: 0x8, addend: 0x0, symName: '__ZN73_$LT$P$u20$as$u20$clap_builder..builder..value_parser..AnyValueParser$GT$10parse_ref_17h0a0888e22bb286b1E', symObjAddr: 0x23ADC, symBinAddr: 0x100023A9C, symSize: 0x34 }
  - { offset: 0xC43B6, size: 0x8, addend: 0x0, symName: '__ZN73_$LT$P$u20$as$u20$clap_builder..builder..value_parser..AnyValueParser$GT$7type_id17heddd0cce0672a52aE', symObjAddr: 0x23B10, symBinAddr: 0x100023AD0, symSize: 0xC }
  - { offset: 0xC43E4, size: 0x8, addend: 0x0, symName: '__ZN73_$LT$P$u20$as$u20$clap_builder..builder..value_parser..AnyValueParser$GT$7type_id17heddd0cce0672a52aE', symObjAddr: 0x23B10, symBinAddr: 0x100023AD0, symSize: 0xC }
  - { offset: 0xC4408, size: 0x8, addend: 0x0, symName: '__ZN73_$LT$P$u20$as$u20$clap_builder..builder..value_parser..AnyValueParser$GT$15possible_values17hc0f70ba774d36d99E', symObjAddr: 0x23B1C, symBinAddr: 0x100023ADC, symSize: 0x2C }
  - { offset: 0xC447A, size: 0x8, addend: 0x0, symName: '__ZN73_$LT$P$u20$as$u20$clap_builder..builder..value_parser..AnyValueParser$GT$9clone_any17hbfd7f65212a6fd88E', symObjAddr: 0x23B48, symBinAddr: 0x100023B08, symSize: 0x1C }
  - { offset: 0xC44B7, size: 0x8, addend: 0x0, symName: '__ZN73_$LT$P$u20$as$u20$clap_builder..builder..value_parser..AnyValueParser$GT$9parse_ref17h55f9ce95d2acb846E', symObjAddr: 0x241F8, symBinAddr: 0x1000241B8, symSize: 0x34 }
  - { offset: 0xC4542, size: 0x8, addend: 0x0, symName: '__ZN73_$LT$P$u20$as$u20$clap_builder..builder..value_parser..AnyValueParser$GT$10parse_ref_17heedeadeb9bd5c50aE', symObjAddr: 0x2422C, symBinAddr: 0x1000241EC, symSize: 0x34 }
  - { offset: 0xC45D9, size: 0x8, addend: 0x0, symName: '__ZN73_$LT$P$u20$as$u20$clap_builder..builder..value_parser..AnyValueParser$GT$7type_id17h7ccef8900c779014E', symObjAddr: 0x24260, symBinAddr: 0x100024220, symSize: 0xC }
  - { offset: 0xC4607, size: 0x8, addend: 0x0, symName: '__ZN73_$LT$P$u20$as$u20$clap_builder..builder..value_parser..AnyValueParser$GT$7type_id17h7ccef8900c779014E', symObjAddr: 0x24260, symBinAddr: 0x100024220, symSize: 0xC }
  - { offset: 0xC462B, size: 0x8, addend: 0x0, symName: '__ZN73_$LT$P$u20$as$u20$clap_builder..builder..value_parser..AnyValueParser$GT$9clone_any17ha3a300cf3dd8bcdaE', symObjAddr: 0x2426C, symBinAddr: 0x10002422C, symSize: 0x1C }
  - { offset: 0xC4668, size: 0x8, addend: 0x0, symName: '__ZN73_$LT$P$u20$as$u20$clap_builder..builder..value_parser..AnyValueParser$GT$9parse_ref17h612a5a56056527c5E', symObjAddr: 0x243C0, symBinAddr: 0x100024380, symSize: 0x34 }
  - { offset: 0xC46EB, size: 0x8, addend: 0x0, symName: '__ZN73_$LT$P$u20$as$u20$clap_builder..builder..value_parser..AnyValueParser$GT$10parse_ref_17h1e4d6bd56e8a142cE', symObjAddr: 0x243F4, symBinAddr: 0x1000243B4, symSize: 0x34 }
  - { offset: 0xC477A, size: 0x8, addend: 0x0, symName: '__ZN73_$LT$P$u20$as$u20$clap_builder..builder..value_parser..AnyValueParser$GT$7type_id17h46a225fd6593bf68E', symObjAddr: 0x24428, symBinAddr: 0x1000243E8, symSize: 0xC }
  - { offset: 0xC47A8, size: 0x8, addend: 0x0, symName: '__ZN73_$LT$P$u20$as$u20$clap_builder..builder..value_parser..AnyValueParser$GT$7type_id17h46a225fd6593bf68E', symObjAddr: 0x24428, symBinAddr: 0x1000243E8, symSize: 0xC }
  - { offset: 0xC47CC, size: 0x8, addend: 0x0, symName: '__ZN73_$LT$P$u20$as$u20$clap_builder..builder..value_parser..AnyValueParser$GT$9clone_any17he63698df17837d00E', symObjAddr: 0x24434, symBinAddr: 0x1000243F4, symSize: 0x1C }
  - { offset: 0xC4809, size: 0x8, addend: 0x0, symName: '__ZN73_$LT$P$u20$as$u20$clap_builder..builder..value_parser..AnyValueParser$GT$9parse_ref17hcbe189c756ddeb15E', symObjAddr: 0x2449C, symBinAddr: 0x10002445C, symSize: 0x34 }
  - { offset: 0xC4890, size: 0x8, addend: 0x0, symName: '__ZN73_$LT$P$u20$as$u20$clap_builder..builder..value_parser..AnyValueParser$GT$10parse_ref_17h572b1cd7fd725f6eE', symObjAddr: 0x244D0, symBinAddr: 0x100024490, symSize: 0x34 }
  - { offset: 0xC4923, size: 0x8, addend: 0x0, symName: '__ZN73_$LT$P$u20$as$u20$clap_builder..builder..value_parser..AnyValueParser$GT$7type_id17h716275f9a6b45410E', symObjAddr: 0x24504, symBinAddr: 0x1000244C4, symSize: 0xC }
  - { offset: 0xC4951, size: 0x8, addend: 0x0, symName: '__ZN73_$LT$P$u20$as$u20$clap_builder..builder..value_parser..AnyValueParser$GT$7type_id17h716275f9a6b45410E', symObjAddr: 0x24504, symBinAddr: 0x1000244C4, symSize: 0xC }
  - { offset: 0xC4975, size: 0x8, addend: 0x0, symName: '__ZN73_$LT$P$u20$as$u20$clap_builder..builder..value_parser..AnyValueParser$GT$9clone_any17h2420af73d8c8b32cE', symObjAddr: 0x24510, symBinAddr: 0x1000244D0, symSize: 0x1C }
  - { offset: 0xC4BD1, size: 0x8, addend: 0x0, symName: '__ZN140_$LT$clap_builder..builder..value_parser..RangedI64ValueParser$LT$T$GT$$u20$as$u20$clap_builder..builder..value_parser..TypedValueParser$GT$9parse_ref17h0075a77920ceafb3E', symObjAddr: 0x1EDEC, symBinAddr: 0x10001EDAC, symSize: 0x464 }
  - { offset: 0xC5962, size: 0x8, addend: 0x0, symName: '__ZN126_$LT$clap_builder..builder..value_parser..BoolValueParser$u20$as$u20$clap_builder..builder..value_parser..TypedValueParser$GT$9parse_ref17h3c3d0fd0a822d210E', symObjAddr: 0x23C88, symBinAddr: 0x100023C48, symSize: 0x16C }
  - { offset: 0xC6093, size: 0x8, addend: 0x0, symName: '__ZN129_$LT$clap_builder..builder..value_parser..PathBufValueParser$u20$as$u20$clap_builder..builder..value_parser..TypedValueParser$GT$9parse_ref17h3e518fd8e4ce936bE', symObjAddr: 0x24288, symBinAddr: 0x100024248, symSize: 0x98 }
  - { offset: 0xC63E7, size: 0x8, addend: 0x0, symName: '__ZN128_$LT$clap_builder..builder..value_parser..StringValueParser$u20$as$u20$clap_builder..builder..value_parser..TypedValueParser$GT$9parse_ref17h906af2cabf8d86ebE', symObjAddr: 0x2452C, symBinAddr: 0x1000244EC, symSize: 0xB8 }
  - { offset: 0xC6648, size: 0x8, addend: 0x0, symName: __ZN12clap_builder7builder3arg3Arg16get_value_parser7DEFAULT17hec5c1925602c66f6E, symObjAddr: 0xAD5D8, symBinAddr: 0x1000AE9A0, symSize: 0x0 }
  - { offset: 0xC6CFB, size: 0x8, addend: 0x0, symName: '__ZN70_$LT$clap_builder..builder..arg..Arg$u20$as$u20$core..clone..Clone$GT$5clone17h5817cc0fc19502b2E', symObjAddr: 0x1E814, symBinAddr: 0x10001E7D4, symSize: 0x424 }
  - { offset: 0xC74A3, size: 0x8, addend: 0x0, symName: __ZN12clap_builder7builder7command7Command36get_external_subcommand_value_parser7DEFAULT17h0f89f7de6f0bca94E, symObjAddr: 0xAD6D8, symBinAddr: 0x1000AEAA0, symSize: 0x0 }
  - { offset: 0xC8C85, size: 0x8, addend: 0x0, symName: '__ZN78_$LT$clap_builder..builder..command..Command$u20$as$u20$core..clone..Clone$GT$5clone17h5a8faa8858318391E', symObjAddr: 0x21588, symBinAddr: 0x100021548, symSize: 0x3F0 }
  - { offset: 0xC9619, size: 0x8, addend: 0x0, symName: '__ZN121_$LT$clap_builder..builder..command..Command$u20$as$u20$core..ops..index..Index$LT$$RF$clap_builder..util..id..Id$GT$$GT$5index17ha958980fb51efd6dE', symObjAddr: 0x260F0, symBinAddr: 0x1000260B0, symSize: 0x24 }
  - { offset: 0xC9AD5, size: 0x8, addend: 0x0, symName: '__ZN77_$LT$clap_builder..builder..ext..Extensions$u20$as$u20$core..clone..Clone$GT$5clone17hd5f43d8b6c6e4f5cE', symObjAddr: 0x23500, symBinAddr: 0x1000234C0, symSize: 0x64 }
  - { offset: 0xCA41E, size: 0x8, addend: 0x0, symName: __ZN12clap_builder6output8textwrap4core13display_width17h66ec1623cf2990b1E, symObjAddr: 0x24A9C, symBinAddr: 0x100024A5C, symSize: 0x80 }
  - { offset: 0xCAA38, size: 0x8, addend: 0x0, symName: __ZN12clap_builder6output13help_template15should_show_arg17h55314dbe7b3ac803E, symObjAddr: 0x25860, symBinAddr: 0x100025820, symSize: 0x24 }
  - { offset: 0xCB1BE, size: 0x8, addend: 0x0, symName: __ZN12clap_builder6output13help_template19positional_sort_key17hfec2d1ef4353bbcbE, symObjAddr: 0x28DDC, symBinAddr: 0x100028D9C, symSize: 0x20 }
  - { offset: 0xCB1EE, size: 0x8, addend: 0x0, symName: __ZN12clap_builder6output13help_template19positional_sort_key17hfec2d1ef4353bbcbE, symObjAddr: 0x28DDC, symBinAddr: 0x100028D9C, symSize: 0x20 }
  - { offset: 0xCB22D, size: 0x8, addend: 0x0, symName: __ZN12clap_builder6output13help_template15option_sort_key17h856f7e854be329b8E, symObjAddr: 0x2984C, symBinAddr: 0x10002980C, symSize: 0xAC }
  - { offset: 0xCBF81, size: 0x8, addend: 0x0, symName: __ZN12clap_builder5error6format13get_help_flag17h0d62ace36dc1c6faE, symObjAddr: 0x1F930, symBinAddr: 0x10001F8F0, symSize: 0x160 }
  - { offset: 0xCC409, size: 0x8, addend: 0x0, symName: __ZN12clap_builder5error6format11start_error17hb739394e1f605b4eE, symObjAddr: 0x24F98, symBinAddr: 0x100024F58, symSize: 0x60 }
  - { offset: 0xCC4E3, size: 0x8, addend: 0x0, symName: __ZN12clap_builder5error6format17write_values_list17h7b4ace240183c326E, symObjAddr: 0x25088, symBinAddr: 0x100025048, symSize: 0x12C }
  - { offset: 0xCC921, size: 0x8, addend: 0x0, symName: __ZN12clap_builder5error6format12did_you_mean17h8d32d9695ad9e68dE, symObjAddr: 0x252C4, symBinAddr: 0x100025284, symSize: 0x1DC }
  - { offset: 0xCCDB3, size: 0x8, addend: 0x0, symName: __ZN12clap_builder5error6format8try_help17h427cd899feab5f37E, symObjAddr: 0x254A0, symBinAddr: 0x100025460, symSize: 0x7C }
  - { offset: 0xCCDFD, size: 0x8, addend: 0x0, symName: __ZN12clap_builder5error6format8try_help17h427cd899feab5f37E, symObjAddr: 0x254A0, symBinAddr: 0x100025460, symSize: 0x7C }
  - { offset: 0xCCF32, size: 0x8, addend: 0x0, symName: __ZN12clap_builder5error6format9put_usage17hdab586a682350494E, symObjAddr: 0x2551C, symBinAddr: 0x1000254DC, symSize: 0x30 }
  - { offset: 0xCD6B9, size: 0x8, addend: 0x0, symName: __ZN12clap_builder5error6format20format_error_message17h32d79ac3f4e15ebaE, symObjAddr: 0x2729C, symBinAddr: 0x10002725C, symSize: 0x9C }
  - { offset: 0xD12DA, size: 0x8, addend: 0x0, symName: '__ZN103_$LT$alloc..vec..into_iter..IntoIter$LT$T$C$A$GT$$u20$as$u20$core..iter..traits..iterator..Iterator$GT$4next17h37491febb98cc3fdE', symObjAddr: 0x25C9C, symBinAddr: 0x100025C5C, symSize: 0x24 }
  - { offset: 0xD18AC, size: 0x8, addend: 0x0, symName: '__ZN86_$LT$alloc..vec..into_iter..IntoIter$LT$T$C$A$GT$$u20$as$u20$core..ops..drop..Drop$GT$4drop17hcd66aff6247afc7dE', symObjAddr: 0x1DED8, symBinAddr: 0x10001DE98, symSize: 0x2C }
  - { offset: 0xD1A15, size: 0x8, addend: 0x0, symName: '__ZN86_$LT$alloc..vec..into_iter..IntoIter$LT$T$C$A$GT$$u20$as$u20$core..ops..drop..Drop$GT$4drop17h0ca5317f1954a168E', symObjAddr: 0x22B1C, symBinAddr: 0x100022ADC, symSize: 0x10 }
  - { offset: 0xD28AA, size: 0x8, addend: 0x0, symName: '__ZN111_$LT$alloc..vec..Vec$LT$T$GT$$u20$as$u20$alloc..vec..spec_from_iter_nested..SpecFromIterNested$LT$T$C$I$GT$$GT$9from_iter17hdc0df56d3ede5120E', symObjAddr: 0x23918, symBinAddr: 0x1000238D8, symSize: 0x104 }
  - { offset: 0xD4FEE, size: 0x8, addend: 0x0, symName: '__ZN93_$LT$alloc..vec..Vec$LT$T$C$A$GT$$u20$as$u20$core..iter..traits..collect..Extend$LT$T$GT$$GT$6extend17h020a2f4aa274bcc8E', symObjAddr: 0x22498, symBinAddr: 0x100022458, symSize: 0x88 }
  - { offset: 0xD6BC2, size: 0x8, addend: 0x0, symName: '__ZN70_$LT$alloc..vec..Vec$LT$T$C$A$GT$$u20$as$u20$core..ops..drop..Drop$GT$4drop17h334209a5c5123e99E', symObjAddr: 0x1DD58, symBinAddr: 0x10001DD18, symSize: 0x28 }
  - { offset: 0xD6C72, size: 0x8, addend: 0x0, symName: '__ZN70_$LT$alloc..vec..Vec$LT$T$C$A$GT$$u20$as$u20$core..ops..drop..Drop$GT$4drop17hee90f3994b84f059E', symObjAddr: 0x24630, symBinAddr: 0x1000245F0, symSize: 0x30 }
  - { offset: 0xD6D58, size: 0x8, addend: 0x0, symName: '__ZN70_$LT$alloc..vec..Vec$LT$T$C$A$GT$$u20$as$u20$core..ops..drop..Drop$GT$4drop17he2ca964b871600b8E', symObjAddr: 0x246CC, symBinAddr: 0x10002468C, symSize: 0x128 }
  - { offset: 0xD72AA, size: 0x8, addend: 0x0, symName: '__ZN70_$LT$alloc..vec..Vec$LT$T$C$A$GT$$u20$as$u20$core..ops..drop..Drop$GT$4drop17h1c9e7e29196c3dfdE', symObjAddr: 0x2480C, symBinAddr: 0x1000247CC, symSize: 0x44 }
  - { offset: 0xD73DB, size: 0x8, addend: 0x0, symName: '__ZN70_$LT$alloc..vec..Vec$LT$T$C$A$GT$$u20$as$u20$core..ops..drop..Drop$GT$4drop17h25975eddc293997fE', symObjAddr: 0x248A4, symBinAddr: 0x100024864, symSize: 0x30 }
  - { offset: 0xD745F, size: 0x8, addend: 0x0, symName: '__ZN70_$LT$alloc..vec..Vec$LT$T$C$A$GT$$u20$as$u20$core..ops..drop..Drop$GT$4drop17h591421e58aaaa3b7E', symObjAddr: 0x2BD3C, symBinAddr: 0x10002BCFC, symSize: 0x2C }
  - { offset: 0xD74B7, size: 0x8, addend: 0x0, symName: '__ZN70_$LT$alloc..vec..Vec$LT$T$C$A$GT$$u20$as$u20$core..ops..drop..Drop$GT$4drop17h7f542b74dc4b8bb5E', symObjAddr: 0x2BD88, symBinAddr: 0x10002BD48, symSize: 0x2C }
  - { offset: 0xD7567, size: 0x8, addend: 0x0, symName: '__ZN70_$LT$alloc..vec..Vec$LT$T$C$A$GT$$u20$as$u20$core..ops..drop..Drop$GT$4drop17ha90748265dab6723E', symObjAddr: 0x2F764, symBinAddr: 0x10002F724, symSize: 0x30 }
  - { offset: 0xD764F, size: 0x8, addend: 0x0, symName: '__ZN84_$LT$alloc..vec..Vec$LT$T$C$A$GT$$u20$as$u20$core..ops..index..IndexMut$LT$I$GT$$GT$9index_mut17h4ebe9a10f9e9b7faE', symObjAddr: 0x264AC, symBinAddr: 0x10002646C, symSize: 0x18 }
  - { offset: 0xD768B, size: 0x8, addend: 0x0, symName: '__ZN84_$LT$alloc..vec..Vec$LT$T$C$A$GT$$u20$as$u20$core..ops..index..IndexMut$LT$I$GT$$GT$9index_mut17h4ebe9a10f9e9b7faE', symObjAddr: 0x264AC, symBinAddr: 0x10002646C, symSize: 0x18 }
  - { offset: 0xD76B0, size: 0x8, addend: 0x0, symName: '__ZN84_$LT$alloc..vec..Vec$LT$T$C$A$GT$$u20$as$u20$core..ops..index..IndexMut$LT$I$GT$$GT$9index_mut17h4ebe9a10f9e9b7faE', symObjAddr: 0x264AC, symBinAddr: 0x10002646C, symSize: 0x18 }
  - { offset: 0xD7CCA, size: 0x8, addend: 0x0, symName: '__ZN67_$LT$alloc..vec..Vec$LT$T$C$A$GT$$u20$as$u20$core..clone..Clone$GT$5clone17hc64f5da95c2aafaeE', symObjAddr: 0x204F0, symBinAddr: 0x1000204B0, symSize: 0x44 }
  - { offset: 0xD7F18, size: 0x8, addend: 0x0, symName: '__ZN67_$LT$alloc..vec..Vec$LT$T$C$A$GT$$u20$as$u20$core..clone..Clone$GT$5clone17he200701e235a95cdE', symObjAddr: 0x23414, symBinAddr: 0x1000233D4, symSize: 0x60 }
  - { offset: 0xD812D, size: 0x8, addend: 0x0, symName: '__ZN67_$LT$alloc..vec..Vec$LT$T$C$A$GT$$u20$as$u20$core..clone..Clone$GT$5clone17h50102ce7d75ce715E', symObjAddr: 0x23474, symBinAddr: 0x100023434, symSize: 0x40 }
  - { offset: 0xD82D4, size: 0x8, addend: 0x0, symName: '__ZN67_$LT$alloc..vec..Vec$LT$T$C$A$GT$$u20$as$u20$core..clone..Clone$GT$5clone17h3e278129bbfa7cc5E', symObjAddr: 0x23564, symBinAddr: 0x100023524, symSize: 0x70 }
  - { offset: 0xD8519, size: 0x8, addend: 0x0, symName: '__ZN67_$LT$alloc..vec..Vec$LT$T$C$A$GT$$u20$as$u20$core..clone..Clone$GT$5clone17h436330bf3dc71d23E', symObjAddr: 0x235D4, symBinAddr: 0x100023594, symSize: 0x44 }
  - { offset: 0xD866B, size: 0x8, addend: 0x0, symName: '__ZN67_$LT$alloc..vec..Vec$LT$T$C$A$GT$$u20$as$u20$core..clone..Clone$GT$5clone17h70c83bd210a682d3E', symObjAddr: 0x237DC, symBinAddr: 0x10002379C, symSize: 0x5C }
  - { offset: 0xD8D89, size: 0x8, addend: 0x0, symName: '__ZN81_$LT$alloc..vec..Vec$LT$T$C$A$GT$$u20$as$u20$core..ops..index..Index$LT$I$GT$$GT$5index17h5ecb3c38beb002c7E', symObjAddr: 0x23294, symBinAddr: 0x100023254, symSize: 0x20 }
  - { offset: 0xD8DC6, size: 0x8, addend: 0x0, symName: '__ZN81_$LT$alloc..vec..Vec$LT$T$C$A$GT$$u20$as$u20$core..ops..index..Index$LT$I$GT$$GT$5index17h5ecb3c38beb002c7E', symObjAddr: 0x23294, symBinAddr: 0x100023254, symSize: 0x20 }
  - { offset: 0xD8DEB, size: 0x8, addend: 0x0, symName: '__ZN81_$LT$alloc..vec..Vec$LT$T$C$A$GT$$u20$as$u20$core..ops..index..Index$LT$I$GT$$GT$5index17h5ecb3c38beb002c7E', symObjAddr: 0x23294, symBinAddr: 0x100023254, symSize: 0x20 }
  - { offset: 0xD8EB3, size: 0x8, addend: 0x0, symName: '__ZN81_$LT$alloc..vec..Vec$LT$T$C$A$GT$$u20$as$u20$core..ops..index..Index$LT$I$GT$$GT$5index17hd14d837e8ee9c292E', symObjAddr: 0x26080, symBinAddr: 0x100026040, symSize: 0x24 }
  - { offset: 0xD8EF0, size: 0x8, addend: 0x0, symName: '__ZN81_$LT$alloc..vec..Vec$LT$T$C$A$GT$$u20$as$u20$core..ops..index..Index$LT$I$GT$$GT$5index17hd14d837e8ee9c292E', symObjAddr: 0x26080, symBinAddr: 0x100026040, symSize: 0x24 }
  - { offset: 0xD8F15, size: 0x8, addend: 0x0, symName: '__ZN81_$LT$alloc..vec..Vec$LT$T$C$A$GT$$u20$as$u20$core..ops..index..Index$LT$I$GT$$GT$5index17hd14d837e8ee9c292E', symObjAddr: 0x26080, symBinAddr: 0x100026040, symSize: 0x24 }
  - { offset: 0xD9652, size: 0x8, addend: 0x0, symName: '__ZN63_$LT$alloc..alloc..Global$u20$as$u20$core..alloc..Allocator$GT$6shrink17ha76ca31a02f1250eE', symObjAddr: 0x1DE68, symBinAddr: 0x10001DE28, symSize: 0x70 }
  - { offset: 0xD97A8, size: 0x8, addend: 0x0, symName: '__ZN63_$LT$alloc..alloc..Global$u20$as$u20$core..alloc..Allocator$GT$8allocate17hdeeb61e84d47f323E.302', symObjAddr: 0x2A010, symBinAddr: 0x100029FD0, symSize: 0xC }
  - { offset: 0xD9836, size: 0x8, addend: 0x0, symName: __ZN5alloc5alloc15exchange_malloc17hca9577c5b3236b08E.217, symObjAddr: 0x1EC70, symBinAddr: 0x10001EC30, symSize: 0x28 }
  - { offset: 0xDB6C2, size: 0x8, addend: 0x0, symName: '__ZN77_$LT$alloc..raw_vec..RawVec$LT$T$C$A$GT$$u20$as$u20$core..ops..drop..Drop$GT$4drop17h1f4e68674b321bbeE', symObjAddr: 0x1DD80, symBinAddr: 0x10001DD40, symSize: 0xC }
  - { offset: 0xDB77F, size: 0x8, addend: 0x0, symName: '__ZN77_$LT$alloc..raw_vec..RawVec$LT$T$C$A$GT$$u20$as$u20$core..ops..drop..Drop$GT$4drop17hee3bd6121b9ca26eE', symObjAddr: 0x24660, symBinAddr: 0x100024620, symSize: 0xC }
  - { offset: 0xDB7B8, size: 0x8, addend: 0x0, symName: '__ZN77_$LT$alloc..raw_vec..RawVec$LT$T$C$A$GT$$u20$as$u20$core..ops..drop..Drop$GT$4drop17h6c69b6af5f51a10dE', symObjAddr: 0x246C0, symBinAddr: 0x100024680, symSize: 0xC }
  - { offset: 0xDB81D, size: 0x8, addend: 0x0, symName: '__ZN77_$LT$alloc..raw_vec..RawVec$LT$T$C$A$GT$$u20$as$u20$core..ops..drop..Drop$GT$4drop17ha94a1e015219d03eE', symObjAddr: 0x247F4, symBinAddr: 0x1000247B4, symSize: 0xC }
  - { offset: 0xDB856, size: 0x8, addend: 0x0, symName: '__ZN77_$LT$alloc..raw_vec..RawVec$LT$T$C$A$GT$$u20$as$u20$core..ops..drop..Drop$GT$4drop17h0e9a0ef7d84da036E', symObjAddr: 0x24800, symBinAddr: 0x1000247C0, symSize: 0xC }
  - { offset: 0xDB88F, size: 0x8, addend: 0x0, symName: '__ZN77_$LT$alloc..raw_vec..RawVec$LT$T$C$A$GT$$u20$as$u20$core..ops..drop..Drop$GT$4drop17hd7e10354b7786f85E', symObjAddr: 0x24850, symBinAddr: 0x100024810, symSize: 0xC }
  - { offset: 0xDB8C8, size: 0x8, addend: 0x0, symName: '__ZN77_$LT$alloc..raw_vec..RawVec$LT$T$C$A$GT$$u20$as$u20$core..ops..drop..Drop$GT$4drop17h4844c336ca502eb9E', symObjAddr: 0x29F98, symBinAddr: 0x100029F58, symSize: 0x4 }
  - { offset: 0xDB94D, size: 0x8, addend: 0x0, symName: '__ZN77_$LT$alloc..raw_vec..RawVec$LT$T$C$A$GT$$u20$as$u20$core..ops..drop..Drop$GT$4drop17h51bcb355e984c785E', symObjAddr: 0x2F794, symBinAddr: 0x10002F754, symSize: 0xC }
  - { offset: 0xDC467, size: 0x8, addend: 0x0, symName: '__ZN45_$LT$T$u20$as$u20$alloc..string..ToString$GT$9to_string17hb31abf12459ee12dE', symObjAddr: 0x1F454, symBinAddr: 0x10001F414, symSize: 0x110 }
  - { offset: 0xDC5AC, size: 0x8, addend: 0x0, symName: '__ZN45_$LT$T$u20$as$u20$alloc..string..ToString$GT$9to_string17ha989f788de420abeE', symObjAddr: 0x1F7AC, symBinAddr: 0x10001F76C, symSize: 0x134 }
  - { offset: 0xDC8DA, size: 0x8, addend: 0x0, symName: '__ZN45_$LT$T$u20$as$u20$alloc..string..ToString$GT$9to_string17hc0bbd8679e902dd0E', symObjAddr: 0x22220, symBinAddr: 0x1000221E0, symSize: 0x48 }
  - { offset: 0xDC9A3, size: 0x8, addend: 0x0, symName: '__ZN45_$LT$T$u20$as$u20$alloc..string..ToString$GT$9to_string17h622dd13f52bc03a4E', symObjAddr: 0x2A438, symBinAddr: 0x10002A3F8, symSize: 0x28 }
  - { offset: 0xDCBD4, size: 0x8, addend: 0x0, symName: '__ZN58_$LT$alloc..string..String$u20$as$u20$core..fmt..Write$GT$10write_char17he5512f41f38db629E.237', symObjAddr: 0x206A0, symBinAddr: 0x100020660, symSize: 0x18 }
  - { offset: 0xDCD2A, size: 0x8, addend: 0x0, symName: '__ZN56_$LT$alloc..string..String$u20$as$u20$core..cmp..Ord$GT$3cmp17heb3b3df4e1a81659E', symObjAddr: 0x2B448, symBinAddr: 0x10002B408, symSize: 0x40 }
  - { offset: 0xE2EDE, size: 0x8, addend: 0x0, symName: __ZN5alloc11collections5btree4node13move_to_slice17he15aad729241d87eE, symObjAddr: 0x2A280, symBinAddr: 0x10002A240, symSize: 0x24 }
  - { offset: 0xE2F4D, size: 0x8, addend: 0x0, symName: __ZN5alloc11collections5btree4node13move_to_slice17h1b1ac10897511b2cE, symObjAddr: 0x2A2A4, symBinAddr: 0x10002A264, symSize: 0x20 }
  - { offset: 0xE2FBC, size: 0x8, addend: 0x0, symName: __ZN5alloc11collections5btree4node12slice_insert17h3036e4362572641aE, symObjAddr: 0x2A2C4, symBinAddr: 0x10002A284, symSize: 0x68 }
  - { offset: 0xE32E0, size: 0x8, addend: 0x0, symName: __ZN5alloc11collections5btree4node13move_to_slice17h8ce2cdbdbc40dcd8E, symObjAddr: 0x2B984, symBinAddr: 0x10002B944, symSize: 0x20 }
  - { offset: 0xE512F, size: 0x8, addend: 0x0, symName: __ZN5alloc3str17join_generic_copy17he45384af260e47e7E, symObjAddr: 0x22B88, symBinAddr: 0x100022B48, symSize: 0x290 }
  - { offset: 0xE642E, size: 0x8, addend: 0x0, symName: '__ZN5alloc3str21_$LT$impl$u20$str$GT$7replace17h1b1cd98976d87dbaE', symObjAddr: 0x28168, symBinAddr: 0x100028128, symSize: 0x1D0 }
  - { offset: 0xE6AAD, size: 0x8, addend: 0x0, symName: '__ZN5alloc3str21_$LT$impl$u20$str$GT$7replace17hebf07b092a5138fdE', symObjAddr: 0x283A8, symBinAddr: 0x100028368, symSize: 0x108 }
  - { offset: 0xE782B, size: 0x8, addend: 0x0, symName: '__ZN87_$LT$T$u20$as$u20$alloc..slice..$LT$impl$u20$$u5b$T$u5d$$GT$..to_vec_in..ConvertVec$GT$6to_vec17h1776724e29147682E', symObjAddr: 0x1DD00, symBinAddr: 0x10001DCC0, symSize: 0x30 }
  - { offset: 0xE9101, size: 0x8, addend: 0x0, symName: '__ZN66_$LT$alloc..borrow..Cow$LT$B$GT$$u20$as$u20$core..fmt..Display$GT$3fmt17hf9f5617eca77dacfE', symObjAddr: 0x25B0C, symBinAddr: 0x100025ACC, symSize: 0x28 }
  - { offset: 0xE92E1, size: 0x8, addend: 0x0, symName: __ZN5alloc3fmt6format17hb4671bca3538b688E.228, symObjAddr: 0x1F724, symBinAddr: 0x10001F6E4, symSize: 0x38 }
  - { offset: 0xE97CA, size: 0x8, addend: 0x0, symName: __ZN3std3sys2io11is_terminal6isatty11is_terminal17he7ac33abd1823bd3E, symObjAddr: 0x27220, symBinAddr: 0x1000271E0, symSize: 0x20 }
  - { offset: 0xE9819, size: 0x8, addend: 0x0, symName: __ZN3std3sys2io11is_terminal6isatty11is_terminal17h35fe5e94daabb929E, symObjAddr: 0x27278, symBinAddr: 0x100027238, symSize: 0x20 }
  - { offset: 0xE9C00, size: 0x8, addend: 0x0, symName: '__ZN3std2io5impls58_$LT$impl$u20$std..io..Write$u20$for$u20$$RF$mut$u20$W$GT$9write_all17h04c9ed086634503eE', symObjAddr: 0x271EC, symBinAddr: 0x1000271AC, symSize: 0xC }
  - { offset: 0xE9C26, size: 0x8, addend: 0x0, symName: '__ZN3std2io5impls58_$LT$impl$u20$std..io..Write$u20$for$u20$$RF$mut$u20$W$GT$9write_all17h1393cb16415e3f07E', symObjAddr: 0x27244, symBinAddr: 0x100027204, symSize: 0xC }
  - { offset: 0xED380, size: 0x8, addend: 0x0, symName: '__ZN4core3ptr65drop_in_place$LT$alloc..vec..Vec$LT$alloc..string..String$GT$$GT$17h2e3d0b5e8db650ceE', symObjAddr: 0x1DCAC, symBinAddr: 0x10001DC6C, symSize: 0x20 }
  - { offset: 0xED494, size: 0x8, addend: 0x0, symName: '__ZN4core3ptr66drop_in_place$LT$$u5b$$LP$f64$C$alloc..string..String$RP$$u5d$$GT$17he252e987e670a0a2E', symObjAddr: 0x1DF04, symBinAddr: 0x10001DEC4, symSize: 0x30 }
  - { offset: 0xED502, size: 0x8, addend: 0x0, symName: '__ZN4core3ptr60drop_in_place$LT$clap_builder..builder..command..Command$GT$17h5b06b8079deeea44E', symObjAddr: 0x1DF94, symBinAddr: 0x10001DF54, symSize: 0x40 }
  - { offset: 0xED61A, size: 0x8, addend: 0x0, symName: '__ZN4core3ptr83drop_in_place$LT$alloc..vec..Vec$LT$clap_builder..builder..command..Command$GT$$GT$17h4d833e6c8ae240b8E', symObjAddr: 0x1E158, symBinAddr: 0x10001E118, symSize: 0x24 }
  - { offset: 0xED6A7, size: 0x8, addend: 0x0, symName: '__ZN4core3ptr96drop_in_place$LT$alloc..vec..Vec$LT$clap_builder..builder..possible_value..PossibleValue$GT$$GT$17haa1aa6b25549232aE', symObjAddr: 0x1E224, symBinAddr: 0x10001E1E4, symSize: 0x4C }
  - { offset: 0xED84D, size: 0x8, addend: 0x0, symName: '__ZN4core3ptr97drop_in_place$LT$core..option..Option$LT$clap_builder..builder..value_parser..ValueParser$GT$$GT$17ha31561c72ce862b4E', symObjAddr: 0x1EC98, symBinAddr: 0x10001EC58, symSize: 0x14 }
  - { offset: 0xED8E8, size: 0x8, addend: 0x0, symName: '__ZN4core3ptr69drop_in_place$LT$clap_builder..builder..value_parser..ValueParser$GT$17hd485d2a9b8c95ac6E', symObjAddr: 0x1ECF4, symBinAddr: 0x10001ECB4, symSize: 0x44 }
  - { offset: 0xEDA62, size: 0x8, addend: 0x0, symName: '__ZN4core3ptr78drop_in_place$LT$core..option..Option$LT$alloc..borrow..Cow$LT$str$GT$$GT$$GT$17h095b8487891ea4d7E', symObjAddr: 0x1FA90, symBinAddr: 0x10001FA50, symSize: 0x18 }
  - { offset: 0xEDA8E, size: 0x8, addend: 0x0, symName: '__ZN4core3ptr50drop_in_place$LT$alloc..borrow..Cow$LT$str$GT$$GT$17h73b3b7039b1cf5b1E', symObjAddr: 0x1FAA8, symBinAddr: 0x10001FA68, symSize: 0x14 }
  - { offset: 0xEDBCD, size: 0x8, addend: 0x0, symName: '__ZN4core3ptr63drop_in_place$LT$clap_builder..error..context..ContextValue$GT$17h805aaf6e01e415cbE', symObjAddr: 0x1FCE8, symBinAddr: 0x10001FCA8, symSize: 0x44 }
  - { offset: 0xEDEB8, size: 0x8, addend: 0x0, symName: '__ZN4core3ptr178drop_in_place$LT$core..iter..adapters..flatten..Flatten$LT$alloc..vec..into_iter..IntoIter$LT$core..option..Option$LT$clap_builder..builder..styled_str..StyledStr$GT$$GT$$GT$$GT$17h07b58234fc332660E', symObjAddr: 0x22594, symBinAddr: 0x100022554, symSize: 0x50 }
  - { offset: 0xEE1A8, size: 0x8, addend: 0x0, symName: '__ZN4core3ptr92drop_in_place$LT$clap_builder..util..graph..ChildGraph$LT$clap_builder..util..id..Id$GT$$GT$17hc7d0ca078ec2e93dE', symObjAddr: 0x225E4, symBinAddr: 0x1000225A4, symSize: 0x4C }
  - { offset: 0xEE3EA, size: 0x8, addend: 0x0, symName: '__ZN4core3ptr103drop_in_place$LT$$u5b$core..option..Option$LT$clap_builder..builder..styled_str..StyledStr$GT$$u5d$$GT$17h704177b7fe5d2617E', symObjAddr: 0x2301C, symBinAddr: 0x100022FDC, symSize: 0x2C }
  - { offset: 0xEE458, size: 0x8, addend: 0x0, symName: '__ZN4core3ptr123drop_in_place$LT$core..option..Option$LT$core..option..IntoIter$LT$clap_builder..builder..styled_str..StyledStr$GT$$GT$$GT$17hab91da34c3d7dc09E', symObjAddr: 0x232B4, symBinAddr: 0x100023274, symSize: 0x18 }
  - { offset: 0xEE554, size: 0x8, addend: 0x0, symName: '__ZN4core3ptr73drop_in_place$LT$clap_builder..builder..possible_value..PossibleValue$GT$17hc3de0bf0dec79555E', symObjAddr: 0x238DC, symBinAddr: 0x10002389C, symSize: 0x24 }
  - { offset: 0xEE61C, size: 0x8, addend: 0x0, symName: '__ZN4core3ptr168drop_in_place$LT$alloc..boxed..Box$LT$dyn$u20$core..iter..traits..iterator..Iterator$u2b$Item$u20$$u3d$$u20$clap_builder..builder..possible_value..PossibleValue$GT$$GT$17h511ccadb7e0cb30aE', symObjAddr: 0x23A1C, symBinAddr: 0x1000239DC, symSize: 0x34 }
  - { offset: 0xEE8F6, size: 0x8, addend: 0x0, symName: '__ZN4core3ptr60drop_in_place$LT$clap_builder..util..any_value..AnyValue$GT$17hca1425d3685882d8E', symObjAddr: 0x2466C, symBinAddr: 0x10002462C, symSize: 0x1C }
  - { offset: 0xEE91E, size: 0x8, addend: 0x0, symName: '__ZN4core3ptr60drop_in_place$LT$clap_builder..util..any_value..AnyValue$GT$17hca1425d3685882d8E', symObjAddr: 0x2466C, symBinAddr: 0x10002462C, symSize: 0x1C }
  - { offset: 0xEE93A, size: 0x8, addend: 0x0, symName: '__ZN4core3ptr60drop_in_place$LT$clap_builder..util..any_value..AnyValue$GT$17hca1425d3685882d8E', symObjAddr: 0x2466C, symBinAddr: 0x10002462C, symSize: 0x1C }
  - { offset: 0xEE956, size: 0x8, addend: 0x0, symName: '__ZN4core3ptr60drop_in_place$LT$clap_builder..util..any_value..AnyValue$GT$17hca1425d3685882d8E', symObjAddr: 0x2466C, symBinAddr: 0x10002462C, symSize: 0x1C }
  - { offset: 0xEE972, size: 0x8, addend: 0x0, symName: '__ZN4core3ptr60drop_in_place$LT$clap_builder..util..any_value..AnyValue$GT$17hca1425d3685882d8E', symObjAddr: 0x2466C, symBinAddr: 0x10002462C, symSize: 0x1C }
  - { offset: 0xEEC59, size: 0x8, addend: 0x0, symName: '__ZN4core3ptr59drop_in_place$LT$clap_builder..builder..ext..Extensions$GT$17h5b0c4e436b39b949E', symObjAddr: 0x2485C, symBinAddr: 0x10002481C, symSize: 0x24 }
  - { offset: 0xEECE9, size: 0x8, addend: 0x0, symName: '__ZN4core3ptr83drop_in_place$LT$alloc..vec..Vec$LT$clap_builder..util..any_value..AnyValue$GT$$GT$17h323fc12f0507ed7aE', symObjAddr: 0x24880, symBinAddr: 0x100024840, symSize: 0x24 }
  - { offset: 0xEEE09, size: 0x8, addend: 0x0, symName: '__ZN4core3ptr114drop_in_place$LT$core..option..Option$LT$alloc..vec..into_iter..IntoIter$LT$clap_builder..util..id..Id$GT$$GT$$GT$17h734093a378da9ad5E', symObjAddr: 0x25C90, symBinAddr: 0x100025C50, symSize: 0xC }
  - { offset: 0xEF059, size: 0x8, addend: 0x0, symName: '__ZN4core3ptr77drop_in_place$LT$core..option..Option$LT$clap_builder..error..Message$GT$$GT$17h12a7d424c02d22d9E', symObjAddr: 0x26504, symBinAddr: 0x1000264C4, symSize: 0x18 }
  - { offset: 0xEF237, size: 0x8, addend: 0x0, symName: '__ZN4core3ptr81drop_in_place$LT$core..result..Result$LT$$LP$$RP$$C$std..io..error..Error$GT$$GT$17ha878c448354887aaE', symObjAddr: 0x270C4, symBinAddr: 0x100027084, symSize: 0x40 }
  - { offset: 0xEFE73, size: 0x8, addend: 0x0, symName: '__ZN4core3ptr75drop_in_place$LT$clap_builder..parser..matches..matched_arg..MatchedArg$GT$17hbac2b802be076072E', symObjAddr: 0x2BD00, symBinAddr: 0x10002BCC0, symSize: 0x3C }
  - { offset: 0xEFF4A, size: 0x8, addend: 0x0, symName: '__ZN4core3ptr93drop_in_place$LT$alloc..vec..Vec$LT$alloc..vec..Vec$LT$std..ffi..os_str..OsString$GT$$GT$$GT$17h22cda46982c9f126E', symObjAddr: 0x2BD68, symBinAddr: 0x10002BD28, symSize: 0x20 }
  - { offset: 0xEFFD5, size: 0x8, addend: 0x0, symName: '__ZN4core3ptr70drop_in_place$LT$alloc..vec..Vec$LT$std..ffi..os_str..OsString$GT$$GT$17h41137580fe80319fE', symObjAddr: 0x2BDB4, symBinAddr: 0x10002BD74, symSize: 0x20 }
  - { offset: 0xF06D2, size: 0x8, addend: 0x0, symName: '__ZN4core3ptr149drop_in_place$LT$clap_builder..util..flat_map..FlatMap$LT$clap_builder..util..id..Id$C$clap_builder..parser..matches..matched_arg..MatchedArg$GT$$GT$17h84f842cc8c43aef9E', symObjAddr: 0x2F638, symBinAddr: 0x10002F5F8, symSize: 0x2C }
  - { offset: 0xF078A, size: 0x8, addend: 0x0, symName: '__ZN4core3ptr89drop_in_place$LT$core..option..Option$LT$clap_builder..parser..parser..PendingArg$GT$$GT$17hbc960cac8612a5d3E', symObjAddr: 0x2F664, symBinAddr: 0x10002F624, symSize: 0x18 }
  - { offset: 0xF07D9, size: 0x8, addend: 0x0, symName: '__ZN4core3ptr66drop_in_place$LT$clap_builder..parser..arg_matcher..ArgMatcher$GT$17h3a6aae00d57e73e6E', symObjAddr: 0x2F67C, symBinAddr: 0x10002F63C, symSize: 0x28 }
  - { offset: 0xF0901, size: 0x8, addend: 0x0, symName: '__ZN4core3ptr47drop_in_place$LT$clap_builder..error..Error$GT$17h68181632b0abcad9E', symObjAddr: 0x2F6A4, symBinAddr: 0x10002F664, symSize: 0x68 }
  - { offset: 0xF0AF0, size: 0x8, addend: 0x0, symName: '__ZN4core3ptr75drop_in_place$LT$clap_builder..parser..matches..arg_matches..ArgMatches$GT$17h17a3d4697680ecefE', symObjAddr: 0x2F70C, symBinAddr: 0x10002F6CC, symSize: 0x24 }
  - { offset: 0xF0B5E, size: 0x8, addend: 0x0, symName: '__ZN4core3ptr128drop_in_place$LT$core..option..Option$LT$alloc..boxed..Box$LT$clap_builder..parser..matches..arg_matches..SubCommand$GT$$GT$$GT$17h7b0a02837227eb78E', symObjAddr: 0x2F730, symBinAddr: 0x10002F6F0, symSize: 0x34 }
  - { offset: 0xF0CDB, size: 0x8, addend: 0x0, symName: '__ZN4core3ptr103drop_in_place$LT$core..option..Option$LT$clap_builder..parser..matches..matched_arg..MatchedArg$GT$$GT$17h3be1d2236729ce21E', symObjAddr: 0x2F99C, symBinAddr: 0x10002F95C, symSize: 0x14 }
  - { offset: 0xF0E12, size: 0x8, addend: 0x0, symName: '__ZN4core3ptr86drop_in_place$LT$core..result..Result$LT$$LP$$RP$$C$clap_builder..error..Error$GT$$GT$17h5dc1716788c0b52fE', symObjAddr: 0x30F4C, symBinAddr: 0x100030F0C, symSize: 0xC }
  - { offset: 0xF0E97, size: 0x8, addend: 0x0, symName: '__ZN4core3ptr62drop_in_place$LT$clap_builder..parser..parser..ParseResult$GT$17hc136fd9b3e9b65e3E', symObjAddr: 0x31588, symBinAddr: 0x100031548, symSize: 0x68 }
  - { offset: 0xF1890, size: 0x8, addend: 0x0, symName: '__ZN70_$LT$core..num..error..TryFromIntError$u20$as$u20$core..fmt..Debug$GT$3fmt17h91a8e96ff913e674E', symObjAddr: 0x1F75C, symBinAddr: 0x10001F71C, symSize: 0x34 }
  - { offset: 0xF18D2, size: 0x8, addend: 0x0, symName: '__ZN68_$LT$core..num..error..ParseIntError$u20$as$u20$core..fmt..Debug$GT$3fmt17hc04957ce4e0e8c37E', symObjAddr: 0x1FD7C, symBinAddr: 0x10001FD3C, symSize: 0x40 }
  - { offset: 0xF27F0, size: 0x8, addend: 0x0, symName: '__ZN36_$LT$T$u20$as$u20$core..any..Any$GT$7type_id17h2b4012b6780bccaeE', symObjAddr: 0x1F28C, symBinAddr: 0x10001F24C, symSize: 0xC }
  - { offset: 0xF281D, size: 0x8, addend: 0x0, symName: '__ZN36_$LT$T$u20$as$u20$core..any..Any$GT$7type_id17h2b4012b6780bccaeE', symObjAddr: 0x1F28C, symBinAddr: 0x10001F24C, symSize: 0xC }
  - { offset: 0xF2837, size: 0x8, addend: 0x0, symName: '__ZN36_$LT$T$u20$as$u20$core..any..Any$GT$7type_id17h9fdcb711c098fd06E', symObjAddr: 0x23E30, symBinAddr: 0x100023DF0, symSize: 0xC }
  - { offset: 0xF2863, size: 0x8, addend: 0x0, symName: '__ZN36_$LT$T$u20$as$u20$core..any..Any$GT$7type_id17h9fdcb711c098fd06E', symObjAddr: 0x23E30, symBinAddr: 0x100023DF0, symSize: 0xC }
  - { offset: 0xF287D, size: 0x8, addend: 0x0, symName: '__ZN36_$LT$T$u20$as$u20$core..any..Any$GT$7type_id17hbc73bf317ca06073E', symObjAddr: 0x24360, symBinAddr: 0x100024320, symSize: 0xC }
  - { offset: 0xF28A9, size: 0x8, addend: 0x0, symName: '__ZN36_$LT$T$u20$as$u20$core..any..Any$GT$7type_id17hbc73bf317ca06073E', symObjAddr: 0x24360, symBinAddr: 0x100024320, symSize: 0xC }
  - { offset: 0xF28C3, size: 0x8, addend: 0x0, symName: '__ZN36_$LT$T$u20$as$u20$core..any..Any$GT$7type_id17hc5c10410ba135478E', symObjAddr: 0x24490, symBinAddr: 0x100024450, symSize: 0xC }
  - { offset: 0xF28EF, size: 0x8, addend: 0x0, symName: '__ZN36_$LT$T$u20$as$u20$core..any..Any$GT$7type_id17hc5c10410ba135478E', symObjAddr: 0x24490, symBinAddr: 0x100024450, symSize: 0xC }
  - { offset: 0xF2909, size: 0x8, addend: 0x0, symName: '__ZN36_$LT$T$u20$as$u20$core..any..Any$GT$7type_id17h3bd01993c4132274E', symObjAddr: 0x24624, symBinAddr: 0x1000245E4, symSize: 0xC }
  - { offset: 0xF2935, size: 0x8, addend: 0x0, symName: '__ZN36_$LT$T$u20$as$u20$core..any..Any$GT$7type_id17h3bd01993c4132274E', symObjAddr: 0x24624, symBinAddr: 0x1000245E4, symSize: 0xC }
  - { offset: 0xF294F, size: 0x8, addend: 0x0, symName: '__ZN36_$LT$T$u20$as$u20$core..any..Any$GT$7type_id17hf15ac3dd227000e1E', symObjAddr: 0x264C4, symBinAddr: 0x100026484, symSize: 0xC }
  - { offset: 0xF297B, size: 0x8, addend: 0x0, symName: '__ZN36_$LT$T$u20$as$u20$core..any..Any$GT$7type_id17hf15ac3dd227000e1E', symObjAddr: 0x264C4, symBinAddr: 0x100026484, symSize: 0xC }
  - { offset: 0xF3B7F, size: 0x8, addend: 0x0, symName: '__ZN102_$LT$core..iter..adapters..map..Map$LT$I$C$F$GT$$u20$as$u20$core..iter..traits..iterator..Iterator$GT$4next17hef3b630b72c328f6E', symObjAddr: 0x22E44, symBinAddr: 0x100022E04, symSize: 0x154 }
  - { offset: 0xF449C, size: 0x8, addend: 0x0, symName: '__ZN102_$LT$core..iter..adapters..map..Map$LT$I$C$F$GT$$u20$as$u20$core..iter..traits..iterator..Iterator$GT$4next17hf3a7d69cac58625cE', symObjAddr: 0x23704, symBinAddr: 0x1000236C4, symSize: 0x7C }
  - { offset: 0xF482C, size: 0x8, addend: 0x0, symName: '__ZN102_$LT$core..iter..adapters..map..Map$LT$I$C$F$GT$$u20$as$u20$core..iter..traits..iterator..Iterator$GT$4next17ha2e282dd8d954f9fE', symObjAddr: 0x23B64, symBinAddr: 0x100023B24, symSize: 0x38 }
  - { offset: 0xF485A, size: 0x8, addend: 0x0, symName: '__ZN102_$LT$core..iter..adapters..map..Map$LT$I$C$F$GT$$u20$as$u20$core..iter..traits..iterator..Iterator$GT$4next17ha2e282dd8d954f9fE', symObjAddr: 0x23B64, symBinAddr: 0x100023B24, symSize: 0x38 }
  - { offset: 0xF4875, size: 0x8, addend: 0x0, symName: '__ZN102_$LT$core..iter..adapters..map..Map$LT$I$C$F$GT$$u20$as$u20$core..iter..traits..iterator..Iterator$GT$4next17ha2e282dd8d954f9fE', symObjAddr: 0x23B64, symBinAddr: 0x100023B24, symSize: 0x38 }
  - { offset: 0xF4957, size: 0x8, addend: 0x0, symName: '__ZN102_$LT$core..iter..adapters..map..Map$LT$I$C$F$GT$$u20$as$u20$core..iter..traits..iterator..Iterator$GT$9size_hint17hd833a0573a65bed3E', symObjAddr: 0x23B9C, symBinAddr: 0x100023B5C, symSize: 0x1C }
  - { offset: 0xF4985, size: 0x8, addend: 0x0, symName: '__ZN102_$LT$core..iter..adapters..map..Map$LT$I$C$F$GT$$u20$as$u20$core..iter..traits..iterator..Iterator$GT$9size_hint17hd833a0573a65bed3E', symObjAddr: 0x23B9C, symBinAddr: 0x100023B5C, symSize: 0x1C }
  - { offset: 0xF49A0, size: 0x8, addend: 0x0, symName: '__ZN102_$LT$core..iter..adapters..map..Map$LT$I$C$F$GT$$u20$as$u20$core..iter..traits..iterator..Iterator$GT$9size_hint17hd833a0573a65bed3E', symObjAddr: 0x23B9C, symBinAddr: 0x100023B5C, symSize: 0x1C }
  - { offset: 0xF4C78, size: 0x8, addend: 0x0, symName: '__ZN102_$LT$core..iter..adapters..map..Map$LT$I$C$F$GT$$u20$as$u20$core..iter..traits..iterator..Iterator$GT$8try_fold17h0850950777f72498E', symObjAddr: 0x24B1C, symBinAddr: 0x100024ADC, symSize: 0x74 }
  - { offset: 0xF4FBB, size: 0x8, addend: 0x0, symName: '__ZN102_$LT$core..iter..adapters..map..Map$LT$I$C$F$GT$$u20$as$u20$core..iter..traits..iterator..Iterator$GT$4next17hefe5675958ccb6f1E', symObjAddr: 0x255A0, symBinAddr: 0x100025560, symSize: 0x3C }
  - { offset: 0xF50F4, size: 0x8, addend: 0x0, symName: '__ZN102_$LT$core..iter..adapters..map..Map$LT$I$C$F$GT$$u20$as$u20$core..iter..traits..iterator..Iterator$GT$9size_hint17ha2470f126b91e449E', symObjAddr: 0x255DC, symBinAddr: 0x10002559C, symSize: 0xA4 }
  - { offset: 0xF5337, size: 0x8, addend: 0x0, symName: '__ZN102_$LT$core..iter..adapters..map..Map$LT$I$C$F$GT$$u20$as$u20$core..iter..traits..iterator..Iterator$GT$4next17h5cc5eced4e42ba7cE', symObjAddr: 0x25884, symBinAddr: 0x100025844, symSize: 0x8C }
  - { offset: 0xF5608, size: 0x8, addend: 0x0, symName: '__ZN102_$LT$core..iter..adapters..map..Map$LT$I$C$F$GT$$u20$as$u20$core..iter..traits..iterator..Iterator$GT$4next17h70815aec0cd9d0bbE', symObjAddr: 0x25910, symBinAddr: 0x1000258D0, symSize: 0x34 }
  - { offset: 0xF591B, size: 0x8, addend: 0x0, symName: '__ZN102_$LT$core..iter..adapters..map..Map$LT$I$C$F$GT$$u20$as$u20$core..iter..traits..iterator..Iterator$GT$4next17h6ce79c47051c84f7E', symObjAddr: 0x25A2C, symBinAddr: 0x1000259EC, symSize: 0xE0 }
  - { offset: 0xF8AE8, size: 0x8, addend: 0x0, symName: '__ZN106_$LT$core..iter..adapters..chain..Chain$LT$A$C$B$GT$$u20$as$u20$core..iter..traits..iterator..Iterator$GT$4next17he042e7f5169a0ca9E', symObjAddr: 0x22404, symBinAddr: 0x1000223C4, symSize: 0x48 }
  - { offset: 0xF8E9C, size: 0x8, addend: 0x0, symName: '__ZN106_$LT$core..iter..adapters..chain..Chain$LT$A$C$B$GT$$u20$as$u20$core..iter..traits..iterator..Iterator$GT$4next17ha8a73984545769edE', symObjAddr: 0x25BA4, symBinAddr: 0x100025B64, symSize: 0x8C }
  - { offset: 0xF9135, size: 0x8, addend: 0x0, symName: '__ZN106_$LT$core..iter..adapters..chain..Chain$LT$A$C$B$GT$$u20$as$u20$core..iter..traits..iterator..Iterator$GT$9size_hint17hc0dd962c4e6fed2bE', symObjAddr: 0x25C30, symBinAddr: 0x100025BF0, symSize: 0x60 }
  - { offset: 0xF963B, size: 0x8, addend: 0x0, symName: '__ZN104_$LT$core..iter..adapters..cloned..Cloned$LT$I$GT$$u20$as$u20$core..iter..traits..iterator..Iterator$GT$4next17h05179c36a8efdbb1E', symObjAddr: 0x24C0C, symBinAddr: 0x100024BCC, symSize: 0x8C }
  - { offset: 0xF986A, size: 0x8, addend: 0x0, symName: '__ZN104_$LT$core..iter..adapters..cloned..Cloned$LT$I$GT$$u20$as$u20$core..iter..traits..iterator..Iterator$GT$4next17h46048d11ee161f53E', symObjAddr: 0x24C98, symBinAddr: 0x100024C58, symSize: 0xC4 }
  - { offset: 0xF9C84, size: 0x8, addend: 0x0, symName: '__ZN104_$LT$core..iter..adapters..cloned..Cloned$LT$I$GT$$u20$as$u20$core..iter..traits..iterator..Iterator$GT$4next17h6abed507bc8b3ad6E', symObjAddr: 0x24D5C, symBinAddr: 0x100024D1C, symSize: 0xD8 }
  - { offset: 0xFA357, size: 0x8, addend: 0x0, symName: '__ZN104_$LT$core..iter..adapters..cloned..Cloned$LT$I$GT$$u20$as$u20$core..iter..traits..iterator..Iterator$GT$4next17hf890fcf19b0e01a0E', symObjAddr: 0x24E34, symBinAddr: 0x100024DF4, symSize: 0x78 }
  - { offset: 0xFA54A, size: 0x8, addend: 0x0, symName: '__ZN104_$LT$core..iter..adapters..cloned..Cloned$LT$I$GT$$u20$as$u20$core..iter..traits..iterator..Iterator$GT$9size_hint17h2e3f023debc54e7dE', symObjAddr: 0x24EAC, symBinAddr: 0x100024E6C, symSize: 0xA8 }
  - { offset: 0xFBAA1, size: 0x8, addend: 0x0, symName: '__ZN115_$LT$core..iter..adapters..filter_map..FilterMap$LT$I$C$F$GT$$u20$as$u20$core..iter..traits..iterator..Iterator$GT$4next17h8018633ca76efc59E', symObjAddr: 0x25CC0, symBinAddr: 0x100025C80, symSize: 0x9C }
  - { offset: 0xFBCFE, size: 0x8, addend: 0x0, symName: '__ZN115_$LT$core..iter..adapters..filter_map..FilterMap$LT$I$C$F$GT$$u20$as$u20$core..iter..traits..iterator..Iterator$GT$4next17h29977eb9132acaffE', symObjAddr: 0x25D5C, symBinAddr: 0x100025D1C, symSize: 0x7C }
  - { offset: 0xFBF57, size: 0x8, addend: 0x0, symName: '__ZN115_$LT$core..iter..adapters..filter_map..FilterMap$LT$I$C$F$GT$$u20$as$u20$core..iter..traits..iterator..Iterator$GT$4next17hf027e42e3afdbe16E', symObjAddr: 0x2FF48, symBinAddr: 0x10002FF08, symSize: 0xC4 }
  - { offset: 0xFC2FF, size: 0x8, addend: 0x0, symName: '__ZN115_$LT$core..iter..adapters..filter_map..FilterMap$LT$I$C$F$GT$$u20$as$u20$core..iter..traits..iterator..Iterator$GT$4next17h819577de7f522e98E', symObjAddr: 0x3000C, symBinAddr: 0x10002FFCC, symSize: 0xA4 }
  - { offset: 0xFC7BF, size: 0x8, addend: 0x0, symName: '__ZN115_$LT$core..iter..adapters..filter_map..FilterMap$LT$I$C$F$GT$$u20$as$u20$core..iter..traits..iterator..Iterator$GT$4next17h6c841ac91f469abdE', symObjAddr: 0x32E18, symBinAddr: 0x100032DD8, symSize: 0x98 }
  - { offset: 0xFD225, size: 0x8, addend: 0x0, symName: '__ZN108_$LT$core..iter..adapters..filter..Filter$LT$I$C$P$GT$$u20$as$u20$core..iter..traits..iterator..Iterator$GT$4next17h4c31cc20341da23cE', symObjAddr: 0x23668, symBinAddr: 0x100023628, symSize: 0x40 }
  - { offset: 0xFD3AD, size: 0x8, addend: 0x0, symName: '__ZN108_$LT$core..iter..adapters..filter..Filter$LT$I$C$P$GT$$u20$as$u20$core..iter..traits..iterator..Iterator$GT$4next17h2f1d3871190134b0E', symObjAddr: 0x236A8, symBinAddr: 0x100023668, symSize: 0x40 }
  - { offset: 0xFD79B, size: 0x8, addend: 0x0, symName: '__ZN108_$LT$core..iter..adapters..filter..Filter$LT$I$C$P$GT$$u20$as$u20$core..iter..traits..iterator..Iterator$GT$9size_hint17hc2fc0930583b10a2E', symObjAddr: 0x24F54, symBinAddr: 0x100024F14, symSize: 0x44 }
  - { offset: 0xFD7C9, size: 0x8, addend: 0x0, symName: '__ZN108_$LT$core..iter..adapters..filter..Filter$LT$I$C$P$GT$$u20$as$u20$core..iter..traits..iterator..Iterator$GT$9size_hint17hc2fc0930583b10a2E', symObjAddr: 0x24F54, symBinAddr: 0x100024F14, symSize: 0x44 }
  - { offset: 0xFD7E6, size: 0x8, addend: 0x0, symName: '__ZN108_$LT$core..iter..adapters..filter..Filter$LT$I$C$P$GT$$u20$as$u20$core..iter..traits..iterator..Iterator$GT$9size_hint17hc2fc0930583b10a2E', symObjAddr: 0x24F54, symBinAddr: 0x100024F14, symSize: 0x44 }
  - { offset: 0xFD803, size: 0x8, addend: 0x0, symName: '__ZN108_$LT$core..iter..adapters..filter..Filter$LT$I$C$P$GT$$u20$as$u20$core..iter..traits..iterator..Iterator$GT$9size_hint17hc2fc0930583b10a2E', symObjAddr: 0x24F54, symBinAddr: 0x100024F14, symSize: 0x44 }
  - { offset: 0xFDA16, size: 0x8, addend: 0x0, symName: '__ZN108_$LT$core..iter..adapters..filter..Filter$LT$I$C$P$GT$$u20$as$u20$core..iter..traits..iterator..Iterator$GT$4next17h86bae406cbea9649E', symObjAddr: 0x257E8, symBinAddr: 0x1000257A8, symSize: 0x64 }
  - { offset: 0xFDD3D, size: 0x8, addend: 0x0, symName: '__ZN108_$LT$core..iter..adapters..filter..Filter$LT$I$C$P$GT$$u20$as$u20$core..iter..traits..iterator..Iterator$GT$4next17hfc1c13d8cd83a48fE', symObjAddr: 0x25944, symBinAddr: 0x100025904, symSize: 0x64 }
  - { offset: 0xFDFA8, size: 0x8, addend: 0x0, symName: '__ZN108_$LT$core..iter..adapters..filter..Filter$LT$I$C$P$GT$$u20$as$u20$core..iter..traits..iterator..Iterator$GT$4next17habe6033bdf2d867cE', symObjAddr: 0x25B34, symBinAddr: 0x100025AF4, symSize: 0x70 }
  - { offset: 0xFE271, size: 0x8, addend: 0x0, symName: '__ZN108_$LT$core..iter..adapters..filter..Filter$LT$I$C$P$GT$$u20$as$u20$core..iter..traits..iterator..Iterator$GT$4next17he81b69cfed557fd3E', symObjAddr: 0x25DD8, symBinAddr: 0x100025D98, symSize: 0x58 }
  - { offset: 0x1008D9, size: 0x8, addend: 0x0, symName: '__ZN106_$LT$core..iter..adapters..flatten..Flatten$LT$I$GT$$u20$as$u20$core..iter..traits..iterator..Iterator$GT$4next17h2a3d2c430b21cf4dE', symObjAddr: 0x22520, symBinAddr: 0x1000224E0, symSize: 0x48 }
  - { offset: 0x100EA7, size: 0x8, addend: 0x0, symName: '__ZN116_$LT$core..iter..adapters..flatten..FlattenCompat$LT$I$C$U$GT$$u20$as$u20$core..iter..traits..iterator..Iterator$GT$8try_fold7flatten28_$u7b$$u7b$closure$u7d$$u7d$17h7ce7556cd8cd6417E', symObjAddr: 0x23198, symBinAddr: 0x100023158, symSize: 0xFC }
  - { offset: 0x10128E, size: 0x8, addend: 0x0, symName: '__ZN116_$LT$core..iter..adapters..flatten..FlattenCompat$LT$I$C$U$GT$$u20$as$u20$core..iter..traits..iterator..Iterator$GT$8try_fold7flatten28_$u7b$$u7b$closure$u7d$$u7d$17h489ce2532ea58fe8E', symObjAddr: 0x24BD4, symBinAddr: 0x100024B94, symSize: 0x38 }
  - { offset: 0x10150C, size: 0x8, addend: 0x0, symName: '__ZN116_$LT$core..iter..adapters..flatten..FlattenCompat$LT$I$C$U$GT$$u20$as$u20$core..iter..traits..iterator..Iterator$GT$8try_fold7flatten28_$u7b$$u7b$closure$u7d$$u7d$17h12c32ec7eab10d52E', symObjAddr: 0x32B00, symBinAddr: 0x100032AC0, symSize: 0x60 }
  - { offset: 0x101E02, size: 0x8, addend: 0x0, symName: '__ZN114_$LT$core..iter..adapters..flatten..FlatMap$LT$I$C$U$C$F$GT$$u20$as$u20$core..iter..traits..iterator..Iterator$GT$4next17ha98248508ed7ad26E', symObjAddr: 0x256F4, symBinAddr: 0x1000256B4, symSize: 0x74 }
  - { offset: 0x102256, size: 0x8, addend: 0x0, symName: __ZN4core4iter8adapters7flatten17and_then_or_clear17hc75109f87fa33828E, symObjAddr: 0x25768, symBinAddr: 0x100025728, symSize: 0x5C }
  - { offset: 0x102292, size: 0x8, addend: 0x0, symName: __ZN4core4iter8adapters7flatten17and_then_or_clear17hc75109f87fa33828E, symObjAddr: 0x25768, symBinAddr: 0x100025728, symSize: 0x5C }
  - { offset: 0x10259B, size: 0x8, addend: 0x0, symName: __ZN4core4iter8adapters7flatten17and_then_or_clear17h17bf68d9fd130d1aE, symObjAddr: 0x260A4, symBinAddr: 0x100026064, symSize: 0x4C }
  - { offset: 0x104691, size: 0x8, addend: 0x0, symName: __ZN4core4iter6traits8iterator8Iterator10advance_by17hb283c670ad653555E, symObjAddr: 0x23BB8, symBinAddr: 0x100023B78, symSize: 0x4 }
  - { offset: 0x1046E6, size: 0x8, addend: 0x0, symName: __ZN4core4iter6traits8iterator8Iterator3nth17h0d932e7e247f6160E, symObjAddr: 0x23BBC, symBinAddr: 0x100023B7C, symSize: 0x38 }
  - { offset: 0x10484B, size: 0x8, addend: 0x0, symName: '__ZN87_$LT$I$u20$as$u20$core..iter..traits..iterator..Iterator..advance_by..SpecAdvanceBy$GT$15spec_advance_by17h74ae41cc76f20badE', symObjAddr: 0x23BF4, symBinAddr: 0x100023BB4, symSize: 0x94 }
  - { offset: 0x108918, size: 0x8, addend: 0x0, symName: '__ZN4core4iter5range110_$LT$impl$u20$core..iter..traits..iterator..Iterator$u20$for$u20$core..ops..range..RangeInclusive$LT$A$GT$$GT$4next17h84c43b04830cd84eE', symObjAddr: 0x2A248, symBinAddr: 0x10002A208, symSize: 0x38 }
  - { offset: 0x10894A, size: 0x8, addend: 0x0, symName: '__ZN4core4iter5range110_$LT$impl$u20$core..iter..traits..iterator..Iterator$u20$for$u20$core..ops..range..RangeInclusive$LT$A$GT$$GT$4next17h84c43b04830cd84eE', symObjAddr: 0x2A248, symBinAddr: 0x10002A208, symSize: 0x38 }
  - { offset: 0x108968, size: 0x8, addend: 0x0, symName: '__ZN4core4iter5range110_$LT$impl$u20$core..iter..traits..iterator..Iterator$u20$for$u20$core..ops..range..RangeInclusive$LT$A$GT$$GT$4next17h84c43b04830cd84eE', symObjAddr: 0x2A248, symBinAddr: 0x10002A208, symSize: 0x38 }
  - { offset: 0x109172, size: 0x8, addend: 0x0, symName: '__ZN91_$LT$core..slice..iter..Iter$LT$T$GT$$u20$as$u20$core..iter..traits..iterator..Iterator$GT$3any17h815b04bed504c1d0E', symObjAddr: 0x1E1E8, symBinAddr: 0x10001E1A8, symSize: 0x3C }
  - { offset: 0x10E1E4, size: 0x8, addend: 0x0, symName: '__ZN4core5slice29_$LT$impl$u20$$u5b$T$u5d$$GT$15copy_from_slice17hb57104d33d611e95E', symObjAddr: 0x22E18, symBinAddr: 0x100022DD8, symSize: 0x2C }
  - { offset: 0x11020C, size: 0x8, addend: 0x0, symName: '__ZN53_$LT$T$u20$as$u20$core..slice..cmp..SliceContains$GT$14slice_contains17h9295fef72641580dE', symObjAddr: 0x22394, symBinAddr: 0x100022354, symSize: 0x48 }
  - { offset: 0x11035D, size: 0x8, addend: 0x0, symName: '__ZN53_$LT$T$u20$as$u20$core..slice..cmp..SliceContains$GT$14slice_contains17h9f0cc9cf873656e6E', symObjAddr: 0x22FD4, symBinAddr: 0x100022F94, symSize: 0x48 }
  - { offset: 0x1106D5, size: 0x8, addend: 0x0, symName: __ZN4core5slice6memchr6memchr17h90d1e11bd5e9b875E.299, symObjAddr: 0x28360, symBinAddr: 0x100028320, symSize: 0x48 }
  - { offset: 0x112C6E, size: 0x8, addend: 0x0, symName: '__ZN70_$LT$core..option..Option$LT$T$GT$$u20$as$u20$core..cmp..PartialEq$GT$2eq17h34fd559f0da40766E', symObjAddr: 0x20620, symBinAddr: 0x1000205E0, symSize: 0x80 }
  - { offset: 0x112D64, size: 0x8, addend: 0x0, symName: '__ZN70_$LT$core..option..Option$LT$T$GT$$u20$as$u20$core..cmp..PartialEq$GT$2eq17h173b695d1de2380bE', symObjAddr: 0x236E8, symBinAddr: 0x1000236A8, symSize: 0x1C }
  - { offset: 0x113493, size: 0x8, addend: 0x0, symName: '__ZN68_$LT$core..option..Option$LT$T$GT$$u20$as$u20$core..clone..Clone$GT$5clone17h1c8314e5123075b7E', symObjAddr: 0x23048, symBinAddr: 0x100023008, symSize: 0x20 }
  - { offset: 0x113509, size: 0x8, addend: 0x0, symName: '__ZN68_$LT$core..option..Option$LT$T$GT$$u20$as$u20$core..clone..Clone$GT$5clone17hb7b07e29b005b446E', symObjAddr: 0x234B4, symBinAddr: 0x100023474, symSize: 0x4C }
  - { offset: 0x11D99D, size: 0x8, addend: 0x0, symName: '__ZN44_$LT$$RF$T$u20$as$u20$core..fmt..Display$GT$3fmt17h7b5722a8784ebda9E', symObjAddr: 0x2003C, symBinAddr: 0x10001FFFC, symSize: 0x4C }
  - { offset: 0x11DA04, size: 0x8, addend: 0x0, symName: '__ZN44_$LT$$RF$T$u20$as$u20$core..fmt..Display$GT$3fmt17hc8746768568d0393E', symObjAddr: 0x20534, symBinAddr: 0x1000204F4, symSize: 0x8 }
  - { offset: 0x11DA4A, size: 0x8, addend: 0x0, symName: '__ZN44_$LT$$RF$T$u20$as$u20$core..fmt..Display$GT$3fmt17ha2422fb043d7caecE', symObjAddr: 0x214E4, symBinAddr: 0x1000214A4, symSize: 0x8 }
  - { offset: 0x11DA90, size: 0x8, addend: 0x0, symName: '__ZN44_$LT$$RF$T$u20$as$u20$core..fmt..Display$GT$3fmt17hcac1f9dd413b9bb4E', symObjAddr: 0x25018, symBinAddr: 0x100024FD8, symSize: 0x10 }
  - { offset: 0x11DAFC, size: 0x8, addend: 0x0, symName: '__ZN44_$LT$$RF$T$u20$as$u20$core..fmt..Display$GT$3fmt17hb76fe279af3204a2E', symObjAddr: 0x25080, symBinAddr: 0x100025040, symSize: 0x8 }
  - { offset: 0x11DB42, size: 0x8, addend: 0x0, symName: '__ZN44_$LT$$RF$T$u20$as$u20$core..fmt..Display$GT$3fmt17h79b22e50e1974b98E', symObjAddr: 0x251B4, symBinAddr: 0x100025174, symSize: 0x110 }
  - { offset: 0x11DCBD, size: 0x8, addend: 0x0, symName: '__ZN44_$LT$$RF$T$u20$as$u20$core..fmt..Display$GT$3fmt17hde828ff69b935e3dE', symObjAddr: 0x29FD0, symBinAddr: 0x100029F90, symSize: 0x10 }
  - { offset: 0x11DD93, size: 0x8, addend: 0x0, symName: __ZN4core3fmt5Write9write_fmt17h79a0f203dd29477fE, symObjAddr: 0x20088, symBinAddr: 0x100020048, symSize: 0x18 }
  - { offset: 0x11DDF4, size: 0x8, addend: 0x0, symName: __ZN4core3fmt5Write9write_fmt17h9f4ee6f66d80a31fE, symObjAddr: 0x206B8, symBinAddr: 0x100020678, symSize: 0x18 }
  - { offset: 0x11DE5B, size: 0x8, addend: 0x0, symName: '__ZN42_$LT$$RF$T$u20$as$u20$core..fmt..Debug$GT$3fmt17hae8b9044be409f73E', symObjAddr: 0x2BBCC, symBinAddr: 0x10002BB8C, symSize: 0x14 }
  - { offset: 0x11DECB, size: 0x8, addend: 0x0, symName: '__ZN42_$LT$$RF$T$u20$as$u20$core..fmt..Debug$GT$3fmt17h03f5d2c810ff9e72E', symObjAddr: 0x32FA8, symBinAddr: 0x100032F68, symSize: 0x1C }
  - { offset: 0x11E1A1, size: 0x8, addend: 0x0, symName: '__ZN4core3cmp5impls69_$LT$impl$u20$core..cmp..PartialEq$LT$$RF$B$GT$$u20$for$u20$$RF$A$GT$2eq17ha02fd38ad5db2771E', symObjAddr: 0x1DCCC, symBinAddr: 0x10001DC8C, symSize: 0x34 }
  - { offset: 0x11E1DB, size: 0x8, addend: 0x0, symName: '__ZN4core3cmp5impls69_$LT$impl$u20$core..cmp..PartialEq$LT$$RF$B$GT$$u20$for$u20$$RF$A$GT$2eq17ha02fd38ad5db2771E', symObjAddr: 0x1DCCC, symBinAddr: 0x10001DC8C, symSize: 0x34 }
  - { offset: 0x11E202, size: 0x8, addend: 0x0, symName: '__ZN4core3cmp5impls69_$LT$impl$u20$core..cmp..PartialEq$LT$$RF$B$GT$$u20$for$u20$$RF$A$GT$2eq17ha02fd38ad5db2771E', symObjAddr: 0x1DCCC, symBinAddr: 0x10001DC8C, symSize: 0x34 }
  - { offset: 0x11E229, size: 0x8, addend: 0x0, symName: '__ZN4core3cmp5impls69_$LT$impl$u20$core..cmp..PartialEq$LT$$RF$B$GT$$u20$for$u20$$RF$A$GT$2eq17ha02fd38ad5db2771E', symObjAddr: 0x1DCCC, symBinAddr: 0x10001DC8C, symSize: 0x34 }
  - { offset: 0x11E250, size: 0x8, addend: 0x0, symName: '__ZN4core3cmp5impls69_$LT$impl$u20$core..cmp..PartialEq$LT$$RF$B$GT$$u20$for$u20$$RF$A$GT$2eq17ha02fd38ad5db2771E', symObjAddr: 0x1DCCC, symBinAddr: 0x10001DC8C, symSize: 0x34 }
  - { offset: 0x120513, size: 0x8, addend: 0x0, symName: '__ZN118_$LT$$u5b$core..mem..maybe_uninit..MaybeUninit$LT$T$GT$$u5d$$u20$as$u20$core..array..iter..iter_inner..PartialDrop$GT$12partial_drop17h8db59e79b2a65ee1E', symObjAddr: 0x1FCA4, symBinAddr: 0x10001FC64, symSize: 0x44 }
  - { offset: 0x121447, size: 0x8, addend: 0x0, symName: '__ZN90_$LT$core..str..iter..Split$LT$P$GT$$u20$as$u20$core..iter..traits..iterator..Iterator$GT$4next17h30676a3f697f3536E', symObjAddr: 0x280DC, symBinAddr: 0x10002809C, symSize: 0x8C }
  - { offset: 0x121479, size: 0x8, addend: 0x0, symName: '__ZN90_$LT$core..str..iter..Split$LT$P$GT$$u20$as$u20$core..iter..traits..iterator..Iterator$GT$4next17h30676a3f697f3536E', symObjAddr: 0x280DC, symBinAddr: 0x10002809C, symSize: 0x8C }
  - { offset: 0x121A8B, size: 0x8, addend: 0x0, symName: '__ZN106_$LT$core..str..pattern..CharPredicateSearcher$LT$F$GT$$u20$as$u20$core..str..pattern..ReverseSearcher$GT$16next_reject_back17h52b5250e5667467aE', symObjAddr: 0x20AB8, symBinAddr: 0x100020A78, symSize: 0xCC }
  - { offset: 0x121F52, size: 0x8, addend: 0x0, symName: '__ZN53_$LT$F$u20$as$u20$core..str..pattern..MultiCharEq$GT$7matches17h0bdbe59106be9c3fE', symObjAddr: 0x20B84, symBinAddr: 0x100020B44, symSize: 0x9C }
  - { offset: 0x121F8F, size: 0x8, addend: 0x0, symName: '__ZN53_$LT$F$u20$as$u20$core..str..pattern..MultiCharEq$GT$7matches17h0bdbe59106be9c3fE', symObjAddr: 0x20B84, symBinAddr: 0x100020B44, symSize: 0x9C }
  - { offset: 0x121FAD, size: 0x8, addend: 0x0, symName: '__ZN53_$LT$F$u20$as$u20$core..str..pattern..MultiCharEq$GT$7matches17h0bdbe59106be9c3fE', symObjAddr: 0x20B84, symBinAddr: 0x100020B44, symSize: 0x9C }
  - { offset: 0x1220B8, size: 0x8, addend: 0x0, symName: '__ZN97_$LT$core..str..pattern..MultiCharEqSearcher$LT$C$GT$$u20$as$u20$core..str..pattern..Searcher$GT$4next17h79e62755bbb8de54E', symObjAddr: 0x24980, symBinAddr: 0x100024940, symSize: 0x74 }
  - { offset: 0x1223C7, size: 0x8, addend: 0x0, symName: '__ZN52_$LT$char$u20$as$u20$core..str..pattern..Pattern$GT$13into_searcher17h8d7daf88cb0bd805E.297', symObjAddr: 0x27338, symBinAddr: 0x1000272F8, symSize: 0x28 }
  - { offset: 0x122445, size: 0x8, addend: 0x0, symName: '__ZN81_$LT$core..str..pattern..CharSearcher$u20$as$u20$core..str..pattern..Searcher$GT$10next_match17hd9622b60637cc87aE.298', symObjAddr: 0x27360, symBinAddr: 0x100027320, symSize: 0xA0 }
  - { offset: 0x122B8C, size: 0x8, addend: 0x0, symName: __ZN4core3str11validations15next_code_point17hff5a1efa6f75f736E, symObjAddr: 0x249F4, symBinAddr: 0x1000249B4, symSize: 0x94 }
  - { offset: 0x122E0A, size: 0x8, addend: 0x0, symName: '__ZN4core3str6traits54_$LT$impl$u20$core..cmp..PartialEq$u20$for$u20$str$GT$2eq17h21f396bbb47802e4E.245', symObjAddr: 0x23644, symBinAddr: 0x100023604, symSize: 0x24 }
  - { offset: 0x122E49, size: 0x8, addend: 0x0, symName: '__ZN4core3str6traits54_$LT$impl$u20$core..cmp..PartialEq$u20$for$u20$str$GT$2eq17h21f396bbb47802e4E.245', symObjAddr: 0x23644, symBinAddr: 0x100023604, symSize: 0x24 }
  - { offset: 0x122E5D, size: 0x8, addend: 0x0, symName: '__ZN4core3str6traits54_$LT$impl$u20$core..cmp..PartialEq$u20$for$u20$str$GT$2eq17h21f396bbb47802e4E.245', symObjAddr: 0x23644, symBinAddr: 0x100023604, symSize: 0x24 }
  - { offset: 0x122E84, size: 0x8, addend: 0x0, symName: '__ZN4core3str6traits54_$LT$impl$u20$core..cmp..PartialEq$u20$for$u20$str$GT$2eq17h21f396bbb47802e4E.245', symObjAddr: 0x23644, symBinAddr: 0x100023604, symSize: 0x24 }
  - { offset: 0x123383, size: 0x8, addend: 0x0, symName: __ZN4core5error5Error7type_id17h7f8787cd08e8e7ffE, symObjAddr: 0x1F790, symBinAddr: 0x10001F750, symSize: 0xC }
  - { offset: 0x1233B7, size: 0x8, addend: 0x0, symName: __ZN4core5error5Error7type_id17h7f8787cd08e8e7ffE, symObjAddr: 0x1F790, symBinAddr: 0x10001F750, symSize: 0xC }
  - { offset: 0x1233D1, size: 0x8, addend: 0x0, symName: __ZN4core5error5Error5cause17h151b22cfcb7ec7eeE, symObjAddr: 0x1F79C, symBinAddr: 0x10001F75C, symSize: 0x4 }
  - { offset: 0x1233F8, size: 0x8, addend: 0x0, symName: __ZN4core5error5Error7type_id17h087bc7a1e61db472E, symObjAddr: 0x1F7A0, symBinAddr: 0x10001F760, symSize: 0xC }
  - { offset: 0x12342C, size: 0x8, addend: 0x0, symName: __ZN4core5error5Error7type_id17h087bc7a1e61db472E, symObjAddr: 0x1F7A0, symBinAddr: 0x10001F760, symSize: 0xC }
  - { offset: 0x123446, size: 0x8, addend: 0x0, symName: __ZN4core5error5Error7type_id17hb59381b81a5c6fefE, symObjAddr: 0x1FDBC, symBinAddr: 0x10001FD7C, symSize: 0xC }
  - { offset: 0x12347A, size: 0x8, addend: 0x0, symName: __ZN4core5error5Error7type_id17hb59381b81a5c6fefE, symObjAddr: 0x1FDBC, symBinAddr: 0x10001FD7C, symSize: 0xC }
  - { offset: 0x123494, size: 0x8, addend: 0x0, symName: __ZN4core5error5Error5cause17h82448c9efd3ff188E, symObjAddr: 0x1FDC8, symBinAddr: 0x10001FD88, symSize: 0x4 }
  - { offset: 0x1234BC, size: 0x8, addend: 0x0, symName: __ZN4core5error5Error7provide17h2874ef98b6b325d7E, symObjAddr: 0x1FDCC, symBinAddr: 0x10001FD8C, symSize: 0x4 }
  - { offset: 0x123CA9, size: 0x8, addend: 0x0, symName: '__ZN96_$LT$anstream..adapter..strip..StrippedStr$u20$as$u20$core..iter..traits..iterator..Iterator$GT$4next17ha12d0aa52ff2cfe9E', symObjAddr: 0x1FF10, symBinAddr: 0x10001FED0, symSize: 0x108 }
  - { offset: 0x123FBD, size: 0x8, addend: 0x0, symName: '__ZN75_$LT$std..io..stdio..StdoutLock$u20$as$u20$anstream..stream..IsTerminal$GT$11is_terminal17hdbb675fc09f9d324E', symObjAddr: 0x27240, symBinAddr: 0x100027200, symSize: 0x4 }
  - { offset: 0x123FDA, size: 0x8, addend: 0x0, symName: '__ZN75_$LT$std..io..stdio..StdoutLock$u20$as$u20$anstream..stream..IsTerminal$GT$11is_terminal17hdbb675fc09f9d324E', symObjAddr: 0x27240, symBinAddr: 0x100027200, symSize: 0x4 }
  - { offset: 0x123FEE, size: 0x8, addend: 0x0, symName: '__ZN75_$LT$std..io..stdio..StdoutLock$u20$as$u20$anstream..stream..IsTerminal$GT$11is_terminal17hdbb675fc09f9d324E', symObjAddr: 0x27240, symBinAddr: 0x100027200, symSize: 0x4 }
  - { offset: 0x124023, size: 0x8, addend: 0x0, symName: '__ZN75_$LT$std..io..stdio..StderrLock$u20$as$u20$anstream..stream..IsTerminal$GT$11is_terminal17h113c5d44f4ba7388E', symObjAddr: 0x27298, symBinAddr: 0x100027258, symSize: 0x4 }
  - { offset: 0x124040, size: 0x8, addend: 0x0, symName: '__ZN75_$LT$std..io..stdio..StderrLock$u20$as$u20$anstream..stream..IsTerminal$GT$11is_terminal17h113c5d44f4ba7388E', symObjAddr: 0x27298, symBinAddr: 0x100027258, symSize: 0x4 }
  - { offset: 0x124054, size: 0x8, addend: 0x0, symName: '__ZN75_$LT$std..io..stdio..StderrLock$u20$as$u20$anstream..stream..IsTerminal$GT$11is_terminal17h113c5d44f4ba7388E', symObjAddr: 0x27298, symBinAddr: 0x100027258, symSize: 0x4 }
  - { offset: 0x12410E, size: 0x8, addend: 0x0, symName: __ZN13anstyle_parse5state12state_change17h6d247312846c041eE.234, symObjAddr: 0x20018, symBinAddr: 0x10001FFD8, symSize: 0x24 }
  - { offset: 0x12414B, size: 0x8, addend: 0x0, symName: __ZN13anstyle_parse5state12state_change17h6d247312846c041eE.234, symObjAddr: 0x20018, symBinAddr: 0x10001FFD8, symSize: 0x24 }
  - { offset: 0x124168, size: 0x8, addend: 0x0, symName: __ZN13anstyle_parse5state12state_change17h6d247312846c041eE.234, symObjAddr: 0x20018, symBinAddr: 0x10001FFD8, symSize: 0x24 }
  - { offset: 0x1279AE, size: 0x8, addend: 0x0, symName: __ZN12clap_builder7builder7command7Command11_build_self17he6ed1866cec8891fE, symObjAddr: 0x1CE18, symBinAddr: 0x10001CDD8, symSize: 0xE94 }
  - { offset: 0x1279E5, size: 0x8, addend: 0x0, symName: __ZN12clap_builder7builder7command7Command11_build_self17he6ed1866cec8891fE, symObjAddr: 0x1CE18, symBinAddr: 0x10001CDD8, symSize: 0xE94 }
  - { offset: 0x12A915, size: 0x8, addend: 0x0, symName: '__ZN5alloc7raw_vec20RawVecInner$LT$A$GT$16with_capacity_in17had7f6b75040a5a8aE', symObjAddr: 0x1DD30, symBinAddr: 0x10001DCF0, symSize: 0x28 }
  - { offset: 0x12AB2A, size: 0x8, addend: 0x0, symName: '__ZN5alloc3vec16Vec$LT$T$C$A$GT$6insert17h1e9a4891e8be1575E', symObjAddr: 0x1DD8C, symBinAddr: 0x10001DD4C, symSize: 0x84 }
  - { offset: 0x12AD95, size: 0x8, addend: 0x0, symName: '__ZN5alloc3vec9into_iter21IntoIter$LT$T$C$A$GT$32forget_allocation_drop_remaining17ha47d401829e23432E', symObjAddr: 0x1DE10, symBinAddr: 0x10001DDD0, symSize: 0x58 }
  - { offset: 0x12AF09, size: 0x8, addend: 0x0, symName: __ZN5alloc5alloc6Global10alloc_impl17h26f270198900bc30E.208, symObjAddr: 0x1DF34, symBinAddr: 0x10001DEF4, symSize: 0x30 }
  - { offset: 0x12AF87, size: 0x8, addend: 0x0, symName: '__ZN5alloc6borrow12Cow$LT$B$GT$10into_owned17h3ff898349310610fE', symObjAddr: 0x1DF64, symBinAddr: 0x10001DF24, symSize: 0x30 }
  - { offset: 0x12B82D, size: 0x8, addend: 0x0, symName: __ZN12clap_builder7builder7command7Command21_propagate_subcommand17ha2c24ab034c35b8bE, symObjAddr: 0x1DFD4, symBinAddr: 0x10001DF94, symSize: 0x184 }
  - { offset: 0x12C4C9, size: 0x8, addend: 0x0, symName: __ZN12clap_builder7builder3arg3Arg19get_possible_values17h1c24054f74a21872E, symObjAddr: 0x1E17C, symBinAddr: 0x10001E13C, symSize: 0x6C }
  - { offset: 0x12C725, size: 0x8, addend: 0x0, symName: __ZN12clap_builder7builder3arg3Arg3new17hb3030d52064b9a3cE, symObjAddr: 0x1E270, symBinAddr: 0x10001E230, symSize: 0xC0 }
  - { offset: 0x12C757, size: 0x8, addend: 0x0, symName: __ZN12clap_builder7builder3arg3Arg3new17hb3030d52064b9a3cE, symObjAddr: 0x1E270, symBinAddr: 0x10001E230, symSize: 0xC0 }
  - { offset: 0x12C76B, size: 0x8, addend: 0x0, symName: __ZN12clap_builder7builder3arg3Arg3new17hb3030d52064b9a3cE, symObjAddr: 0x1E270, symBinAddr: 0x10001E230, symSize: 0xC0 }
  - { offset: 0x12C7A7, size: 0x8, addend: 0x0, symName: __ZN12clap_builder7builder3arg3Arg4help17h7d6238f736b49700E, symObjAddr: 0x1E330, symBinAddr: 0x10001E2F0, symSize: 0x50 }
  - { offset: 0x12C9DF, size: 0x8, addend: 0x0, symName: __ZN12clap_builder7mkeymap7MKeyMap4push17hfe24ff151d891e02E, symObjAddr: 0x1E3B4, symBinAddr: 0x10001E374, symSize: 0x3C }
  - { offset: 0x12CAD3, size: 0x8, addend: 0x0, symName: __ZN12clap_builder7builder7command7Command5about17h1bd8f720de576f48E, symObjAddr: 0x1E3F0, symBinAddr: 0x10001E3B0, symSize: 0x54 }
  - { offset: 0x12CEEE, size: 0x8, addend: 0x0, symName: __ZN12clap_builder7builder3arg3Arg11value_names17h902fb2a182e7f1f3E, symObjAddr: 0x1E444, symBinAddr: 0x10001E404, symSize: 0x94 }
  - { offset: 0x12D51D, size: 0x8, addend: 0x0, symName: __ZN12clap_builder7builder7command7Command3arg17h2c25196e9997427fE, symObjAddr: 0x1E4D8, symBinAddr: 0x10001E498, symSize: 0xA0 }
  - { offset: 0x12D81D, size: 0x8, addend: 0x0, symName: __ZN12clap_builder7builder7command7Command11subcommands17h3ee3b3b0168109bbE, symObjAddr: 0x1E578, symBinAddr: 0x10001E538, symSize: 0x210 }
  - { offset: 0x12DDD9, size: 0x8, addend: 0x0, symName: '__ZN5alloc3vec16Vec$LT$T$C$A$GT$4push17h4d65f89611c5f109E', symObjAddr: 0x1E788, symBinAddr: 0x10001E748, symSize: 0x3C }
  - { offset: 0x12DED4, size: 0x8, addend: 0x0, symName: __ZN12clap_builder7builder7command7Command4find17h65105415d17d4dadE, symObjAddr: 0x1E7C4, symBinAddr: 0x10001E784, symSize: 0x50 }
  - { offset: 0x12E408, size: 0x8, addend: 0x0, symName: '__ZN5alloc3vec16Vec$LT$T$C$A$GT$4push17hcb6e353809ee0d6eE', symObjAddr: 0x1EC38, symBinAddr: 0x10001EBF8, symSize: 0x38 }
  - { offset: 0x12E635, size: 0x8, addend: 0x0, symName: '__ZN5alloc3vec16Vec$LT$T$C$A$GT$4push17hd0aa36f8651e2286E', symObjAddr: 0x1ECAC, symBinAddr: 0x10001EC6C, symSize: 0x48 }
  - { offset: 0x12ED02, size: 0x8, addend: 0x0, symName: __ZN12clap_builder4util9any_value8AnyValue3new17hfa95495ceca993a7E, symObjAddr: 0x1F250, symBinAddr: 0x10001F210, symSize: 0x3C }
  - { offset: 0x12EDFB, size: 0x8, addend: 0x0, symName: __ZN3std3ffi6os_str5OsStr6to_str17hfe23375f573f233fE, symObjAddr: 0x1F298, symBinAddr: 0x10001F258, symSize: 0x30 }
  - { offset: 0x12EF87, size: 0x8, addend: 0x0, symName: __ZN12clap_builder7builder7command7Command10get_styles17h5b68132f130871aeE, symObjAddr: 0x1F2C8, symBinAddr: 0x10001F288, symSize: 0x98 }
  - { offset: 0x12F172, size: 0x8, addend: 0x0, symName: __ZN12clap_builder6output5usage5Usage23create_usage_with_title17h63e606605b7f8b58E, symObjAddr: 0x1F360, symBinAddr: 0x10001F320, symSize: 0xA4 }
  - { offset: 0x12F236, size: 0x8, addend: 0x0, symName: '__ZN12clap_builder5error14Error$LT$F$GT$12invalid_utf817h64aed0fbb9c8a538E', symObjAddr: 0x1F404, symBinAddr: 0x10001F3C4, symSize: 0x50 }
  - { offset: 0x12F314, size: 0x8, addend: 0x0, symName: '__ZN12clap_builder5error14Error$LT$F$GT$16value_validation17h70eaf6fed789d18aE', symObjAddr: 0x1F564, symBinAddr: 0x10001F524, symSize: 0x98 }
  - { offset: 0x12F48B, size: 0x8, addend: 0x0, symName: '__ZN12clap_builder5error14Error$LT$F$GT$8with_cmd17hd0c79a1b43a820cbE', symObjAddr: 0x1F5FC, symBinAddr: 0x10001F5BC, symSize: 0x128 }
  - { offset: 0x12F837, size: 0x8, addend: 0x0, symName: __ZN5alloc6string6String4push17haf7365323ac97e58E.229, symObjAddr: 0x1F8E0, symBinAddr: 0x10001F8A0, symSize: 0x38 }
  - { offset: 0x12F8B9, size: 0x8, addend: 0x0, symName: __ZN12clap_builder7builder7command7Command9get_color17hfebec1ca1ad8ee32E, symObjAddr: 0x1F918, symBinAddr: 0x10001F8D8, symSize: 0x18 }
  - { offset: 0x12F8DC, size: 0x8, addend: 0x0, symName: __ZN12clap_builder7builder7command7Command9get_color17hfebec1ca1ad8ee32E, symObjAddr: 0x1F918, symBinAddr: 0x10001F8D8, symSize: 0x18 }
  - { offset: 0x12F8F7, size: 0x8, addend: 0x0, symName: __ZN12clap_builder7builder7command7Command9get_color17hfebec1ca1ad8ee32E, symObjAddr: 0x1F918, symBinAddr: 0x10001F8D8, symSize: 0x18 }
  - { offset: 0x12FA91, size: 0x8, addend: 0x0, symName: '__ZN12clap_builder5error14Error$LT$F$GT$3new17heb6963bbb9a16c6fE', symObjAddr: 0x1FABC, symBinAddr: 0x10001FA7C, symSize: 0xE4 }
  - { offset: 0x12FD30, size: 0x8, addend: 0x0, symName: '__ZN12clap_builder5error14Error$LT$F$GT$24extend_context_unchecked17hbde38af83ccaa957E', symObjAddr: 0x1FBA0, symBinAddr: 0x10001FB60, symSize: 0x8C }
  - { offset: 0x1302B6, size: 0x8, addend: 0x0, symName: '__ZN12clap_builder4util8flat_map20FlatMap$LT$K$C$V$GT$16insert_unchecked17h70d5b3c50af10545E', symObjAddr: 0x1FC2C, symBinAddr: 0x10001FBEC, symSize: 0x78 }
  - { offset: 0x1305AC, size: 0x8, addend: 0x0, symName: '__ZN5alloc7raw_vec19RawVec$LT$T$C$A$GT$8grow_one17h695b13cf50a05556E', symObjAddr: 0x1FD2C, symBinAddr: 0x10001FCEC, symSize: 0x2C }
  - { offset: 0x13065C, size: 0x8, addend: 0x0, symName: '__ZN5alloc7raw_vec19RawVec$LT$T$C$A$GT$8grow_one17h4ac8f061934a2761E', symObjAddr: 0x1FD58, symBinAddr: 0x10001FD18, symSize: 0x24 }
  - { offset: 0x1306CE, size: 0x8, addend: 0x0, symName: '__ZN4core6result19Result$LT$T$C$E$GT$6expect17hf4db4343702d2be4E', symObjAddr: 0x1FDD0, symBinAddr: 0x10001FD90, symSize: 0x24 }
  - { offset: 0x13078E, size: 0x8, addend: 0x0, symName: __ZN12clap_builder7builder3arg3Arg8stylized17ha302c7efd4c4295cE, symObjAddr: 0x1FDF4, symBinAddr: 0x10001FDB4, symSize: 0xD0 }
  - { offset: 0x131070, size: 0x8, addend: 0x0, symName: __ZN12clap_builder7builder3arg3Arg18stylize_arg_suffix17h069150cb2c536192E, symObjAddr: 0x200A0, symBinAddr: 0x100020060, symSize: 0x440 }
  - { offset: 0x131E11, size: 0x8, addend: 0x0, symName: __ZN12clap_builder7builder3arg3Arg12get_min_vals17h0ee8a08058899308E, symObjAddr: 0x204E0, symBinAddr: 0x1000204A0, symSize: 0x10 }
  - { offset: 0x131FF8, size: 0x8, addend: 0x0, symName: '__ZN5alloc3vec16Vec$LT$T$C$A$GT$7reserve17h8b1834bf81d0d331E', symObjAddr: 0x20548, symBinAddr: 0x100020508, symSize: 0x28 }
  - { offset: 0x132113, size: 0x8, addend: 0x0, symName: '__ZN4core6option15Option$LT$T$GT$6expect17h363b5abd2c1206ebE', symObjAddr: 0x20570, symBinAddr: 0x100020530, symSize: 0x24 }
  - { offset: 0x132164, size: 0x8, addend: 0x0, symName: __ZN7anstyle5style5Style12render_reset17ha87a0befdeebff11E, symObjAddr: 0x20594, symBinAddr: 0x100020554, symSize: 0x8C }
  - { offset: 0x13222D, size: 0x8, addend: 0x0, symName: '__ZN12clap_builder5error14Error$LT$F$GT$24insert_context_unchecked17he74260598a9a9527E', symObjAddr: 0x206D0, symBinAddr: 0x100020690, symSize: 0x20 }
  - { offset: 0x1325B7, size: 0x8, addend: 0x0, symName: __ZN12clap_builder6output5usage5Usage20write_usage_no_title17hff795590ba5004bbE, symObjAddr: 0x206F0, symBinAddr: 0x1000206B0, symSize: 0x368 }
  - { offset: 0x132F3E, size: 0x8, addend: 0x0, symName: __ZN12clap_builder7builder10styled_str9StyledStr8trim_end17h9f465f897c85b3f5E, symObjAddr: 0x20A58, symBinAddr: 0x100020A18, symSize: 0x60 }
  - { offset: 0x1341BA, size: 0x8, addend: 0x0, symName: __ZN12clap_builder6output5usage5Usage15write_arg_usage17h7a3d085e64bbd4c8E, symObjAddr: 0x20C20, symBinAddr: 0x100020BE0, symSize: 0x8C4 }
  - { offset: 0x135E6D, size: 0x8, addend: 0x0, symName: __ZN12clap_builder7builder7command7Command23has_visible_subcommands17hec650a1810fa9524E, symObjAddr: 0x214EC, symBinAddr: 0x1000214AC, symSize: 0x68 }
  - { offset: 0x135FC8, size: 0x8, addend: 0x0, symName: __ZN12clap_builder7builder7command7Command23get_usage_name_fallback17he0b8fbfaebca3a2eE, symObjAddr: 0x21554, symBinAddr: 0x100021514, symSize: 0x34 }
  - { offset: 0x136568, size: 0x8, addend: 0x0, symName: __ZN12clap_builder7builder7command7Command5build17h5b3bab40fe002303E, symObjAddr: 0x21978, symBinAddr: 0x100021938, symSize: 0x24 }
  - { offset: 0x13663B, size: 0x8, addend: 0x0, symName: __ZN12clap_builder7builder7command7Command16_build_recursive17h816b4b4fc9afc0ccE, symObjAddr: 0x2199C, symBinAddr: 0x10002195C, symSize: 0x44 }
  - { offset: 0x1369A2, size: 0x8, addend: 0x0, symName: __ZN12clap_builder7builder7command7Command25_build_bin_names_internal17h89a541c9ba30898eE, symObjAddr: 0x219E0, symBinAddr: 0x1000219A0, symSize: 0x3F4 }
  - { offset: 0x137AA9, size: 0x8, addend: 0x0, symName: __ZN12clap_builder6output5usage5Usage23get_required_usage_from17hdcc6b6bac9004454E, symObjAddr: 0x21DD4, symBinAddr: 0x100021D94, symSize: 0x44C }
  - { offset: 0x138D14, size: 0x8, addend: 0x0, symName: '__ZN4core6option15Option$LT$T$GT$8as_deref17h739628b7e78d8b4dE', symObjAddr: 0x22268, symBinAddr: 0x100022228, symSize: 0x18 }
  - { offset: 0x138D3B, size: 0x8, addend: 0x0, symName: '__ZN4core6option15Option$LT$T$GT$8as_deref17h739628b7e78d8b4dE', symObjAddr: 0x22268, symBinAddr: 0x100022228, symSize: 0x18 }
  - { offset: 0x13905E, size: 0x8, addend: 0x0, symName: __ZN12clap_builder7builder7command7Command14required_graph17h411a76c32b82a40bE, symObjAddr: 0x22280, symBinAddr: 0x100022240, symSize: 0x114 }
  - { offset: 0x139845, size: 0x8, addend: 0x0, symName: '__ZN5alloc3vec16Vec$LT$T$C$A$GT$4push17h8c1818ead1c7056fE', symObjAddr: 0x223DC, symBinAddr: 0x10002239C, symSize: 0x28 }
  - { offset: 0x13998E, size: 0x8, addend: 0x0, symName: __ZN12clap_builder7builder7command7Command10find_group17haca707b28f0b93fbE, symObjAddr: 0x2244C, symBinAddr: 0x10002240C, symSize: 0x4C }
  - { offset: 0x139E0B, size: 0x8, addend: 0x0, symName: '__ZN5alloc3vec16Vec$LT$T$C$A$GT$4push17h838273c266734377E', symObjAddr: 0x22568, symBinAddr: 0x100022528, symSize: 0x2C }
  - { offset: 0x139FF1, size: 0x8, addend: 0x0, symName: '__ZN12clap_builder4util8flat_set16FlatSet$LT$T$GT$8contains17h4d7dd39998384eeaE', symObjAddr: 0x22630, symBinAddr: 0x1000225F0, symSize: 0x50 }
  - { offset: 0x13A19C, size: 0x8, addend: 0x0, symName: __ZN12clap_builder6parser11arg_matcher10ArgMatcher14check_explicit17hd80f74bde94fc141E, symObjAddr: 0x22680, symBinAddr: 0x100022640, symSize: 0x34 }
  - { offset: 0x13A257, size: 0x8, addend: 0x0, symName: '__ZN12clap_builder4util8flat_set16FlatSet$LT$T$GT$6insert17hd17e6ab69c914102E', symObjAddr: 0x226B4, symBinAddr: 0x100022674, symSize: 0x7C }
  - { offset: 0x13A795, size: 0x8, addend: 0x0, symName: '__ZN5alloc3vec16Vec$LT$T$C$A$GT$6resize17h5cdc6a00f249ceeeE', symObjAddr: 0x22730, symBinAddr: 0x1000226F0, symSize: 0xD0 }
  - { offset: 0x13ABFB, size: 0x8, addend: 0x0, symName: __ZN12clap_builder7builder7command7Command20unroll_args_in_group17h9d8bdae561241504E, symObjAddr: 0x22800, symBinAddr: 0x1000227C0, symSize: 0x118 }
  - { offset: 0x13B361, size: 0x8, addend: 0x0, symName: __ZN12clap_builder7builder7command7Command12format_group17hb31d03384ed3443bE, symObjAddr: 0x22918, symBinAddr: 0x1000228D8, symSize: 0x1A8 }
  - { offset: 0x13BA74, size: 0x8, addend: 0x0, symName: '__ZN12clap_builder4util8flat_set16FlatSet$LT$T$GT$6insert17hedddc36f16e9522dE', symObjAddr: 0x22B2C, symBinAddr: 0x100022AEC, symSize: 0x5C }
  - { offset: 0x13C452, size: 0x8, addend: 0x0, symName: '__ZN5alloc3vec16Vec$LT$T$C$A$GT$7reserve17h0930879f08e11b05E', symObjAddr: 0x22F98, symBinAddr: 0x100022F58, symSize: 0x28 }
  - { offset: 0x13C56D, size: 0x8, addend: 0x0, symName: '__ZN4core6option15Option$LT$T$GT$6expect17h3aaeeebf198b0338E', symObjAddr: 0x22FC0, symBinAddr: 0x100022F80, symSize: 0x14 }
  - { offset: 0x13C5E0, size: 0x8, addend: 0x0, symName: '__ZN12clap_builder4util8flat_map20FlatMap$LT$K$C$V$GT$3get17h380ac2e60de6cb9eE', symObjAddr: 0x23068, symBinAddr: 0x100023028, symSize: 0x68 }
  - { offset: 0x13CB34, size: 0x8, addend: 0x0, symName: __ZN12clap_builder6parser7matches11matched_arg10MatchedArg14check_explicit17haa00630288985c7bE, symObjAddr: 0x230D0, symBinAddr: 0x100023090, symSize: 0xC8 }
  - { offset: 0x13D12C, size: 0x8, addend: 0x0, symName: '__ZN12clap_builder4util5graph19ChildGraph$LT$T$GT$6insert17h0203cd448219a95dE', symObjAddr: 0x232CC, symBinAddr: 0x10002328C, symSize: 0x8C }
  - { offset: 0x13D454, size: 0x8, addend: 0x0, symName: '__ZN5alloc3vec16Vec$LT$T$C$A$GT$4push17h62de8e0e5c285302E', symObjAddr: 0x23358, symBinAddr: 0x100023318, symSize: 0x44 }
  - { offset: 0x13D5E7, size: 0x8, addend: 0x0, symName: '__ZN5alloc3vec16Vec$LT$T$C$A$GT$4push17h70bad186465b475cE', symObjAddr: 0x2339C, symBinAddr: 0x10002335C, symSize: 0x28 }
  - { offset: 0x13D698, size: 0x8, addend: 0x0, symName: '__ZN5alloc7raw_vec19RawVec$LT$T$C$A$GT$8grow_one17h1868dad3b0f8d675E', symObjAddr: 0x233C4, symBinAddr: 0x100023384, symSize: 0x28 }
  - { offset: 0x13D73B, size: 0x8, addend: 0x0, symName: '__ZN5alloc7raw_vec19RawVec$LT$T$C$A$GT$8grow_one17he5091b99e6f90925E', symObjAddr: 0x233EC, symBinAddr: 0x1000233AC, symSize: 0x28 }
  - { offset: 0x13DC7E, size: 0x8, addend: 0x0, symName: __ZN12clap_builder7builder7command7Command21get_bin_name_fallback17heea6feaa40390c48E, symObjAddr: 0x23618, symBinAddr: 0x1000235D8, symSize: 0x2C }
  - { offset: 0x13DEAF, size: 0x8, addend: 0x0, symName: '__ZN12clap_builder4util8flat_map20FlatMap$LT$K$C$V$GT$3get17h6ac047742548718dE', symObjAddr: 0x23780, symBinAddr: 0x100023740, symSize: 0x5C }
  - { offset: 0x13E323, size: 0x8, addend: 0x0, symName: '__ZN5alloc7raw_vec19RawVec$LT$T$C$A$GT$8grow_one17hc59a7345f9403bb9E', symObjAddr: 0x23838, symBinAddr: 0x1000237F8, symSize: 0x28 }
  - { offset: 0x13E38D, size: 0x8, addend: 0x0, symName: __ZN12clap_builder7builder7command7Command19subcommand_internal17hc3072fabc17bd5e2E, symObjAddr: 0x23860, symBinAddr: 0x100023820, symSize: 0x54 }
  - { offset: 0x13E4AA, size: 0x8, addend: 0x0, symName: '__ZN5alloc7raw_vec19RawVec$LT$T$C$A$GT$8grow_one17h8e77c27443b75857E', symObjAddr: 0x238B4, symBinAddr: 0x100023874, symSize: 0x28 }
  - { offset: 0x13E514, size: 0x8, addend: 0x0, symName: __ZN12clap_builder7builder12value_parser11ValueParser15possible_values17hf2fd8104ee2bf6f3E, symObjAddr: 0x23900, symBinAddr: 0x1000238C0, symSize: 0x18 }
  - { offset: 0x13E87E, size: 0x8, addend: 0x0, symName: __ZN12clap_builder7builder12value_parser11ValueParser16any_value_parser17hc6d3cfa6cd245439E, symObjAddr: 0x23A50, symBinAddr: 0x100023A10, symSize: 0x58 }
  - { offset: 0x13ECF3, size: 0x8, addend: 0x0, symName: __ZN12clap_builder4util9any_value8AnyValue3new17h164c3dea226fd759E, symObjAddr: 0x23DF4, symBinAddr: 0x100023DB4, symSize: 0x3C }
  - { offset: 0x13EDC0, size: 0x8, addend: 0x0, symName: '__ZN4core6option15Option$LT$T$GT$3map17h38f305239107e607E', symObjAddr: 0x23E3C, symBinAddr: 0x100023DFC, symSize: 0x10 }
  - { offset: 0x13F0EE, size: 0x8, addend: 0x0, symName: '__ZN12clap_builder5error14Error$LT$F$GT$13invalid_value17h4fc777c8684ea0d6E', symObjAddr: 0x23E4C, symBinAddr: 0x100023E0C, symSize: 0x320 }
  - { offset: 0x13FE22, size: 0x8, addend: 0x0, symName: '__ZN12clap_builder5error14Error$LT$F$GT$24extend_context_unchecked17he47d5db9d57b3077E', symObjAddr: 0x2416C, symBinAddr: 0x10002412C, symSize: 0x8C }
  - { offset: 0x1401A9, size: 0x8, addend: 0x0, symName: __ZN12clap_builder4util9any_value8AnyValue3new17h67dde01f8c51899dE, symObjAddr: 0x24320, symBinAddr: 0x1000242E0, symSize: 0x40 }
  - { offset: 0x14025A, size: 0x8, addend: 0x0, symName: '__ZN12clap_builder5error14Error$LT$F$GT$11empty_value17h57f5f5f16c07bca4E', symObjAddr: 0x2436C, symBinAddr: 0x10002432C, symSize: 0x54 }
  - { offset: 0x14037A, size: 0x8, addend: 0x0, symName: __ZN12clap_builder4util9any_value8AnyValue3new17hf39ad4e50e2b01b2E, symObjAddr: 0x24450, symBinAddr: 0x100024410, symSize: 0x40 }
  - { offset: 0x14059E, size: 0x8, addend: 0x0, symName: __ZN12clap_builder4util9any_value8AnyValue3new17h254738f5423f8dcfE, symObjAddr: 0x245E4, symBinAddr: 0x1000245A4, symSize: 0x40 }
  - { offset: 0x1407F7, size: 0x8, addend: 0x0, symName: '__ZN5alloc3vec16Vec$LT$T$C$A$GT$4push17h27429afd7b2e547aE', symObjAddr: 0x24688, symBinAddr: 0x100024648, symSize: 0x38 }
  - { offset: 0x140A65, size: 0x8, addend: 0x0, symName: __ZN12clap_builder4util6escape6Escape6to_cow17h3c785c9822390874E, symObjAddr: 0x248D4, symBinAddr: 0x100024894, symSize: 0x5C }
  - { offset: 0x140ADF, size: 0x8, addend: 0x0, symName: __ZN12clap_builder4util6escape6Escape14needs_escaping17hb802d61b50294336E, symObjAddr: 0x24930, symBinAddr: 0x1000248F0, symSize: 0x50 }
  - { offset: 0x140C88, size: 0x8, addend: 0x0, symName: '__ZN4core6option15Option$LT$T$GT$6expect17h51cf80d57601cd27E', symObjAddr: 0x24A88, symBinAddr: 0x100024A48, symSize: 0x14 }
  - { offset: 0x141473, size: 0x8, addend: 0x0, symName: __ZN12clap_builder5error4kind9ErrorKind6as_str17h5bcd5db07c7fe00fE, symObjAddr: 0x24FF8, symBinAddr: 0x100024FB8, symSize: 0x20 }
  - { offset: 0x141741, size: 0x8, addend: 0x0, symName: '__ZN12clap_builder5error14Error$LT$F$GT$3get17h576a642c14596cb7E', symObjAddr: 0x25028, symBinAddr: 0x100024FE8, symSize: 0x58 }
  - { offset: 0x141BFD, size: 0x8, addend: 0x0, symName: '__ZN4core6option15Option$LT$T$GT$6map_or17he8d39ff0837aa791E', symObjAddr: 0x25680, symBinAddr: 0x100025640, symSize: 0x74 }
  - { offset: 0x14234A, size: 0x8, addend: 0x0, symName: '__ZN5alloc3vec16Vec$LT$T$C$A$GT$7reserve17hb7cd1e426080a822E', symObjAddr: 0x257C4, symBinAddr: 0x100025784, symSize: 0x24 }
  - { offset: 0x1424E8, size: 0x8, addend: 0x0, symName: __ZN12clap_builder7builder3arg3Arg16get_help_heading17haa4813cb941e03b4E, symObjAddr: 0x2584C, symBinAddr: 0x10002580C, symSize: 0x14 }
  - { offset: 0x14250F, size: 0x8, addend: 0x0, symName: __ZN12clap_builder7builder3arg3Arg16get_help_heading17haa4813cb941e03b4E, symObjAddr: 0x2584C, symBinAddr: 0x10002580C, symSize: 0x14 }
  - { offset: 0x142936, size: 0x8, addend: 0x0, symName: '__ZN5alloc3vec16Vec$LT$T$C$A$GT$14extend_trusted17ha13971fee4d6c43aE', symObjAddr: 0x259A8, symBinAddr: 0x100025968, symSize: 0x84 }
  - { offset: 0x143942, size: 0x8, addend: 0x0, symName: '__ZN5alloc11collections5btree3map25IntoIter$LT$K$C$V$C$A$GT$10dying_next17hd244d028c69c6e8bE', symObjAddr: 0x25E30, symBinAddr: 0x100025DF0, symSize: 0x110 }
  - { offset: 0x144003, size: 0x8, addend: 0x0, symName: '__ZN5alloc11collections5btree4node127NodeRef$LT$alloc..collections..btree..node..marker..Dying$C$K$C$V$C$alloc..collections..btree..node..marker..LeafOrInternal$GT$21deallocate_and_ascend17hbe93fc7b15e26270E', symObjAddr: 0x25F40, symBinAddr: 0x100025F00, symSize: 0x18 }
  - { offset: 0x144032, size: 0x8, addend: 0x0, symName: '__ZN5alloc11collections5btree4node127NodeRef$LT$alloc..collections..btree..node..marker..Dying$C$K$C$V$C$alloc..collections..btree..node..marker..LeafOrInternal$GT$21deallocate_and_ascend17hbe93fc7b15e26270E', symObjAddr: 0x25F40, symBinAddr: 0x100025F00, symSize: 0x18 }
  - { offset: 0x14404F, size: 0x8, addend: 0x0, symName: '__ZN5alloc11collections5btree4node127NodeRef$LT$alloc..collections..btree..node..marker..Dying$C$K$C$V$C$alloc..collections..btree..node..marker..LeafOrInternal$GT$21deallocate_and_ascend17hbe93fc7b15e26270E', symObjAddr: 0x25F40, symBinAddr: 0x100025F00, symSize: 0x18 }
  - { offset: 0x14406F, size: 0x8, addend: 0x0, symName: '__ZN5alloc11collections5btree4node127NodeRef$LT$alloc..collections..btree..node..marker..Dying$C$K$C$V$C$alloc..collections..btree..node..marker..LeafOrInternal$GT$21deallocate_and_ascend17hbe93fc7b15e26270E', symObjAddr: 0x25F40, symBinAddr: 0x100025F00, symSize: 0x18 }
  - { offset: 0x144089, size: 0x8, addend: 0x0, symName: '__ZN5alloc11collections5btree4node127NodeRef$LT$alloc..collections..btree..node..marker..Dying$C$K$C$V$C$alloc..collections..btree..node..marker..LeafOrInternal$GT$21deallocate_and_ascend17hbe93fc7b15e26270E', symObjAddr: 0x25F40, symBinAddr: 0x100025F00, symSize: 0x18 }
  - { offset: 0x1447F0, size: 0x8, addend: 0x0, symName: '__ZN5alloc11collections5btree3map25IntoIter$LT$K$C$V$C$A$GT$10dying_next17h884380ef2c7326c7E', symObjAddr: 0x25F58, symBinAddr: 0x100025F18, symSize: 0x110 }
  - { offset: 0x144EB1, size: 0x8, addend: 0x0, symName: '__ZN5alloc11collections5btree4node127NodeRef$LT$alloc..collections..btree..node..marker..Dying$C$K$C$V$C$alloc..collections..btree..node..marker..LeafOrInternal$GT$21deallocate_and_ascend17h190f84f237616875E', symObjAddr: 0x26068, symBinAddr: 0x100026028, symSize: 0x18 }
  - { offset: 0x144EE0, size: 0x8, addend: 0x0, symName: '__ZN5alloc11collections5btree4node127NodeRef$LT$alloc..collections..btree..node..marker..Dying$C$K$C$V$C$alloc..collections..btree..node..marker..LeafOrInternal$GT$21deallocate_and_ascend17h190f84f237616875E', symObjAddr: 0x26068, symBinAddr: 0x100026028, symSize: 0x18 }
  - { offset: 0x144EFD, size: 0x8, addend: 0x0, symName: '__ZN5alloc11collections5btree4node127NodeRef$LT$alloc..collections..btree..node..marker..Dying$C$K$C$V$C$alloc..collections..btree..node..marker..LeafOrInternal$GT$21deallocate_and_ascend17h190f84f237616875E', symObjAddr: 0x26068, symBinAddr: 0x100026028, symSize: 0x18 }
  - { offset: 0x144F1D, size: 0x8, addend: 0x0, symName: '__ZN5alloc11collections5btree4node127NodeRef$LT$alloc..collections..btree..node..marker..Dying$C$K$C$V$C$alloc..collections..btree..node..marker..LeafOrInternal$GT$21deallocate_and_ascend17h190f84f237616875E', symObjAddr: 0x26068, symBinAddr: 0x100026028, symSize: 0x18 }
  - { offset: 0x144F37, size: 0x8, addend: 0x0, symName: '__ZN5alloc11collections5btree4node127NodeRef$LT$alloc..collections..btree..node..marker..Dying$C$K$C$V$C$alloc..collections..btree..node..marker..LeafOrInternal$GT$21deallocate_and_ascend17h190f84f237616875E', symObjAddr: 0x26068, symBinAddr: 0x100026028, symSize: 0x18 }
  - { offset: 0x14516C, size: 0x8, addend: 0x0, symName: '__ZN5alloc3vec16Vec$LT$T$C$A$GT$6remove17h63883b1f5b8706aeE', symObjAddr: 0x26114, symBinAddr: 0x1000260D4, symSize: 0x64 }
  - { offset: 0x1454A6, size: 0x8, addend: 0x0, symName: '__ZN5alloc3vec16Vec$LT$T$C$A$GT$6remove17h8eb881df81c7710fE', symObjAddr: 0x26178, symBinAddr: 0x100026138, symSize: 0x94 }
  - { offset: 0x1456BE, size: 0x8, addend: 0x0, symName: '__ZN5alloc3vec16Vec$LT$T$C$A$GT$14extend_trusted17hcc16d1f700be1bbbE', symObjAddr: 0x2632C, symBinAddr: 0x1000262EC, symSize: 0x6C }
  - { offset: 0x145A80, size: 0x8, addend: 0x0, symName: '__ZN5alloc3vec16Vec$LT$T$C$A$GT$4push17hc5d0ba9b56eeb3a0E', symObjAddr: 0x26398, symBinAddr: 0x100026358, symSize: 0x3C }
  - { offset: 0x145BA7, size: 0x8, addend: 0x0, symName: '__ZN5alloc7raw_vec19RawVec$LT$T$C$A$GT$8grow_one17h3b6dc1771fcdec57E', symObjAddr: 0x263D4, symBinAddr: 0x100026394, symSize: 0x28 }
  - { offset: 0x145C6B, size: 0x8, addend: 0x0, symName: '__ZN12clap_builder4util8flat_map20FlatMap$LT$K$C$V$GT$6insert17hb46aef606994cbdbE', symObjAddr: 0x263FC, symBinAddr: 0x1000263BC, symSize: 0xB0 }
  - { offset: 0x14600B, size: 0x8, addend: 0x0, symName: '__ZN12clap_builder5error14Error$LT$F$GT$11set_message17hd5d79840ac73fe40E', symObjAddr: 0x264D0, symBinAddr: 0x100026490, symSize: 0x34 }
  - { offset: 0x1460DF, size: 0x8, addend: 0x0, symName: '__ZN12clap_builder5error14Error$LT$F$GT$24extend_context_unchecked17h53d670a7e71fce3bE', symObjAddr: 0x2651C, symBinAddr: 0x1000264DC, symSize: 0x7C }
  - { offset: 0x146197, size: 0x8, addend: 0x0, symName: '__ZN12clap_builder5error14Error$LT$F$GT$3raw17h183cac571afc92c0E', symObjAddr: 0x26598, symBinAddr: 0x100026558, symSize: 0x44 }
  - { offset: 0x14632C, size: 0x8, addend: 0x0, symName: '__ZN12clap_builder5error14Error$LT$F$GT$4exit17h28b781b8cff3343aE', symObjAddr: 0x265DC, symBinAddr: 0x10002659C, symSize: 0x30 }
  - { offset: 0x1469C2, size: 0x8, addend: 0x0, symName: '__ZN12clap_builder5error14Error$LT$F$GT$5print17h4e62abd8a14ed0fbE', symObjAddr: 0x2660C, symBinAddr: 0x1000265CC, symSize: 0xAB8 }
  - { offset: 0x148535, size: 0x8, addend: 0x0, symName: '__ZN8anstream4auto19AutoStream$LT$S$GT$3new17hef6e3c8aaf7fb019E', symObjAddr: 0x27104, symBinAddr: 0x1000270C4, symSize: 0x74 }
  - { offset: 0x148642, size: 0x8, addend: 0x0, symName: '__ZN8anstream4auto19AutoStream$LT$S$GT$3new17hfe987713cc92ce8aE', symObjAddr: 0x27178, symBinAddr: 0x100027138, symSize: 0x74 }
  - { offset: 0x148748, size: 0x8, addend: 0x0, symName: '__ZN8anstream4auto19AutoStream$LT$S$GT$11always_ansi17h0c791ad97ee301d1E', symObjAddr: 0x271F8, symBinAddr: 0x1000271B8, symSize: 0x28 }
  - { offset: 0x148814, size: 0x8, addend: 0x0, symName: '__ZN8anstream4auto19AutoStream$LT$S$GT$11always_ansi17ha6442cdde666d874E', symObjAddr: 0x27250, symBinAddr: 0x100027210, symSize: 0x28 }
  - { offset: 0x148B99, size: 0x8, addend: 0x0, symName: __ZN12clap_builder6output13help_template12HelpTemplate3new17hce6fe571b3842293E, symObjAddr: 0x27400, symBinAddr: 0x1000273C0, symSize: 0x134 }
  - { offset: 0x149EF9, size: 0x8, addend: 0x0, symName: __ZN12clap_builder6output13help_template12HelpTemplate20write_templated_help17h78bc06c4302b3f8cE, symObjAddr: 0x27534, symBinAddr: 0x1000274F4, symSize: 0xBA8 }
  - { offset: 0x14C388, size: 0x8, addend: 0x0, symName: __ZN12clap_builder7builder10styled_str9StyledStr11push_string17hdf94a2b8ce90e8f6E, symObjAddr: 0x28338, symBinAddr: 0x1000282F8, symSize: 0x28 }
  - { offset: 0x14C8B1, size: 0x8, addend: 0x0, symName: __ZN12clap_builder6output13help_template12HelpTemplate12write_author17h826c5a36c8ca50f8E, symObjAddr: 0x284B0, symBinAddr: 0x100028470, symSize: 0x7C }
  - { offset: 0x14CAD3, size: 0x8, addend: 0x0, symName: __ZN12clap_builder6output13help_template12HelpTemplate11write_about17h42cdd1822efe1e28E, symObjAddr: 0x2852C, symBinAddr: 0x1000284EC, symSize: 0xB4 }
  - { offset: 0x14E6A5, size: 0x8, addend: 0x0, symName: __ZN12clap_builder6output13help_template12HelpTemplate17write_subcommands17hd9c40524573a507bE, symObjAddr: 0x285E0, symBinAddr: 0x1000285A0, symSize: 0x7FC }
  - { offset: 0x152CDD, size: 0x8, addend: 0x0, symName: __ZN12clap_builder6output13help_template12HelpTemplate10write_args17ha7639e8e428bc77fE, symObjAddr: 0x28DFC, symBinAddr: 0x100028DBC, symSize: 0xA50 }
  - { offset: 0x156903, size: 0x8, addend: 0x0, symName: __ZN12clap_builder6output13help_template12HelpTemplate22write_flat_subcommands17h8c57dd84c2716ba5E, symObjAddr: 0x298F8, symBinAddr: 0x1000298B8, symSize: 0x6A0 }
  - { offset: 0x158228, size: 0x8, addend: 0x0, symName: __ZN12clap_builder7builder10styled_str9StyledStr19replace_newline_var17hb0be5969abc2325bE, symObjAddr: 0x29F9C, symBinAddr: 0x100029F5C, symSize: 0x34 }
  - { offset: 0x158368, size: 0x8, addend: 0x0, symName: '__ZN5alloc11collections5btree4node21LeafNode$LT$K$C$V$GT$3new17h8085d4ca02dae5daE', symObjAddr: 0x29FE0, symBinAddr: 0x100029FA0, symSize: 0x30 }
  - { offset: 0x1586A9, size: 0x8, addend: 0x0, symName: '__ZN5alloc11collections5btree4node214Handle$LT$alloc..collections..btree..node..NodeRef$LT$alloc..collections..btree..node..marker..Mut$C$K$C$V$C$alloc..collections..btree..node..marker..Internal$GT$$C$alloc..collections..btree..node..marker..Edge$GT$10insert_fit17h282f992b848611d5E', symObjAddr: 0x2A01C, symBinAddr: 0x100029FDC, symSize: 0xB8 }
  - { offset: 0x158D81, size: 0x8, addend: 0x0, symName: '__ZN5alloc11collections5btree4node212Handle$LT$alloc..collections..btree..node..NodeRef$LT$alloc..collections..btree..node..marker..Mut$C$K$C$V$C$alloc..collections..btree..node..marker..Internal$GT$$C$alloc..collections..btree..node..marker..KV$GT$5split17h891c938d57306630E', symObjAddr: 0x2A0D4, symBinAddr: 0x10002A094, symSize: 0xF4 }
  - { offset: 0x1593A8, size: 0x8, addend: 0x0, symName: '__ZN5alloc11collections5btree4node25InternalNode$LT$K$C$V$GT$3new17h3a3c66acacbdd7dfE', symObjAddr: 0x2A1C8, symBinAddr: 0x10002A188, symSize: 0x30 }
  - { offset: 0x159589, size: 0x8, addend: 0x0, symName: '__ZN5alloc11collections5btree4node121NodeRef$LT$alloc..collections..btree..node..marker..Owned$C$K$C$V$C$alloc..collections..btree..node..marker..Internal$GT$17from_new_internal17h7f441392ba5f6c5cE', symObjAddr: 0x2A1F8, symBinAddr: 0x10002A1B8, symSize: 0x50 }
  - { offset: 0x159991, size: 0x8, addend: 0x0, symName: '__ZN5alloc11collections5btree4node210Handle$LT$alloc..collections..btree..node..NodeRef$LT$alloc..collections..btree..node..marker..Mut$C$K$C$V$C$alloc..collections..btree..node..marker..Leaf$GT$$C$alloc..collections..btree..node..marker..Edge$GT$10insert_fit17h7db836d6a5285c71E', symObjAddr: 0x2A32C, symBinAddr: 0x10002A2EC, symSize: 0x74 }
  - { offset: 0x159CC8, size: 0x8, addend: 0x0, symName: '__ZN5alloc11collections5btree4node208Handle$LT$alloc..collections..btree..node..NodeRef$LT$alloc..collections..btree..node..marker..Mut$C$K$C$V$C$alloc..collections..btree..node..marker..Leaf$GT$$C$alloc..collections..btree..node..marker..KV$GT$5split17hcca5cd89f0a7d31aE', symObjAddr: 0x2A3A0, symBinAddr: 0x10002A360, symSize: 0x98 }
  - { offset: 0x15AF8B, size: 0x8, addend: 0x0, symName: __ZN12clap_builder6output13help_template12HelpTemplate9spec_vals17h9a81a79a68357e7aE, symObjAddr: 0x2A460, symBinAddr: 0x10002A420, symSize: 0x7A4 }
  - { offset: 0x15D503, size: 0x8, addend: 0x0, symName: __ZN12clap_builder7builder10styled_str9StyledStr13display_width17hb0bbd4267891dd1aE, symObjAddr: 0x2AC04, symBinAddr: 0x10002ABC4, symSize: 0x44 }
  - { offset: 0x15D57E, size: 0x8, addend: 0x0, symName: __ZN12clap_builder6output13help_template12HelpTemplate13write_padding17h8b54a3d87b754430E, symObjAddr: 0x2AC48, symBinAddr: 0x10002AC08, symSize: 0x5C }
  - { offset: 0x15D740, size: 0x8, addend: 0x0, symName: __ZN12clap_builder6output13help_template12HelpTemplate4help17hb6462ce13452d229E, symObjAddr: 0x2ACA4, symBinAddr: 0x10002AC64, symSize: 0x494 }
  - { offset: 0x15ED29, size: 0x8, addend: 0x0, symName: __ZN12clap_builder6output13help_template12HelpTemplate10get_spaces17ha2a3f2e1cf66acf4E, symObjAddr: 0x2B138, symBinAddr: 0x10002B0F8, symSize: 0x94 }
  - { offset: 0x15F026, size: 0x8, addend: 0x0, symName: __ZN12clap_builder7builder10styled_str9StyledStr6indent17h1837c5f4b1ab52b9E, symObjAddr: 0x2B1CC, symBinAddr: 0x10002B18C, symSize: 0x98 }
  - { offset: 0x15F480, size: 0x8, addend: 0x0, symName: __ZN12clap_builder6output13help_template12HelpTemplate11use_long_pv17hce997ddd115f8d00E, symObjAddr: 0x2B264, symBinAddr: 0x10002B224, symSize: 0x54 }
  - { offset: 0x15F5F6, size: 0x8, addend: 0x0, symName: __ZN4core3fmt2rt8Argument10from_usize17h1c9c208d4b0b5719E, symObjAddr: 0x2B2B8, symBinAddr: 0x10002B278, symSize: 0x34 }
  - { offset: 0x15F67B, size: 0x8, addend: 0x0, symName: '__ZN5alloc3vec16Vec$LT$T$C$A$GT$4push17h9aea13c7802092f3E', symObjAddr: 0x2B2EC, symBinAddr: 0x10002B2AC, symSize: 0x30 }
  - { offset: 0x15F734, size: 0x8, addend: 0x0, symName: '__ZN5alloc11collections5btree4node21LeafNode$LT$K$C$V$GT$3new17h0850d2f3bdc6a478E', symObjAddr: 0x2B31C, symBinAddr: 0x10002B2DC, symSize: 0x30 }
  - { offset: 0x15F8FD, size: 0x8, addend: 0x0, symName: '__ZN5alloc11collections5btree4node214Handle$LT$alloc..collections..btree..node..NodeRef$LT$alloc..collections..btree..node..marker..Mut$C$K$C$V$C$alloc..collections..btree..node..marker..Internal$GT$$C$alloc..collections..btree..node..marker..Edge$GT$10insert_fit17h266ed2b08fad899dE', symObjAddr: 0x2B34C, symBinAddr: 0x10002B30C, symSize: 0x68 }
  - { offset: 0x15FBC6, size: 0x8, addend: 0x0, symName: '__ZN5alloc11collections5btree4node121NodeRef$LT$alloc..collections..btree..node..marker..Owned$C$K$C$V$C$alloc..collections..btree..node..marker..Internal$GT$17from_new_internal17h161a50d6349f4d06E', symObjAddr: 0x2B3B4, symBinAddr: 0x10002B374, symSize: 0x50 }
  - { offset: 0x15FE11, size: 0x8, addend: 0x0, symName: '__ZN5alloc11collections5btree4node210Handle$LT$alloc..collections..btree..node..NodeRef$LT$alloc..collections..btree..node..marker..Mut$C$K$C$V$C$alloc..collections..btree..node..marker..Leaf$GT$$C$alloc..collections..btree..node..marker..Edge$GT$10insert_fit17hdc595664bdd04c6aE', symObjAddr: 0x2B404, symBinAddr: 0x10002B3C4, symSize: 0x44 }
  - { offset: 0x16074F, size: 0x8, addend: 0x0, symName: __ZN12clap_builder6output13help_template12HelpTemplate12sc_spec_vals17h9722e07b0c4ca38bE, symObjAddr: 0x2B488, symBinAddr: 0x10002B448, symSize: 0x370 }
  - { offset: 0x161CB1, size: 0x8, addend: 0x0, symName: '__ZN5alloc11collections5btree4node214Handle$LT$alloc..collections..btree..node..NodeRef$LT$alloc..collections..btree..node..marker..Mut$C$K$C$V$C$alloc..collections..btree..node..marker..Internal$GT$$C$alloc..collections..btree..node..marker..Edge$GT$10insert_fit17h5b515703a0288c09E', symObjAddr: 0x2B7F8, symBinAddr: 0x10002B7B8, symSize: 0x68 }
  - { offset: 0x1621C1, size: 0x8, addend: 0x0, symName: '__ZN5alloc11collections5btree4node212Handle$LT$alloc..collections..btree..node..NodeRef$LT$alloc..collections..btree..node..marker..Mut$C$K$C$V$C$alloc..collections..btree..node..marker..Internal$GT$$C$alloc..collections..btree..node..marker..KV$GT$5split17h0a813eb322062496E', symObjAddr: 0x2B860, symBinAddr: 0x10002B820, symSize: 0xF4 }
  - { offset: 0x162878, size: 0x8, addend: 0x0, symName: '__ZN5alloc11collections5btree4node25InternalNode$LT$K$C$V$GT$3new17h4c035f2cb009dcf1E', symObjAddr: 0x2B954, symBinAddr: 0x10002B914, symSize: 0x30 }
  - { offset: 0x1629A0, size: 0x8, addend: 0x0, symName: '__ZN5alloc11collections5btree4node210Handle$LT$alloc..collections..btree..node..NodeRef$LT$alloc..collections..btree..node..marker..Mut$C$K$C$V$C$alloc..collections..btree..node..marker..Leaf$GT$$C$alloc..collections..btree..node..marker..Edge$GT$10insert_fit17hff7536b32bcff88dE', symObjAddr: 0x2B9A4, symBinAddr: 0x10002B964, symSize: 0x44 }
  - { offset: 0x162B14, size: 0x8, addend: 0x0, symName: __ZN4core3str7pattern14TwoWaySearcher4next17h7db54be60ffac488E, symObjAddr: 0x2B9E8, symBinAddr: 0x10002B9A8, symSize: 0x168 }
  - { offset: 0x162E5E, size: 0x8, addend: 0x0, symName: __ZN12clap_builder6parser7matches11arg_matches10ArgMatches11contains_id17h97bb661be76012a7E, symObjAddr: 0x2BBE0, symBinAddr: 0x10002BBA0, symSize: 0x3C }
  - { offset: 0x16342C, size: 0x8, addend: 0x0, symName: __ZN12clap_builder6parser7matches11matched_arg10MatchedArg13infer_type_id17h547dc2e79fcc0102E, symObjAddr: 0x2BC1C, symBinAddr: 0x10002BBDC, symSize: 0xE4 }
  - { offset: 0x1639B0, size: 0x8, addend: 0x0, symName: __ZN12clap_builder6parser7matches11matched_arg10MatchedArg17into_vals_flatten17hdd20474098dbe790E, symObjAddr: 0x2BDD4, symBinAddr: 0x10002BD94, symSize: 0x48 }
  - { offset: 0x163ACA, size: 0x8, addend: 0x0, symName: __ZN12clap_builder7builder12value_parser11ValueParser7type_id17he3a6682a46b5dbfdE, symObjAddr: 0x2BE1C, symBinAddr: 0x10002BDDC, symSize: 0x28 }
  - { offset: 0x163EB5, size: 0x8, addend: 0x0, symName: __ZN12clap_builder7builder7command7Command9_do_parse17h950a147a645d34b1E, symObjAddr: 0x2BE44, symBinAddr: 0x10002BE04, symSize: 0x18C }
  - { offset: 0x168CE6, size: 0x8, addend: 0x0, symName: __ZN12clap_builder6parser6parser6Parser16get_matches_with17h0d46964132ed3ea4E, symObjAddr: 0x2BFD0, symBinAddr: 0x10002BF90, symSize: 0x348C }
  - { offset: 0x175982, size: 0x8, addend: 0x0, symName: __ZN12clap_builder7builder7command7Command15find_subcommand17hce9779d716ee5ce3E, symObjAddr: 0x2F45C, symBinAddr: 0x10002F41C, symSize: 0x50 }
  - { offset: 0x175D0D, size: 0x8, addend: 0x0, symName: __ZN12clap_builder6parser11arg_matcher10ArgMatcher21fill_in_global_values17h8990e78de9d2802bE, symObjAddr: 0x2F4AC, symBinAddr: 0x10002F46C, symSize: 0x18C }
  - { offset: 0x1767EB, size: 0x8, addend: 0x0, symName: __ZN12clap_builder7builder7command7Command10aliases_to17h71dec9494d011a00E, symObjAddr: 0x2F9B0, symBinAddr: 0x10002F970, symSize: 0x68 }
  - { offset: 0x176B0A, size: 0x8, addend: 0x0, symName: __ZN12clap_builder6parser6parser6Parser19possible_subcommand17h90e07b09ee28f1b3E, symObjAddr: 0x2FA18, symBinAddr: 0x10002F9D8, symSize: 0xB8 }
  - { offset: 0x176E14, size: 0x8, addend: 0x0, symName: __ZN12clap_builder6parser6parser6Parser8help_err17h2ae641eebf8f14e2E, symObjAddr: 0x2FAD0, symBinAddr: 0x10002FA90, symSize: 0x3C }
  - { offset: 0x176FB9, size: 0x8, addend: 0x0, symName: __ZN12clap_builder7builder7command7Command17_build_subcommand17h3f0a95a5b0894e4fE, symObjAddr: 0x2FB0C, symBinAddr: 0x10002FACC, symSize: 0x3D0 }
  - { offset: 0x177BE9, size: 0x8, addend: 0x0, symName: '__ZN12clap_builder5error14Error$LT$F$GT$23unrecognized_subcommand17h24549c370474fa8fE', symObjAddr: 0x2FEDC, symBinAddr: 0x10002FE9C, symSize: 0x6C }
  - { offset: 0x177DD8, size: 0x8, addend: 0x0, symName: __ZN12clap_builder6parser6parser6Parser15parse_opt_value17h2308932706fec5fcE, symObjAddr: 0x300B0, symBinAddr: 0x100030070, symSize: 0x174 }
  - { offset: 0x178FB1, size: 0x8, addend: 0x0, symName: __ZN12clap_builder6parser6parser6Parser5react17hcac781afc3dec7f9E, symObjAddr: 0x30224, symBinAddr: 0x1000301E4, symSize: 0xC18 }
  - { offset: 0x17B842, size: 0x8, addend: 0x0, symName: __ZN12clap_builder7mkeymap7MKeyMap3get17hc81e25f3d58b4455E, symObjAddr: 0x30E3C, symBinAddr: 0x100030DFC, symSize: 0x48 }
  - { offset: 0x17B874, size: 0x8, addend: 0x0, symName: __ZN12clap_builder7mkeymap7MKeyMap3get17hc81e25f3d58b4455E, symObjAddr: 0x30E3C, symBinAddr: 0x100030DFC, symSize: 0x48 }
  - { offset: 0x17B891, size: 0x8, addend: 0x0, symName: __ZN12clap_builder7mkeymap7MKeyMap3get17hc81e25f3d58b4455E, symObjAddr: 0x30E3C, symBinAddr: 0x100030DFC, symSize: 0x48 }
  - { offset: 0x17B8AF, size: 0x8, addend: 0x0, symName: __ZN12clap_builder7mkeymap7MKeyMap3get17hc81e25f3d58b4455E, symObjAddr: 0x30E3C, symBinAddr: 0x100030DFC, symSize: 0x48 }
  - { offset: 0x17B8CD, size: 0x8, addend: 0x0, symName: __ZN12clap_builder7mkeymap7MKeyMap3get17hc81e25f3d58b4455E, symObjAddr: 0x30E3C, symBinAddr: 0x100030DFC, symSize: 0x48 }
  - { offset: 0x17B8E2, size: 0x8, addend: 0x0, symName: __ZN12clap_builder7mkeymap7MKeyMap3get17hc81e25f3d58b4455E, symObjAddr: 0x30E3C, symBinAddr: 0x100030DFC, symSize: 0x48 }
  - { offset: 0x17B8F7, size: 0x8, addend: 0x0, symName: __ZN12clap_builder7mkeymap7MKeyMap3get17hc81e25f3d58b4455E, symObjAddr: 0x30E3C, symBinAddr: 0x100030DFC, symSize: 0x48 }
  - { offset: 0x17BAAC, size: 0x8, addend: 0x0, symName: __ZN12clap_builder6parser6parser6Parser15resolve_pending17he693ea937fe980b9E, symObjAddr: 0x30E84, symBinAddr: 0x100030E44, symSize: 0xC8 }
  - { offset: 0x17BB63, size: 0x8, addend: 0x0, symName: '__ZN12clap_builder5error14Error$LT$F$GT$15too_many_values17h692fcc3308e51024E', symObjAddr: 0x30F58, symBinAddr: 0x100030F18, symSize: 0xB0 }
  - { offset: 0x17BBF9, size: 0x8, addend: 0x0, symName: '__ZN12clap_builder5error14Error$LT$F$GT$9no_equals17hd50a199d5c937790E', symObjAddr: 0x31008, symBinAddr: 0x100030FC8, symSize: 0x74 }
  - { offset: 0x17BF13, size: 0x8, addend: 0x0, symName: __ZN12clap_builder6parser6parser6Parser16start_custom_arg17hca4cb36484980bfbE, symObjAddr: 0x3107C, symBinAddr: 0x10003103C, symSize: 0x264 }
  - { offset: 0x17C8DD, size: 0x8, addend: 0x0, symName: __ZN12clap_builder7builder7command7Command15has_positionals17h3043c3c8106f048eE, symObjAddr: 0x312E0, symBinAddr: 0x1000312A0, symSize: 0x30 }
  - { offset: 0x17CA33, size: 0x8, addend: 0x0, symName: '__ZN12clap_builder5error14Error$LT$F$GT$16unknown_argument17h703802eb27d7e921E', symObjAddr: 0x31310, symBinAddr: 0x1000312D0, symSize: 0x278 }
  - { offset: 0x17CD8B, size: 0x8, addend: 0x0, symName: __ZN12clap_builder6parser6parser6Parser16check_terminator17hc5b937e8161b8c68E, symObjAddr: 0x315F0, symBinAddr: 0x1000315B0, symSize: 0x4C }
  - { offset: 0x17CE32, size: 0x8, addend: 0x0, symName: __ZN12clap_builder6parser11arg_matcher10ArgMatcher18pending_values_mut17h1bb5b291ab766a2aE, symObjAddr: 0x3163C, symBinAddr: 0x1000315FC, symSize: 0x74 }
  - { offset: 0x17CF55, size: 0x8, addend: 0x0, symName: '__ZN5alloc3vec16Vec$LT$T$C$A$GT$4push17h9a50e6f82f687de7E', symObjAddr: 0x316B0, symBinAddr: 0x100031670, symSize: 0x30 }
  - { offset: 0x17CFCF, size: 0x8, addend: 0x0, symName: __ZN12clap_builder7builder3arg3Arg11is_multiple17h86f3e2eb8146e354E, symObjAddr: 0x316E0, symBinAddr: 0x1000316A0, symSize: 0x2C }
  - { offset: 0x17CFF4, size: 0x8, addend: 0x0, symName: __ZN12clap_builder7builder3arg3Arg11is_multiple17h86f3e2eb8146e354E, symObjAddr: 0x316E0, symBinAddr: 0x1000316A0, symSize: 0x2C }
  - { offset: 0x17D010, size: 0x8, addend: 0x0, symName: __ZN12clap_builder7builder3arg3Arg11is_multiple17h86f3e2eb8146e354E, symObjAddr: 0x316E0, symBinAddr: 0x1000316A0, symSize: 0x2C }
  - { offset: 0x17D07E, size: 0x8, addend: 0x0, symName: __ZN12clap_builder7builder7command7Command36get_external_subcommand_value_parser17h2c386ded6932bb9bE, symObjAddr: 0x3170C, symBinAddr: 0x1000316CC, symSize: 0x2C }
  - { offset: 0x17D5A3, size: 0x8, addend: 0x0, symName: __ZN12clap_builder6parser6parser6Parser15match_arg_error17hb076a89ebff1d7efE, symObjAddr: 0x31738, symBinAddr: 0x1000316F8, symSize: 0x748 }
  - { offset: 0x17ED85, size: 0x8, addend: 0x0, symName: __ZN12clap_builder6parser11arg_matcher10ArgMatcher5entry17hee524ca689694bb1E, symObjAddr: 0x31E80, symBinAddr: 0x100031E40, symSize: 0x64 }
  - { offset: 0x17EEEA, size: 0x8, addend: 0x0, symName: '__ZN12clap_builder4util8flat_map18Entry$LT$K$C$V$GT$9or_insert17h08f876f7cbf922e8E', symObjAddr: 0x31EE4, symBinAddr: 0x100031EA4, symSize: 0x80 }
  - { offset: 0x17F22C, size: 0x8, addend: 0x0, symName: __ZN12clap_builder6parser7matches11matched_arg10MatchedArg13new_val_group17h6c2a0d736081d369E, symObjAddr: 0x31F64, symBinAddr: 0x100031F24, symSize: 0x84 }
  - { offset: 0x17F4B4, size: 0x8, addend: 0x0, symName: __ZN12clap_builder7builder12value_parser11ValueParser9parse_ref17hbb8ce613035b3ef7E, symObjAddr: 0x31FE8, symBinAddr: 0x100031FA8, symSize: 0x5C }
  - { offset: 0x17F637, size: 0x8, addend: 0x0, symName: __ZN12clap_builder6parser11arg_matcher10ArgMatcher10add_val_to17h961d51b122a204ecE, symObjAddr: 0x32044, symBinAddr: 0x100032004, symSize: 0xA0 }
  - { offset: 0x17F77A, size: 0x8, addend: 0x0, symName: __ZN12clap_builder6parser11arg_matcher10ArgMatcher10subcommand17ha184ee9dd87b35bcE, symObjAddr: 0x320E4, symBinAddr: 0x1000320A4, symSize: 0x3C }
  - { offset: 0x17F7F7, size: 0x8, addend: 0x0, symName: '__ZN12clap_builder5error14Error$LT$F$GT$19subcommand_conflict17ha0833fabd379b919E', symObjAddr: 0x32120, symBinAddr: 0x1000320E0, symSize: 0xFC }
  - { offset: 0x17F8C9, size: 0x8, addend: 0x0, symName: __ZN12clap_builder6parser6parser6Parser7add_env17h61a0fad7f06cd779E, symObjAddr: 0x3221C, symBinAddr: 0x1000321DC, symSize: 0xEC }
  - { offset: 0x180225, size: 0x8, addend: 0x0, symName: __ZN12clap_builder6parser6parser6Parser12add_defaults17hd0ca6248aa9014eeE, symObjAddr: 0x32308, symBinAddr: 0x1000322C8, symSize: 0x25C }
  - { offset: 0x1813C9, size: 0x8, addend: 0x0, symName: __ZN12clap_builder7builder7command7Command14write_help_err17h96090b37109e29dcE, symObjAddr: 0x32564, symBinAddr: 0x100032524, symSize: 0x288 }
  - { offset: 0x181E6D, size: 0x8, addend: 0x0, symName: '__ZN12clap_builder5error14Error$LT$F$GT$7for_app17hdda4aaacd12f7847E', symObjAddr: 0x327EC, symBinAddr: 0x1000327AC, symSize: 0x4C }
  - { offset: 0x181EE0, size: 0x8, addend: 0x0, symName: '__ZN12clap_builder5error14Error$LT$F$GT$17argument_conflict17hfc658e515ff47dd6E', symObjAddr: 0x32838, symBinAddr: 0x1000327F8, symSize: 0x104 }
  - { offset: 0x18227F, size: 0x8, addend: 0x0, symName: __ZN12clap_builder6parser9validator9Conflicts16gather_conflicts17h7a792ab64b645420E, symObjAddr: 0x3293C, symBinAddr: 0x1000328FC, symSize: 0x168 }
  - { offset: 0x1828D5, size: 0x8, addend: 0x0, symName: __ZN12clap_builder6parser11arg_matcher10ArgMatcher8contains17h63559b6d8f64c5b6E, symObjAddr: 0x32AB0, symBinAddr: 0x100032A70, symSize: 0x50 }
  - { offset: 0x182A9E, size: 0x8, addend: 0x0, symName: __ZN12clap_builder6parser11arg_matcher10ArgMatcher7get_mut17hbed5f9d92d09cf16E, symObjAddr: 0x32B60, symBinAddr: 0x100032B20, symSize: 0x80 }
  - { offset: 0x182C9E, size: 0x8, addend: 0x0, symName: '__ZN4core6option15Option$LT$T$GT$6expect17h7387f66d6dc2db9cE', symObjAddr: 0x32BE0, symBinAddr: 0x100032BA0, symSize: 0x14 }
  - { offset: 0x182DFA, size: 0x8, addend: 0x0, symName: __ZN12clap_builder6parser11arg_matcher10ArgMatcher6remove17h72399a54e354e9c6E, symObjAddr: 0x32BF4, symBinAddr: 0x100032BB4, symSize: 0xD8 }
  - { offset: 0x18314D, size: 0x8, addend: 0x0, symName: __ZN12clap_builder6parser6parser6Parser15push_arg_values17hfeeb72d3866b4687E, symObjAddr: 0x32CCC, symBinAddr: 0x100032C8C, symSize: 0x14C }
  - { offset: 0x183662, size: 0x8, addend: 0x0, symName: '__ZN5alloc3vec6splice55_$LT$impl$u20$alloc..vec..drain..Drain$LT$T$C$A$GT$$GT$4fill17ha51f23008a84e558E', symObjAddr: 0x32EB0, symBinAddr: 0x100032E70, symSize: 0x8C }
  - { offset: 0x183A79, size: 0x8, addend: 0x0, symName: '__ZN5alloc3vec6splice55_$LT$impl$u20$alloc..vec..drain..Drain$LT$T$C$A$GT$$GT$9move_tail17hd884d82adb569738E', symObjAddr: 0x32F3C, symBinAddr: 0x100032EFC, symSize: 0x6C }
  - { offset: 0x183D09, size: 0x8, addend: 0x0, symName: _OUTLINED_FUNCTION_19, symObjAddr: 0xA2D2C, symBinAddr: 0x10009D414, symSize: 0x44 }
  - { offset: 0x183D21, size: 0x8, addend: 0x0, symName: _OUTLINED_FUNCTION_34, symObjAddr: 0xA2EB4, symBinAddr: 0x10009D59C, symSize: 0x18 }
  - { offset: 0x183D39, size: 0x8, addend: 0x0, symName: _OUTLINED_FUNCTION_39, symObjAddr: 0xA2F2C, symBinAddr: 0x10009D614, symSize: 0x1C }
  - { offset: 0x183D51, size: 0x8, addend: 0x0, symName: _OUTLINED_FUNCTION_40, symObjAddr: 0xA2F48, symBinAddr: 0x10009D630, symSize: 0x1C }
  - { offset: 0x183D69, size: 0x8, addend: 0x0, symName: _OUTLINED_FUNCTION_42, symObjAddr: 0xA2F70, symBinAddr: 0x10009D658, symSize: 0x28 }
  - { offset: 0x183D81, size: 0x8, addend: 0x0, symName: _OUTLINED_FUNCTION_44, symObjAddr: 0xA2FA8, symBinAddr: 0x10009D690, symSize: 0x14 }
  - { offset: 0x183D99, size: 0x8, addend: 0x0, symName: _OUTLINED_FUNCTION_47, symObjAddr: 0xA2FE4, symBinAddr: 0x10009D6CC, symSize: 0x1C }
  - { offset: 0x183DB1, size: 0x8, addend: 0x0, symName: _OUTLINED_FUNCTION_49, symObjAddr: 0xA301C, symBinAddr: 0x10009D704, symSize: 0x10 }
  - { offset: 0x183DC9, size: 0x8, addend: 0x0, symName: _OUTLINED_FUNCTION_50, symObjAddr: 0xA302C, symBinAddr: 0x10009D714, symSize: 0x18 }
  - { offset: 0x183DE1, size: 0x8, addend: 0x0, symName: _OUTLINED_FUNCTION_55, symObjAddr: 0xA3098, symBinAddr: 0x10009D780, symSize: 0x20 }
  - { offset: 0x183DF9, size: 0x8, addend: 0x0, symName: _OUTLINED_FUNCTION_57, symObjAddr: 0xA30D8, symBinAddr: 0x10009D7C0, symSize: 0x18 }
  - { offset: 0x183E11, size: 0x8, addend: 0x0, symName: _OUTLINED_FUNCTION_58, symObjAddr: 0xA30F0, symBinAddr: 0x10009D7D8, symSize: 0x20 }
  - { offset: 0x183E29, size: 0x8, addend: 0x0, symName: _OUTLINED_FUNCTION_68, symObjAddr: 0xA31EC, symBinAddr: 0x10009D8D4, symSize: 0x14 }
  - { offset: 0x183E41, size: 0x8, addend: 0x0, symName: _OUTLINED_FUNCTION_72, symObjAddr: 0xA3238, symBinAddr: 0x10009D920, symSize: 0x10 }
  - { offset: 0x183E59, size: 0x8, addend: 0x0, symName: _OUTLINED_FUNCTION_74, symObjAddr: 0xA3258, symBinAddr: 0x10009D940, symSize: 0x1C }
  - { offset: 0x183E71, size: 0x8, addend: 0x0, symName: _OUTLINED_FUNCTION_80, symObjAddr: 0xA3320, symBinAddr: 0x10009DA08, symSize: 0x1C }
  - { offset: 0x183E89, size: 0x8, addend: 0x0, symName: _OUTLINED_FUNCTION_82, symObjAddr: 0xA3350, symBinAddr: 0x10009DA38, symSize: 0x14 }
  - { offset: 0x183EA1, size: 0x8, addend: 0x0, symName: _OUTLINED_FUNCTION_83, symObjAddr: 0xA3364, symBinAddr: 0x10009DA4C, symSize: 0x14 }
  - { offset: 0x183EB9, size: 0x8, addend: 0x0, symName: _OUTLINED_FUNCTION_88, symObjAddr: 0xA33C8, symBinAddr: 0x10009DAB0, symSize: 0x14 }
  - { offset: 0x183ED1, size: 0x8, addend: 0x0, symName: _OUTLINED_FUNCTION_91, symObjAddr: 0xA33F8, symBinAddr: 0x10009DAE0, symSize: 0x10 }
  - { offset: 0x183EE9, size: 0x8, addend: 0x0, symName: _OUTLINED_FUNCTION_93, symObjAddr: 0xA3418, symBinAddr: 0x10009DB00, symSize: 0x10 }
  - { offset: 0x183F01, size: 0x8, addend: 0x0, symName: _OUTLINED_FUNCTION_108, symObjAddr: 0xA353C, symBinAddr: 0x10009DC24, symSize: 0xC }
  - { offset: 0x183F19, size: 0x8, addend: 0x0, symName: _OUTLINED_FUNCTION_109, symObjAddr: 0xA3548, symBinAddr: 0x10009DC30, symSize: 0xC }
  - { offset: 0x183F31, size: 0x8, addend: 0x0, symName: _OUTLINED_FUNCTION_124, symObjAddr: 0xA3710, symBinAddr: 0x10009DDF8, symSize: 0x18 }
  - { offset: 0x183F49, size: 0x8, addend: 0x0, symName: _OUTLINED_FUNCTION_132, symObjAddr: 0xA379C, symBinAddr: 0x10009DE84, symSize: 0xC }
  - { offset: 0x183F61, size: 0x8, addend: 0x0, symName: _OUTLINED_FUNCTION_133, symObjAddr: 0xA37A8, symBinAddr: 0x10009DE90, symSize: 0xC }
  - { offset: 0x183F79, size: 0x8, addend: 0x0, symName: _OUTLINED_FUNCTION_135, symObjAddr: 0xA37C0, symBinAddr: 0x10009DEA8, symSize: 0x24 }
  - { offset: 0x183F91, size: 0x8, addend: 0x0, symName: _OUTLINED_FUNCTION_138, symObjAddr: 0xA3800, symBinAddr: 0x10009DEE8, symSize: 0x10 }
  - { offset: 0x183FA9, size: 0x8, addend: 0x0, symName: _OUTLINED_FUNCTION_143, symObjAddr: 0xA385C, symBinAddr: 0x10009DF44, symSize: 0x10 }
  - { offset: 0x183FC1, size: 0x8, addend: 0x0, symName: _OUTLINED_FUNCTION_144, symObjAddr: 0xA386C, symBinAddr: 0x10009DF54, symSize: 0x10 }
  - { offset: 0x183FD9, size: 0x8, addend: 0x0, symName: _OUTLINED_FUNCTION_145, symObjAddr: 0xA387C, symBinAddr: 0x10009DF64, symSize: 0x14 }
  - { offset: 0x183FF1, size: 0x8, addend: 0x0, symName: _OUTLINED_FUNCTION_147, symObjAddr: 0xA38A0, symBinAddr: 0x10009DF88, symSize: 0x10 }
  - { offset: 0x184009, size: 0x8, addend: 0x0, symName: _OUTLINED_FUNCTION_150, symObjAddr: 0xA38D4, symBinAddr: 0x10009DFBC, symSize: 0x14 }
  - { offset: 0x184021, size: 0x8, addend: 0x0, symName: _OUTLINED_FUNCTION_159, symObjAddr: 0xA398C, symBinAddr: 0x10009E074, symSize: 0x20 }
  - { offset: 0x184039, size: 0x8, addend: 0x0, symName: _OUTLINED_FUNCTION_161, symObjAddr: 0xA39B8, symBinAddr: 0x10009E0A0, symSize: 0x1C }
  - { offset: 0x184051, size: 0x8, addend: 0x0, symName: _OUTLINED_FUNCTION_163, symObjAddr: 0xA39F0, symBinAddr: 0x10009E0D8, symSize: 0x1C }
  - { offset: 0x184069, size: 0x8, addend: 0x0, symName: _OUTLINED_FUNCTION_169, symObjAddr: 0xA3A70, symBinAddr: 0x10009E158, symSize: 0x20 }
  - { offset: 0x184081, size: 0x8, addend: 0x0, symName: _OUTLINED_FUNCTION_170, symObjAddr: 0xA3A90, symBinAddr: 0x10009E178, symSize: 0xC }
  - { offset: 0x184099, size: 0x8, addend: 0x0, symName: _OUTLINED_FUNCTION_176, symObjAddr: 0xA3B2C, symBinAddr: 0x10009E214, symSize: 0x1C }
  - { offset: 0x1840B1, size: 0x8, addend: 0x0, symName: _OUTLINED_FUNCTION_179, symObjAddr: 0xA3B70, symBinAddr: 0x10009E258, symSize: 0x1C }
  - { offset: 0x1840C9, size: 0x8, addend: 0x0, symName: _OUTLINED_FUNCTION_182, symObjAddr: 0xA3BB4, symBinAddr: 0x10009E29C, symSize: 0x1C }
  - { offset: 0x1840E1, size: 0x8, addend: 0x0, symName: _OUTLINED_FUNCTION_184, symObjAddr: 0xA3BEC, symBinAddr: 0x10009E2D4, symSize: 0x1C }
  - { offset: 0x1840F9, size: 0x8, addend: 0x0, symName: _OUTLINED_FUNCTION_185, symObjAddr: 0xA3C08, symBinAddr: 0x10009E2F0, symSize: 0xC }
  - { offset: 0x184111, size: 0x8, addend: 0x0, symName: _OUTLINED_FUNCTION_189, symObjAddr: 0xA3C48, symBinAddr: 0x10009E330, symSize: 0xC }
  - { offset: 0x184129, size: 0x8, addend: 0x0, symName: _OUTLINED_FUNCTION_192, symObjAddr: 0xA3C70, symBinAddr: 0x10009E358, symSize: 0x28 }
  - { offset: 0x184141, size: 0x8, addend: 0x0, symName: _OUTLINED_FUNCTION_203, symObjAddr: 0xA3D34, symBinAddr: 0x10009E41C, symSize: 0x10 }
  - { offset: 0x184159, size: 0x8, addend: 0x0, symName: _OUTLINED_FUNCTION_208, symObjAddr: 0xA3D98, symBinAddr: 0x10009E480, symSize: 0x18 }
  - { offset: 0x184171, size: 0x8, addend: 0x0, symName: _OUTLINED_FUNCTION_209, symObjAddr: 0xA3DB0, symBinAddr: 0x10009E498, symSize: 0x18 }
  - { offset: 0x184189, size: 0x8, addend: 0x0, symName: _OUTLINED_FUNCTION_210, symObjAddr: 0xA3DC8, symBinAddr: 0x10009E4B0, symSize: 0x18 }
  - { offset: 0x1841A1, size: 0x8, addend: 0x0, symName: _OUTLINED_FUNCTION_235, symObjAddr: 0xA3F68, symBinAddr: 0x10009E650, symSize: 0x18 }
  - { offset: 0x1841B9, size: 0x8, addend: 0x0, symName: _OUTLINED_FUNCTION_236, symObjAddr: 0xA3F80, symBinAddr: 0x10009E668, symSize: 0xC }
  - { offset: 0x1841D1, size: 0x8, addend: 0x0, symName: _OUTLINED_FUNCTION_237, symObjAddr: 0xA3F8C, symBinAddr: 0x10009E674, symSize: 0x10 }
  - { offset: 0x1841E9, size: 0x8, addend: 0x0, symName: _OUTLINED_FUNCTION_238, symObjAddr: 0xA3F9C, symBinAddr: 0x10009E684, symSize: 0x14 }
  - { offset: 0x184201, size: 0x8, addend: 0x0, symName: _OUTLINED_FUNCTION_247, symObjAddr: 0xA4058, symBinAddr: 0x10009E740, symSize: 0x14 }
  - { offset: 0x184219, size: 0x8, addend: 0x0, symName: _OUTLINED_FUNCTION_252, symObjAddr: 0xA40B8, symBinAddr: 0x10009E7A0, symSize: 0x10 }
  - { offset: 0x184231, size: 0x8, addend: 0x0, symName: _OUTLINED_FUNCTION_257, symObjAddr: 0xA40FC, symBinAddr: 0x10009E7E4, symSize: 0x18 }
  - { offset: 0x184249, size: 0x8, addend: 0x0, symName: _OUTLINED_FUNCTION_271, symObjAddr: 0xA41A8, symBinAddr: 0x10009E890, symSize: 0x10 }
  - { offset: 0x184261, size: 0x8, addend: 0x0, symName: _OUTLINED_FUNCTION_277, symObjAddr: 0xA4218, symBinAddr: 0x10009E900, symSize: 0x10 }
  - { offset: 0x184279, size: 0x8, addend: 0x0, symName: _OUTLINED_FUNCTION_281, symObjAddr: 0xA4268, symBinAddr: 0x10009E950, symSize: 0x10 }
  - { offset: 0x184291, size: 0x8, addend: 0x0, symName: _OUTLINED_FUNCTION_292, symObjAddr: 0xA42D4, symBinAddr: 0x10009E9BC, symSize: 0x8 }
  - { offset: 0x1842A9, size: 0x8, addend: 0x0, symName: _OUTLINED_FUNCTION_296, symObjAddr: 0xA42FC, symBinAddr: 0x10009E9E4, symSize: 0xC }
  - { offset: 0x1842C1, size: 0x8, addend: 0x0, symName: _OUTLINED_FUNCTION_298, symObjAddr: 0xA4314, symBinAddr: 0x10009E9FC, symSize: 0xC }
  - { offset: 0x1842D9, size: 0x8, addend: 0x0, symName: _OUTLINED_FUNCTION_301, symObjAddr: 0xA4338, symBinAddr: 0x10009EA20, symSize: 0xC }
  - { offset: 0x1842F1, size: 0x8, addend: 0x0, symName: _OUTLINED_FUNCTION_311, symObjAddr: 0xA43D0, symBinAddr: 0x10009EAB8, symSize: 0x14 }
  - { offset: 0x184309, size: 0x8, addend: 0x0, symName: _OUTLINED_FUNCTION_312, symObjAddr: 0xA43E4, symBinAddr: 0x10009EACC, symSize: 0xC }
  - { offset: 0x184321, size: 0x8, addend: 0x0, symName: _OUTLINED_FUNCTION_317, symObjAddr: 0xA4428, symBinAddr: 0x10009EB10, symSize: 0xC }
  - { offset: 0x184339, size: 0x8, addend: 0x0, symName: _OUTLINED_FUNCTION_319, symObjAddr: 0xA4448, symBinAddr: 0x10009EB30, symSize: 0xC }
  - { offset: 0x184351, size: 0x8, addend: 0x0, symName: _OUTLINED_FUNCTION_322, symObjAddr: 0xA446C, symBinAddr: 0x10009EB54, symSize: 0xC }
  - { offset: 0x184369, size: 0x8, addend: 0x0, symName: _OUTLINED_FUNCTION_328, symObjAddr: 0xA4514, symBinAddr: 0x10009EBFC, symSize: 0x8 }
  - { offset: 0x184381, size: 0x8, addend: 0x0, symName: _OUTLINED_FUNCTION_350, symObjAddr: 0xA45F0, symBinAddr: 0x10009ECD8, symSize: 0xC }
  - { offset: 0x184399, size: 0x8, addend: 0x0, symName: _OUTLINED_FUNCTION_372, symObjAddr: 0xA47EC, symBinAddr: 0x10009EED4, symSize: 0x10 }
  - { offset: 0x1843B1, size: 0x8, addend: 0x0, symName: _OUTLINED_FUNCTION_386, symObjAddr: 0xA48B4, symBinAddr: 0x10009EF9C, symSize: 0x14 }
  - { offset: 0x1843C9, size: 0x8, addend: 0x0, symName: _OUTLINED_FUNCTION_392, symObjAddr: 0xA4924, symBinAddr: 0x10009F00C, symSize: 0x14 }
  - { offset: 0x1843E1, size: 0x8, addend: 0x0, symName: _OUTLINED_FUNCTION_397, symObjAddr: 0xA4988, symBinAddr: 0x10009F070, symSize: 0x14 }
  - { offset: 0x1843F9, size: 0x8, addend: 0x0, symName: _OUTLINED_FUNCTION_400, symObjAddr: 0xA49C4, symBinAddr: 0x10009F0AC, symSize: 0x14 }
  - { offset: 0x184411, size: 0x8, addend: 0x0, symName: _OUTLINED_FUNCTION_414, symObjAddr: 0xA4A6C, symBinAddr: 0x10009F154, symSize: 0x8 }
  - { offset: 0x184429, size: 0x8, addend: 0x0, symName: _OUTLINED_FUNCTION_420, symObjAddr: 0xA4AA8, symBinAddr: 0x10009F190, symSize: 0x8 }
  - { offset: 0x184441, size: 0x8, addend: 0x0, symName: _OUTLINED_FUNCTION_425, symObjAddr: 0xA4B00, symBinAddr: 0x10009F1E8, symSize: 0x58 }
  - { offset: 0x184459, size: 0x8, addend: 0x0, symName: _OUTLINED_FUNCTION_430, symObjAddr: 0xA4B8C, symBinAddr: 0x10009F274, symSize: 0x8 }
  - { offset: 0x184471, size: 0x8, addend: 0x0, symName: _OUTLINED_FUNCTION_432, symObjAddr: 0xA4B9C, symBinAddr: 0x10009F284, symSize: 0x8 }
  - { offset: 0x184489, size: 0x8, addend: 0x0, symName: _OUTLINED_FUNCTION_434, symObjAddr: 0xA4BAC, symBinAddr: 0x10009F294, symSize: 0xC }
  - { offset: 0x1844A1, size: 0x8, addend: 0x0, symName: _OUTLINED_FUNCTION_436, symObjAddr: 0xA4BC4, symBinAddr: 0x10009F2AC, symSize: 0xC }
  - { offset: 0x1844B9, size: 0x8, addend: 0x0, symName: _OUTLINED_FUNCTION_437, symObjAddr: 0xA4BD0, symBinAddr: 0x10009F2B8, symSize: 0xC }
  - { offset: 0x1844D1, size: 0x8, addend: 0x0, symName: _OUTLINED_FUNCTION_441, symObjAddr: 0xA4C00, symBinAddr: 0x10009F2E8, symSize: 0x10 }
  - { offset: 0x1844E9, size: 0x8, addend: 0x0, symName: _OUTLINED_FUNCTION_442, symObjAddr: 0xA4C10, symBinAddr: 0x10009F2F8, symSize: 0xC }
  - { offset: 0x184501, size: 0x8, addend: 0x0, symName: _OUTLINED_FUNCTION_449, symObjAddr: 0xA4CB0, symBinAddr: 0x10009F398, symSize: 0xC }
  - { offset: 0x184519, size: 0x8, addend: 0x0, symName: _OUTLINED_FUNCTION_459, symObjAddr: 0xA4D30, symBinAddr: 0x10009F418, symSize: 0xC }
  - { offset: 0x184531, size: 0x8, addend: 0x0, symName: _OUTLINED_FUNCTION_465, symObjAddr: 0xA4D78, symBinAddr: 0x10009F460, symSize: 0x10 }
  - { offset: 0x184549, size: 0x8, addend: 0x0, symName: _OUTLINED_FUNCTION_466, symObjAddr: 0xA4D88, symBinAddr: 0x10009F470, symSize: 0xC }
  - { offset: 0x184561, size: 0x8, addend: 0x0, symName: _OUTLINED_FUNCTION_469, symObjAddr: 0xA4DB4, symBinAddr: 0x10009F49C, symSize: 0x10 }
  - { offset: 0x184579, size: 0x8, addend: 0x0, symName: _OUTLINED_FUNCTION_470, symObjAddr: 0xA4DC4, symBinAddr: 0x10009F4AC, symSize: 0xC }
  - { offset: 0x184591, size: 0x8, addend: 0x0, symName: _OUTLINED_FUNCTION_473, symObjAddr: 0xA4DF0, symBinAddr: 0x10009F4D8, symSize: 0xC }
  - { offset: 0x1845A9, size: 0x8, addend: 0x0, symName: _OUTLINED_FUNCTION_474, symObjAddr: 0xA4DFC, symBinAddr: 0x10009F4E4, symSize: 0xC }
  - { offset: 0x1845C1, size: 0x8, addend: 0x0, symName: _OUTLINED_FUNCTION_486, symObjAddr: 0xA4E98, symBinAddr: 0x10009F580, symSize: 0xC }
  - { offset: 0x1845D9, size: 0x8, addend: 0x0, symName: _OUTLINED_FUNCTION_489, symObjAddr: 0xA4EBC, symBinAddr: 0x10009F5A4, symSize: 0xC }
  - { offset: 0x1845F1, size: 0x8, addend: 0x0, symName: _OUTLINED_FUNCTION_490, symObjAddr: 0xA4EC8, symBinAddr: 0x10009F5B0, symSize: 0x10 }
  - { offset: 0x184609, size: 0x8, addend: 0x0, symName: _OUTLINED_FUNCTION_492, symObjAddr: 0xA4EE4, symBinAddr: 0x10009F5CC, symSize: 0xC }
  - { offset: 0x184621, size: 0x8, addend: 0x0, symName: _OUTLINED_FUNCTION_495, symObjAddr: 0xA4F08, symBinAddr: 0x10009F5F0, symSize: 0x8 }
  - { offset: 0x184639, size: 0x8, addend: 0x0, symName: _OUTLINED_FUNCTION_499, symObjAddr: 0xA4F34, symBinAddr: 0x10009F61C, symSize: 0xC }
  - { offset: 0x184651, size: 0x8, addend: 0x0, symName: _OUTLINED_FUNCTION_500, symObjAddr: 0xA4F40, symBinAddr: 0x10009F628, symSize: 0xC }
  - { offset: 0x184669, size: 0x8, addend: 0x0, symName: _OUTLINED_FUNCTION_504, symObjAddr: 0xA4F74, symBinAddr: 0x10009F65C, symSize: 0xC }
  - { offset: 0x184681, size: 0x8, addend: 0x0, symName: _OUTLINED_FUNCTION_505, symObjAddr: 0xA4F80, symBinAddr: 0x10009F668, symSize: 0x30 }
  - { offset: 0x184699, size: 0x8, addend: 0x0, symName: _OUTLINED_FUNCTION_507, symObjAddr: 0xA4FB8, symBinAddr: 0x10009F6A0, symSize: 0x10 }
  - { offset: 0x1846B1, size: 0x8, addend: 0x0, symName: _OUTLINED_FUNCTION_510, symObjAddr: 0xA4FE0, symBinAddr: 0x10009F6C8, symSize: 0xC }
  - { offset: 0x1846C9, size: 0x8, addend: 0x0, symName: _OUTLINED_FUNCTION_522, symObjAddr: 0xA5064, symBinAddr: 0x10009F74C, symSize: 0xC }
  - { offset: 0x1846E1, size: 0x8, addend: 0x0, symName: _OUTLINED_FUNCTION_524, symObjAddr: 0xA5080, symBinAddr: 0x10009F768, symSize: 0xC }
  - { offset: 0x1846F9, size: 0x8, addend: 0x0, symName: _OUTLINED_FUNCTION_533, symObjAddr: 0xA5128, symBinAddr: 0x10009F810, symSize: 0xC }
  - { offset: 0x184711, size: 0x8, addend: 0x0, symName: _OUTLINED_FUNCTION_558, symObjAddr: 0xA52A8, symBinAddr: 0x10009F990, symSize: 0xC }
  - { offset: 0x184729, size: 0x8, addend: 0x0, symName: _OUTLINED_FUNCTION_561, symObjAddr: 0xA52D4, symBinAddr: 0x10009F9BC, symSize: 0x10 }
  - { offset: 0x184741, size: 0x8, addend: 0x0, symName: _OUTLINED_FUNCTION_570, symObjAddr: 0xA536C, symBinAddr: 0x10009FA54, symSize: 0x10 }
  - { offset: 0x184759, size: 0x8, addend: 0x0, symName: _OUTLINED_FUNCTION_573, symObjAddr: 0xA53B0, symBinAddr: 0x10009FA98, symSize: 0x18 }
  - { offset: 0x184771, size: 0x8, addend: 0x0, symName: _OUTLINED_FUNCTION_574, symObjAddr: 0xA53C8, symBinAddr: 0x10009FAB0, symSize: 0x18 }
  - { offset: 0x184789, size: 0x8, addend: 0x0, symName: _OUTLINED_FUNCTION_584, symObjAddr: 0xA5474, symBinAddr: 0x10009FB5C, symSize: 0x8 }
  - { offset: 0x1847A1, size: 0x8, addend: 0x0, symName: _OUTLINED_FUNCTION_585, symObjAddr: 0xA547C, symBinAddr: 0x10009FB64, symSize: 0x8 }
  - { offset: 0x1847B9, size: 0x8, addend: 0x0, symName: _OUTLINED_FUNCTION_593, symObjAddr: 0xA54D8, symBinAddr: 0x10009FBC0, symSize: 0xC }
  - { offset: 0x1847D1, size: 0x8, addend: 0x0, symName: _OUTLINED_FUNCTION_601, symObjAddr: 0xA5530, symBinAddr: 0x10009FC18, symSize: 0x8 }
  - { offset: 0x1847E9, size: 0x8, addend: 0x0, symName: _OUTLINED_FUNCTION_602, symObjAddr: 0xA5538, symBinAddr: 0x10009FC20, symSize: 0x8 }
  - { offset: 0x184801, size: 0x8, addend: 0x0, symName: _OUTLINED_FUNCTION_603, symObjAddr: 0xA5540, symBinAddr: 0x10009FC28, symSize: 0x24 }
  - { offset: 0x184819, size: 0x8, addend: 0x0, symName: _OUTLINED_FUNCTION_616, symObjAddr: 0xA55DC, symBinAddr: 0x10009FCC4, symSize: 0x38 }
  - { offset: 0x184831, size: 0x8, addend: 0x0, symName: _OUTLINED_FUNCTION_619, symObjAddr: 0xA562C, symBinAddr: 0x10009FD14, symSize: 0xC }
  - { offset: 0x184849, size: 0x8, addend: 0x0, symName: _OUTLINED_FUNCTION_625, symObjAddr: 0xA5690, symBinAddr: 0x10009FD78, symSize: 0x10 }
  - { offset: 0x184861, size: 0x8, addend: 0x0, symName: _OUTLINED_FUNCTION_632, symObjAddr: 0xA56E0, symBinAddr: 0x10009FDC8, symSize: 0x8 }
  - { offset: 0x184879, size: 0x8, addend: 0x0, symName: _OUTLINED_FUNCTION_633, symObjAddr: 0xA56E8, symBinAddr: 0x10009FDD0, symSize: 0xC }
  - { offset: 0x184891, size: 0x8, addend: 0x0, symName: _OUTLINED_FUNCTION_634, symObjAddr: 0xA56F4, symBinAddr: 0x10009FDDC, symSize: 0x8 }
  - { offset: 0x1848A9, size: 0x8, addend: 0x0, symName: _OUTLINED_FUNCTION_635, symObjAddr: 0xA56FC, symBinAddr: 0x10009FDE4, symSize: 0x20 }
  - { offset: 0x1848C1, size: 0x8, addend: 0x0, symName: _OUTLINED_FUNCTION_642, symObjAddr: 0xA5754, symBinAddr: 0x10009FE3C, symSize: 0xC }
  - { offset: 0x1848D9, size: 0x8, addend: 0x0, symName: _OUTLINED_FUNCTION_646, symObjAddr: 0xA577C, symBinAddr: 0x10009FE64, symSize: 0x20 }
  - { offset: 0x1848F1, size: 0x8, addend: 0x0, symName: _OUTLINED_FUNCTION_648, symObjAddr: 0xA57A8, symBinAddr: 0x10009FE90, symSize: 0x20 }
  - { offset: 0x184909, size: 0x8, addend: 0x0, symName: _OUTLINED_FUNCTION_655, symObjAddr: 0xA5804, symBinAddr: 0x10009FEEC, symSize: 0x8 }
  - { offset: 0x184921, size: 0x8, addend: 0x0, symName: _OUTLINED_FUNCTION_658, symObjAddr: 0xA5820, symBinAddr: 0x10009FF08, symSize: 0x8 }
  - { offset: 0x184939, size: 0x8, addend: 0x0, symName: _OUTLINED_FUNCTION_666, symObjAddr: 0xA58D4, symBinAddr: 0x10009FFBC, symSize: 0xC }
  - { offset: 0x184951, size: 0x8, addend: 0x0, symName: _OUTLINED_FUNCTION_667, symObjAddr: 0xA58E0, symBinAddr: 0x10009FFC8, symSize: 0xC }
  - { offset: 0x184969, size: 0x8, addend: 0x0, symName: _OUTLINED_FUNCTION_668, symObjAddr: 0xA58EC, symBinAddr: 0x10009FFD4, symSize: 0xC }
  - { offset: 0x184981, size: 0x8, addend: 0x0, symName: _OUTLINED_FUNCTION_676, symObjAddr: 0xA5970, symBinAddr: 0x1000A0058, symSize: 0x30 }
  - { offset: 0x184999, size: 0x8, addend: 0x0, symName: _OUTLINED_FUNCTION_682, symObjAddr: 0xA59EC, symBinAddr: 0x1000A00D4, symSize: 0x8 }
  - { offset: 0x1849B1, size: 0x8, addend: 0x0, symName: _OUTLINED_FUNCTION_683, symObjAddr: 0xA59F4, symBinAddr: 0x1000A00DC, symSize: 0x8 }
  - { offset: 0x1849C9, size: 0x8, addend: 0x0, symName: _OUTLINED_FUNCTION_684, symObjAddr: 0xA59FC, symBinAddr: 0x1000A00E4, symSize: 0x1C }
  - { offset: 0x1849E1, size: 0x8, addend: 0x0, symName: _OUTLINED_FUNCTION_686, symObjAddr: 0xA5A34, symBinAddr: 0x1000A011C, symSize: 0x1C }
  - { offset: 0x1849F9, size: 0x8, addend: 0x0, symName: _OUTLINED_FUNCTION_687, symObjAddr: 0xA5A50, symBinAddr: 0x1000A0138, symSize: 0x1C }
  - { offset: 0x184A11, size: 0x8, addend: 0x0, symName: _OUTLINED_FUNCTION_689, symObjAddr: 0xA5A74, symBinAddr: 0x1000A015C, symSize: 0x1C }
  - { offset: 0x184A29, size: 0x8, addend: 0x0, symName: _OUTLINED_FUNCTION_690, symObjAddr: 0xA5A90, symBinAddr: 0x1000A0178, symSize: 0x8 }
  - { offset: 0x184A41, size: 0x8, addend: 0x0, symName: _OUTLINED_FUNCTION_696, symObjAddr: 0xA5AC0, symBinAddr: 0x1000A01A8, symSize: 0x1C }
  - { offset: 0x184A59, size: 0x8, addend: 0x0, symName: _OUTLINED_FUNCTION_698, symObjAddr: 0xA5AE4, symBinAddr: 0x1000A01CC, symSize: 0x8 }
  - { offset: 0x184A71, size: 0x8, addend: 0x0, symName: _OUTLINED_FUNCTION_699, symObjAddr: 0xA5AEC, symBinAddr: 0x1000A01D4, symSize: 0x1C }
  - { offset: 0x184A89, size: 0x8, addend: 0x0, symName: _OUTLINED_FUNCTION_704, symObjAddr: 0xA5B3C, symBinAddr: 0x1000A0224, symSize: 0x8 }
  - { offset: 0x184AA1, size: 0x8, addend: 0x0, symName: _OUTLINED_FUNCTION_707, symObjAddr: 0xA5B68, symBinAddr: 0x1000A0250, symSize: 0x1C }
  - { offset: 0x184AB9, size: 0x8, addend: 0x0, symName: _OUTLINED_FUNCTION_708, symObjAddr: 0xA5B84, symBinAddr: 0x1000A026C, symSize: 0x1C }
  - { offset: 0x184AD1, size: 0x8, addend: 0x0, symName: _OUTLINED_FUNCTION_711, symObjAddr: 0xA5BB0, symBinAddr: 0x1000A0298, symSize: 0x1C }
  - { offset: 0x184AE9, size: 0x8, addend: 0x0, symName: _OUTLINED_FUNCTION_712, symObjAddr: 0xA5BCC, symBinAddr: 0x1000A02B4, symSize: 0x1C }
  - { offset: 0x184B01, size: 0x8, addend: 0x0, symName: _OUTLINED_FUNCTION_713, symObjAddr: 0xA5BE8, symBinAddr: 0x1000A02D0, symSize: 0x1C }
  - { offset: 0x184B19, size: 0x8, addend: 0x0, symName: _OUTLINED_FUNCTION_732, symObjAddr: 0xA5D2C, symBinAddr: 0x1000A0414, symSize: 0xC }
  - { offset: 0x184B31, size: 0x8, addend: 0x0, symName: _OUTLINED_FUNCTION_734, symObjAddr: 0xA5D44, symBinAddr: 0x1000A042C, symSize: 0xC }
  - { offset: 0x184B49, size: 0x8, addend: 0x0, symName: _OUTLINED_FUNCTION_747, symObjAddr: 0xA5E14, symBinAddr: 0x1000A04FC, symSize: 0x18 }
  - { offset: 0x184B61, size: 0x8, addend: 0x0, symName: _OUTLINED_FUNCTION_763, symObjAddr: 0xA5F10, symBinAddr: 0x1000A05F8, symSize: 0xC }
  - { offset: 0x184B79, size: 0x8, addend: 0x0, symName: _OUTLINED_FUNCTION_765, symObjAddr: 0xA5F28, symBinAddr: 0x1000A0610, symSize: 0x18 }
  - { offset: 0x184B91, size: 0x8, addend: 0x0, symName: _OUTLINED_FUNCTION_778, symObjAddr: 0xA5FE0, symBinAddr: 0x1000A06C8, symSize: 0x28 }
  - { offset: 0x184BA9, size: 0x8, addend: 0x0, symName: _OUTLINED_FUNCTION_780, symObjAddr: 0xA6018, symBinAddr: 0x1000A0700, symSize: 0xC }
  - { offset: 0x184BC1, size: 0x8, addend: 0x0, symName: _OUTLINED_FUNCTION_782, symObjAddr: 0xA602C, symBinAddr: 0x1000A0714, symSize: 0xC }
  - { offset: 0x184BD9, size: 0x8, addend: 0x0, symName: _OUTLINED_FUNCTION_783, symObjAddr: 0xA6038, symBinAddr: 0x1000A0720, symSize: 0xC }
  - { offset: 0x184BF1, size: 0x8, addend: 0x0, symName: _OUTLINED_FUNCTION_784, symObjAddr: 0xA6044, symBinAddr: 0x1000A072C, symSize: 0xC }
  - { offset: 0x184C09, size: 0x8, addend: 0x0, symName: _OUTLINED_FUNCTION_785, symObjAddr: 0xA6050, symBinAddr: 0x1000A0738, symSize: 0xC }
  - { offset: 0x184C21, size: 0x8, addend: 0x0, symName: _OUTLINED_FUNCTION_786, symObjAddr: 0xA605C, symBinAddr: 0x1000A0744, symSize: 0x14 }
  - { offset: 0x184C39, size: 0x8, addend: 0x0, symName: _OUTLINED_FUNCTION_787, symObjAddr: 0xA6070, symBinAddr: 0x1000A0758, symSize: 0x14 }
  - { offset: 0x184C51, size: 0x8, addend: 0x0, symName: _OUTLINED_FUNCTION_795, symObjAddr: 0xA6104, symBinAddr: 0x1000A07EC, symSize: 0xC }
  - { offset: 0x184C69, size: 0x8, addend: 0x0, symName: _OUTLINED_FUNCTION_796, symObjAddr: 0xA6110, symBinAddr: 0x1000A07F8, symSize: 0x10 }
  - { offset: 0x184C81, size: 0x8, addend: 0x0, symName: _OUTLINED_FUNCTION_797, symObjAddr: 0xA6120, symBinAddr: 0x1000A0808, symSize: 0x8 }
  - { offset: 0x184C99, size: 0x8, addend: 0x0, symName: _OUTLINED_FUNCTION_799, symObjAddr: 0xA6134, symBinAddr: 0x1000A081C, symSize: 0x10 }
  - { offset: 0x184CB1, size: 0x8, addend: 0x0, symName: _OUTLINED_FUNCTION_804, symObjAddr: 0xA6184, symBinAddr: 0x1000A086C, symSize: 0xC }
  - { offset: 0x184CC9, size: 0x8, addend: 0x0, symName: _OUTLINED_FUNCTION_805, symObjAddr: 0xA6190, symBinAddr: 0x1000A0878, symSize: 0xC }
  - { offset: 0x184CE1, size: 0x8, addend: 0x0, symName: _OUTLINED_FUNCTION_809, symObjAddr: 0xA61D4, symBinAddr: 0x1000A08BC, symSize: 0xC }
  - { offset: 0x184CF9, size: 0x8, addend: 0x0, symName: _OUTLINED_FUNCTION_810, symObjAddr: 0xA61E0, symBinAddr: 0x1000A08C8, symSize: 0x18 }
  - { offset: 0x184D11, size: 0x8, addend: 0x0, symName: _OUTLINED_FUNCTION_816, symObjAddr: 0xA623C, symBinAddr: 0x1000A0924, symSize: 0x10 }
  - { offset: 0x184D29, size: 0x8, addend: 0x0, symName: _OUTLINED_FUNCTION_817, symObjAddr: 0xA624C, symBinAddr: 0x1000A0934, symSize: 0x10 }
  - { offset: 0x184D41, size: 0x8, addend: 0x0, symName: _OUTLINED_FUNCTION_818, symObjAddr: 0xA625C, symBinAddr: 0x1000A0944, symSize: 0x14 }
  - { offset: 0x184D59, size: 0x8, addend: 0x0, symName: _OUTLINED_FUNCTION_819, symObjAddr: 0xA6270, symBinAddr: 0x1000A0958, symSize: 0xC }
  - { offset: 0x184D71, size: 0x8, addend: 0x0, symName: _OUTLINED_FUNCTION_820, symObjAddr: 0xA627C, symBinAddr: 0x1000A0964, symSize: 0xC }
  - { offset: 0x184D89, size: 0x8, addend: 0x0, symName: _OUTLINED_FUNCTION_821, symObjAddr: 0xA6288, symBinAddr: 0x1000A0970, symSize: 0xC }
  - { offset: 0x184DA1, size: 0x8, addend: 0x0, symName: _OUTLINED_FUNCTION_822, symObjAddr: 0xA6294, symBinAddr: 0x1000A097C, symSize: 0x14 }
  - { offset: 0x184DB9, size: 0x8, addend: 0x0, symName: _OUTLINED_FUNCTION_825, symObjAddr: 0xA62C8, symBinAddr: 0x1000A09B0, symSize: 0xC }
  - { offset: 0x184DD1, size: 0x8, addend: 0x0, symName: _OUTLINED_FUNCTION_826, symObjAddr: 0xA62D4, symBinAddr: 0x1000A09BC, symSize: 0xC }
  - { offset: 0x184DE9, size: 0x8, addend: 0x0, symName: _OUTLINED_FUNCTION_827, symObjAddr: 0xA62E0, symBinAddr: 0x1000A09C8, symSize: 0xC }
  - { offset: 0x184E01, size: 0x8, addend: 0x0, symName: _OUTLINED_FUNCTION_828, symObjAddr: 0xA62EC, symBinAddr: 0x1000A09D4, symSize: 0xC }
  - { offset: 0x184E19, size: 0x8, addend: 0x0, symName: _OUTLINED_FUNCTION_837, symObjAddr: 0xA638C, symBinAddr: 0x1000A0A74, symSize: 0xC }
  - { offset: 0x184E31, size: 0x8, addend: 0x0, symName: _OUTLINED_FUNCTION_839, symObjAddr: 0xA63A4, symBinAddr: 0x1000A0A8C, symSize: 0x14 }
  - { offset: 0x184E49, size: 0x8, addend: 0x0, symName: _OUTLINED_FUNCTION_840, symObjAddr: 0xA63B8, symBinAddr: 0x1000A0AA0, symSize: 0xC }
  - { offset: 0x184E61, size: 0x8, addend: 0x0, symName: _OUTLINED_FUNCTION_841, symObjAddr: 0xA63C4, symBinAddr: 0x1000A0AAC, symSize: 0xC }
  - { offset: 0x184E79, size: 0x8, addend: 0x0, symName: _OUTLINED_FUNCTION_842, symObjAddr: 0xA63D0, symBinAddr: 0x1000A0AB8, symSize: 0xC }
  - { offset: 0x184E91, size: 0x8, addend: 0x0, symName: _OUTLINED_FUNCTION_849, symObjAddr: 0xA6434, symBinAddr: 0x1000A0B1C, symSize: 0x28 }
  - { offset: 0x184EA9, size: 0x8, addend: 0x0, symName: _OUTLINED_FUNCTION_850, symObjAddr: 0xA645C, symBinAddr: 0x1000A0B44, symSize: 0xC }
  - { offset: 0x184EC1, size: 0x8, addend: 0x0, symName: _OUTLINED_FUNCTION_851, symObjAddr: 0xA6468, symBinAddr: 0x1000A0B50, symSize: 0xC }
  - { offset: 0x184ED9, size: 0x8, addend: 0x0, symName: _OUTLINED_FUNCTION_853, symObjAddr: 0xA6480, symBinAddr: 0x1000A0B68, symSize: 0x8 }
  - { offset: 0x184EF1, size: 0x8, addend: 0x0, symName: _OUTLINED_FUNCTION_856, symObjAddr: 0xA649C, symBinAddr: 0x1000A0B84, symSize: 0xC }
  - { offset: 0x184F09, size: 0x8, addend: 0x0, symName: _OUTLINED_FUNCTION_859, symObjAddr: 0xA64CC, symBinAddr: 0x1000A0BB4, symSize: 0x14 }
  - { offset: 0x184F21, size: 0x8, addend: 0x0, symName: _OUTLINED_FUNCTION_862, symObjAddr: 0xA64F8, symBinAddr: 0x1000A0BE0, symSize: 0x1C }
  - { offset: 0x184F39, size: 0x8, addend: 0x0, symName: _OUTLINED_FUNCTION_866, symObjAddr: 0xA653C, symBinAddr: 0x1000A0C24, symSize: 0x28 }
  - { offset: 0x184F51, size: 0x8, addend: 0x0, symName: _OUTLINED_FUNCTION_867, symObjAddr: 0xA6564, symBinAddr: 0x1000A0C4C, symSize: 0x18 }
  - { offset: 0x184F69, size: 0x8, addend: 0x0, symName: _OUTLINED_FUNCTION_873, symObjAddr: 0xA65BC, symBinAddr: 0x1000A0CA4, symSize: 0x1C }
  - { offset: 0x184F81, size: 0x8, addend: 0x0, symName: _OUTLINED_FUNCTION_876, symObjAddr: 0xA6600, symBinAddr: 0x1000A0CE8, symSize: 0xC }
  - { offset: 0x184F99, size: 0x8, addend: 0x0, symName: _OUTLINED_FUNCTION_880, symObjAddr: 0xA6628, symBinAddr: 0x1000A0D10, symSize: 0xC }
  - { offset: 0x184FB1, size: 0x8, addend: 0x0, symName: _OUTLINED_FUNCTION_884, symObjAddr: 0xA6654, symBinAddr: 0x1000A0D3C, symSize: 0x18 }
  - { offset: 0x184FC9, size: 0x8, addend: 0x0, symName: _OUTLINED_FUNCTION_892, symObjAddr: 0xA66C4, symBinAddr: 0x1000A0DAC, symSize: 0xC }
  - { offset: 0x184FE1, size: 0x8, addend: 0x0, symName: _OUTLINED_FUNCTION_893, symObjAddr: 0xA66D0, symBinAddr: 0x1000A0DB8, symSize: 0xC }
  - { offset: 0x184FF9, size: 0x8, addend: 0x0, symName: _OUTLINED_FUNCTION_895, symObjAddr: 0xA66E4, symBinAddr: 0x1000A0DCC, symSize: 0xC }
  - { offset: 0x185011, size: 0x8, addend: 0x0, symName: _OUTLINED_FUNCTION_916, symObjAddr: 0xA67E8, symBinAddr: 0x1000A0ED0, symSize: 0x14 }
  - { offset: 0x185029, size: 0x8, addend: 0x0, symName: _OUTLINED_FUNCTION_917, symObjAddr: 0xA67FC, symBinAddr: 0x1000A0EE4, symSize: 0x14 }
  - { offset: 0x185041, size: 0x8, addend: 0x0, symName: _OUTLINED_FUNCTION_921, symObjAddr: 0xA6830, symBinAddr: 0x1000A0F18, symSize: 0x1C }
  - { offset: 0x185059, size: 0x8, addend: 0x0, symName: _OUTLINED_FUNCTION_925, symObjAddr: 0xA6888, symBinAddr: 0x1000A0F70, symSize: 0xC }
  - { offset: 0x185071, size: 0x8, addend: 0x0, symName: _OUTLINED_FUNCTION_927, symObjAddr: 0xA68B8, symBinAddr: 0x1000A0FA0, symSize: 0xC }
  - { offset: 0x185089, size: 0x8, addend: 0x0, symName: _OUTLINED_FUNCTION_928, symObjAddr: 0xA68C4, symBinAddr: 0x1000A0FAC, symSize: 0xC }
  - { offset: 0x1850A1, size: 0x8, addend: 0x0, symName: _OUTLINED_FUNCTION_934, symObjAddr: 0xA6924, symBinAddr: 0x1000A100C, symSize: 0xC }
  - { offset: 0x1850B9, size: 0x8, addend: 0x0, symName: _OUTLINED_FUNCTION_935, symObjAddr: 0xA6930, symBinAddr: 0x1000A1018, symSize: 0xC }
  - { offset: 0x1850D1, size: 0x8, addend: 0x0, symName: _OUTLINED_FUNCTION_937, symObjAddr: 0xA6948, symBinAddr: 0x1000A1030, symSize: 0xC }
  - { offset: 0x1850E9, size: 0x8, addend: 0x0, symName: _OUTLINED_FUNCTION_950, symObjAddr: 0xA6A2C, symBinAddr: 0x1000A1114, symSize: 0xC }
  - { offset: 0x185101, size: 0x8, addend: 0x0, symName: _OUTLINED_FUNCTION_953, symObjAddr: 0xA6A68, symBinAddr: 0x1000A1150, symSize: 0x24 }
  - { offset: 0x185119, size: 0x8, addend: 0x0, symName: _OUTLINED_FUNCTION_960, symObjAddr: 0xA6AE0, symBinAddr: 0x1000A11C8, symSize: 0x14 }
  - { offset: 0x185131, size: 0x8, addend: 0x0, symName: _OUTLINED_FUNCTION_962, symObjAddr: 0xA6B08, symBinAddr: 0x1000A11F0, symSize: 0x14 }
  - { offset: 0x185149, size: 0x8, addend: 0x0, symName: _OUTLINED_FUNCTION_963, symObjAddr: 0xA6B1C, symBinAddr: 0x1000A1204, symSize: 0x8 }
  - { offset: 0x185161, size: 0x8, addend: 0x0, symName: _OUTLINED_FUNCTION_964, symObjAddr: 0xA6B24, symBinAddr: 0x1000A120C, symSize: 0x14 }
  - { offset: 0x185179, size: 0x8, addend: 0x0, symName: _OUTLINED_FUNCTION_967, symObjAddr: 0xA6B48, symBinAddr: 0x1000A1230, symSize: 0x8 }
  - { offset: 0x185191, size: 0x8, addend: 0x0, symName: _OUTLINED_FUNCTION_968, symObjAddr: 0xA6B50, symBinAddr: 0x1000A1238, symSize: 0x14 }
  - { offset: 0x1851A9, size: 0x8, addend: 0x0, symName: _OUTLINED_FUNCTION_969, symObjAddr: 0xA6B64, symBinAddr: 0x1000A124C, symSize: 0x14 }
  - { offset: 0x1851C1, size: 0x8, addend: 0x0, symName: _OUTLINED_FUNCTION_970, symObjAddr: 0xA6B78, symBinAddr: 0x1000A1260, symSize: 0x14 }
  - { offset: 0x1851D9, size: 0x8, addend: 0x0, symName: _OUTLINED_FUNCTION_972, symObjAddr: 0xA6B94, symBinAddr: 0x1000A127C, symSize: 0x8 }
  - { offset: 0x1851F1, size: 0x8, addend: 0x0, symName: _OUTLINED_FUNCTION_973, symObjAddr: 0xA6B9C, symBinAddr: 0x1000A1284, symSize: 0x14 }
  - { offset: 0x185209, size: 0x8, addend: 0x0, symName: _OUTLINED_FUNCTION_976, symObjAddr: 0xA6BC0, symBinAddr: 0x1000A12A8, symSize: 0x14 }
  - { offset: 0x185221, size: 0x8, addend: 0x0, symName: _OUTLINED_FUNCTION_977, symObjAddr: 0xA6BD4, symBinAddr: 0x1000A12BC, symSize: 0x14 }
  - { offset: 0x185239, size: 0x8, addend: 0x0, symName: _OUTLINED_FUNCTION_979, symObjAddr: 0xA6BF0, symBinAddr: 0x1000A12D8, symSize: 0x14 }
  - { offset: 0x185251, size: 0x8, addend: 0x0, symName: _OUTLINED_FUNCTION_980, symObjAddr: 0xA6C04, symBinAddr: 0x1000A12EC, symSize: 0x14 }
  - { offset: 0x185269, size: 0x8, addend: 0x0, symName: _OUTLINED_FUNCTION_981, symObjAddr: 0xA6C18, symBinAddr: 0x1000A1300, symSize: 0x14 }
  - { offset: 0x185281, size: 0x8, addend: 0x0, symName: _OUTLINED_FUNCTION_986, symObjAddr: 0xA6C64, symBinAddr: 0x1000A134C, symSize: 0x8 }
  - { offset: 0x185299, size: 0x8, addend: 0x0, symName: _OUTLINED_FUNCTION_988, symObjAddr: 0xA6C80, symBinAddr: 0x1000A1368, symSize: 0x14 }
  - { offset: 0x1852B1, size: 0x8, addend: 0x0, symName: _OUTLINED_FUNCTION_992, symObjAddr: 0xA6CC4, symBinAddr: 0x1000A13AC, symSize: 0x8 }
  - { offset: 0x1852C9, size: 0x8, addend: 0x0, symName: _OUTLINED_FUNCTION_998, symObjAddr: 0xA6D18, symBinAddr: 0x1000A1400, symSize: 0x14 }
  - { offset: 0x1852E1, size: 0x8, addend: 0x0, symName: _OUTLINED_FUNCTION_1001, symObjAddr: 0xA6D3C, symBinAddr: 0x1000A1424, symSize: 0x8 }
  - { offset: 0x1852F9, size: 0x8, addend: 0x0, symName: _OUTLINED_FUNCTION_1009, symObjAddr: 0xA6DA4, symBinAddr: 0x1000A148C, symSize: 0x14 }
  - { offset: 0x185311, size: 0x8, addend: 0x0, symName: _OUTLINED_FUNCTION_1011, symObjAddr: 0xA6DCC, symBinAddr: 0x1000A14B4, symSize: 0x8 }
  - { offset: 0x185329, size: 0x8, addend: 0x0, symName: _OUTLINED_FUNCTION_1014, symObjAddr: 0xA6DE4, symBinAddr: 0x1000A14CC, symSize: 0x14 }
  - { offset: 0x185341, size: 0x8, addend: 0x0, symName: _OUTLINED_FUNCTION_1018, symObjAddr: 0xA6E28, symBinAddr: 0x1000A1510, symSize: 0x8 }
  - { offset: 0x185359, size: 0x8, addend: 0x0, symName: _OUTLINED_FUNCTION_1025, symObjAddr: 0xA6E6C, symBinAddr: 0x1000A1554, symSize: 0x8 }
  - { offset: 0x185371, size: 0x8, addend: 0x0, symName: _OUTLINED_FUNCTION_1032, symObjAddr: 0xA6F00, symBinAddr: 0x1000A15E8, symSize: 0xC }
  - { offset: 0x185389, size: 0x8, addend: 0x0, symName: _OUTLINED_FUNCTION_1033, symObjAddr: 0xA6F0C, symBinAddr: 0x1000A15F4, symSize: 0xC }
  - { offset: 0x1853A1, size: 0x8, addend: 0x0, symName: _OUTLINED_FUNCTION_1034, symObjAddr: 0xA6F18, symBinAddr: 0x1000A1600, symSize: 0x20 }
  - { offset: 0x1853B9, size: 0x8, addend: 0x0, symName: _OUTLINED_FUNCTION_1036, symObjAddr: 0xA6F58, symBinAddr: 0x1000A1640, symSize: 0xC }
  - { offset: 0x1853D1, size: 0x8, addend: 0x0, symName: _OUTLINED_FUNCTION_1037, symObjAddr: 0xA6F64, symBinAddr: 0x1000A164C, symSize: 0xC }
  - { offset: 0x1853E9, size: 0x8, addend: 0x0, symName: _OUTLINED_FUNCTION_1042, symObjAddr: 0xA6FA0, symBinAddr: 0x1000A1688, symSize: 0x20 }
  - { offset: 0x185401, size: 0x8, addend: 0x0, symName: _OUTLINED_FUNCTION_1048, symObjAddr: 0xA6FFC, symBinAddr: 0x1000A16E4, symSize: 0xC }
  - { offset: 0x185419, size: 0x8, addend: 0x0, symName: _OUTLINED_FUNCTION_1061, symObjAddr: 0xA70D4, symBinAddr: 0x1000A17BC, symSize: 0xC }
  - { offset: 0x185431, size: 0x8, addend: 0x0, symName: _OUTLINED_FUNCTION_1062, symObjAddr: 0xA70E0, symBinAddr: 0x1000A17C8, symSize: 0xC }
  - { offset: 0x185449, size: 0x8, addend: 0x0, symName: _OUTLINED_FUNCTION_1067, symObjAddr: 0xA7130, symBinAddr: 0x1000A1818, symSize: 0x20 }
  - { offset: 0x185461, size: 0x8, addend: 0x0, symName: _OUTLINED_FUNCTION_1073, symObjAddr: 0xA71E4, symBinAddr: 0x1000A18CC, symSize: 0x1C }
  - { offset: 0x185479, size: 0x8, addend: 0x0, symName: _OUTLINED_FUNCTION_1074, symObjAddr: 0xA7200, symBinAddr: 0x1000A18E8, symSize: 0x1C }
  - { offset: 0x185491, size: 0x8, addend: 0x0, symName: _OUTLINED_FUNCTION_1076, symObjAddr: 0xA7234, symBinAddr: 0x1000A191C, symSize: 0x10 }
  - { offset: 0x1854A9, size: 0x8, addend: 0x0, symName: _OUTLINED_FUNCTION_1087, symObjAddr: 0xA72C4, symBinAddr: 0x1000A19AC, symSize: 0x10 }
  - { offset: 0x1854C1, size: 0x8, addend: 0x0, symName: _OUTLINED_FUNCTION_1089, symObjAddr: 0xA72E4, symBinAddr: 0x1000A19CC, symSize: 0x8 }
  - { offset: 0x1854D9, size: 0x8, addend: 0x0, symName: _OUTLINED_FUNCTION_1093, symObjAddr: 0xA7314, symBinAddr: 0x1000A19FC, symSize: 0x8 }
  - { offset: 0x1854F1, size: 0x8, addend: 0x0, symName: _OUTLINED_FUNCTION_1102, symObjAddr: 0xA7390, symBinAddr: 0x1000A1A78, symSize: 0xC }
  - { offset: 0x185509, size: 0x8, addend: 0x0, symName: _OUTLINED_FUNCTION_1106, symObjAddr: 0xA73B8, symBinAddr: 0x1000A1AA0, symSize: 0x1C }
  - { offset: 0x185521, size: 0x8, addend: 0x0, symName: _OUTLINED_FUNCTION_1107, symObjAddr: 0xA73D4, symBinAddr: 0x1000A1ABC, symSize: 0x1C }
  - { offset: 0x185539, size: 0x8, addend: 0x0, symName: _OUTLINED_FUNCTION_1113, symObjAddr: 0xA7438, symBinAddr: 0x1000A1B20, symSize: 0x8 }
  - { offset: 0x185551, size: 0x8, addend: 0x0, symName: _OUTLINED_FUNCTION_1120, symObjAddr: 0xA7490, symBinAddr: 0x1000A1B78, symSize: 0xC }
  - { offset: 0x185569, size: 0x8, addend: 0x0, symName: _OUTLINED_FUNCTION_1127, symObjAddr: 0xA74E8, symBinAddr: 0x1000A1BD0, symSize: 0x1C }
  - { offset: 0x185581, size: 0x8, addend: 0x0, symName: _OUTLINED_FUNCTION_1137, symObjAddr: 0xA7598, symBinAddr: 0x1000A1C80, symSize: 0x10 }
  - { offset: 0x185599, size: 0x8, addend: 0x0, symName: _OUTLINED_FUNCTION_1143, symObjAddr: 0xA75E8, symBinAddr: 0x1000A1CD0, symSize: 0x1C }
  - { offset: 0x1855B1, size: 0x8, addend: 0x0, symName: _OUTLINED_FUNCTION_1154, symObjAddr: 0xA768C, symBinAddr: 0x1000A1D74, symSize: 0xC }
  - { offset: 0x1855C9, size: 0x8, addend: 0x0, symName: _OUTLINED_FUNCTION_1166, symObjAddr: 0xA7720, symBinAddr: 0x1000A1E08, symSize: 0xC }
  - { offset: 0x1855E1, size: 0x8, addend: 0x0, symName: _OUTLINED_FUNCTION_1170, symObjAddr: 0xA7748, symBinAddr: 0x1000A1E30, symSize: 0x10 }
  - { offset: 0x1855F9, size: 0x8, addend: 0x0, symName: _OUTLINED_FUNCTION_1173, symObjAddr: 0xA777C, symBinAddr: 0x1000A1E64, symSize: 0x10 }
  - { offset: 0x185611, size: 0x8, addend: 0x0, symName: _OUTLINED_FUNCTION_1191, symObjAddr: 0xA7864, symBinAddr: 0x1000A1F4C, symSize: 0x8 }
  - { offset: 0x185629, size: 0x8, addend: 0x0, symName: _OUTLINED_FUNCTION_1195, symObjAddr: 0xA789C, symBinAddr: 0x1000A1F84, symSize: 0x1C }
  - { offset: 0x185641, size: 0x8, addend: 0x0, symName: _OUTLINED_FUNCTION_1197, symObjAddr: 0xA78C4, symBinAddr: 0x1000A1FAC, symSize: 0xC }
  - { offset: 0x185659, size: 0x8, addend: 0x0, symName: _OUTLINED_FUNCTION_1199, symObjAddr: 0xA78E0, symBinAddr: 0x1000A1FC8, symSize: 0xC }
  - { offset: 0x185671, size: 0x8, addend: 0x0, symName: _OUTLINED_FUNCTION_1203, symObjAddr: 0xA790C, symBinAddr: 0x1000A1FF4, symSize: 0x10 }
  - { offset: 0x185689, size: 0x8, addend: 0x0, symName: _OUTLINED_FUNCTION_1218, symObjAddr: 0xA79BC, symBinAddr: 0x1000A20A4, symSize: 0x10 }
  - { offset: 0x1856A1, size: 0x8, addend: 0x0, symName: _OUTLINED_FUNCTION_1221, symObjAddr: 0xA79DC, symBinAddr: 0x1000A20C4, symSize: 0x8 }
  - { offset: 0x1856B9, size: 0x8, addend: 0x0, symName: _OUTLINED_FUNCTION_1230, symObjAddr: 0xA7A38, symBinAddr: 0x1000A2120, symSize: 0x10 }
  - { offset: 0x1856D1, size: 0x8, addend: 0x0, symName: _OUTLINED_FUNCTION_1247, symObjAddr: 0xA7B40, symBinAddr: 0x1000A2228, symSize: 0x8 }
  - { offset: 0x1856E9, size: 0x8, addend: 0x0, symName: _OUTLINED_FUNCTION_1256, symObjAddr: 0xA7BB0, symBinAddr: 0x1000A2298, symSize: 0x10 }
  - { offset: 0x185701, size: 0x8, addend: 0x0, symName: _OUTLINED_FUNCTION_1266, symObjAddr: 0xA7C18, symBinAddr: 0x1000A2300, symSize: 0x8 }
  - { offset: 0x185719, size: 0x8, addend: 0x0, symName: _OUTLINED_FUNCTION_1275, symObjAddr: 0xA7C90, symBinAddr: 0x1000A2378, symSize: 0xC }
  - { offset: 0x185731, size: 0x8, addend: 0x0, symName: _OUTLINED_FUNCTION_1279, symObjAddr: 0xA7CD0, symBinAddr: 0x1000A23B8, symSize: 0x8 }
  - { offset: 0x185749, size: 0x8, addend: 0x0, symName: _OUTLINED_FUNCTION_1287, symObjAddr: 0xA7D1C, symBinAddr: 0x1000A2404, symSize: 0xC }
  - { offset: 0x185761, size: 0x8, addend: 0x0, symName: _OUTLINED_FUNCTION_1291, symObjAddr: 0xA7D4C, symBinAddr: 0x1000A2434, symSize: 0xC }
  - { offset: 0x185779, size: 0x8, addend: 0x0, symName: _OUTLINED_FUNCTION_1301, symObjAddr: 0xA7DE8, symBinAddr: 0x1000A24D0, symSize: 0x10 }
  - { offset: 0x185791, size: 0x8, addend: 0x0, symName: _OUTLINED_FUNCTION_1312, symObjAddr: 0xA7E94, symBinAddr: 0x1000A257C, symSize: 0x10 }
  - { offset: 0x1857A9, size: 0x8, addend: 0x0, symName: _OUTLINED_FUNCTION_1313, symObjAddr: 0xA7EA4, symBinAddr: 0x1000A258C, symSize: 0x10 }
  - { offset: 0x1857C1, size: 0x8, addend: 0x0, symName: _OUTLINED_FUNCTION_1314, symObjAddr: 0xA7EB4, symBinAddr: 0x1000A259C, symSize: 0xC }
  - { offset: 0x1857D9, size: 0x8, addend: 0x0, symName: _OUTLINED_FUNCTION_1315, symObjAddr: 0xA7EC0, symBinAddr: 0x1000A25A8, symSize: 0x10 }
  - { offset: 0x1857F1, size: 0x8, addend: 0x0, symName: _OUTLINED_FUNCTION_1323, symObjAddr: 0xA7F40, symBinAddr: 0x1000A2628, symSize: 0x10 }
  - { offset: 0x185809, size: 0x8, addend: 0x0, symName: _OUTLINED_FUNCTION_1324, symObjAddr: 0xA7F50, symBinAddr: 0x1000A2638, symSize: 0x10 }
  - { offset: 0x185821, size: 0x8, addend: 0x0, symName: _OUTLINED_FUNCTION_1331, symObjAddr: 0xA7FC4, symBinAddr: 0x1000A26AC, symSize: 0x10 }
  - { offset: 0x185839, size: 0x8, addend: 0x0, symName: _OUTLINED_FUNCTION_1342, symObjAddr: 0xA8074, symBinAddr: 0x1000A275C, symSize: 0x10 }
  - { offset: 0x185851, size: 0x8, addend: 0x0, symName: _OUTLINED_FUNCTION_1344, symObjAddr: 0xA8094, symBinAddr: 0x1000A277C, symSize: 0x10 }
  - { offset: 0x185869, size: 0x8, addend: 0x0, symName: _OUTLINED_FUNCTION_1348, symObjAddr: 0xA80D8, symBinAddr: 0x1000A27C0, symSize: 0x1C }
  - { offset: 0x185881, size: 0x8, addend: 0x0, symName: _OUTLINED_FUNCTION_1350, symObjAddr: 0xA8110, symBinAddr: 0x1000A27F8, symSize: 0x1C }
  - { offset: 0x185899, size: 0x8, addend: 0x0, symName: _OUTLINED_FUNCTION_1357, symObjAddr: 0xA81BC, symBinAddr: 0x1000A28A4, symSize: 0xC }
  - { offset: 0x1858B1, size: 0x8, addend: 0x0, symName: _OUTLINED_FUNCTION_1362, symObjAddr: 0xA821C, symBinAddr: 0x1000A2904, symSize: 0x18 }
  - { offset: 0x1858C9, size: 0x8, addend: 0x0, symName: _OUTLINED_FUNCTION_1363, symObjAddr: 0xA8234, symBinAddr: 0x1000A291C, symSize: 0xC }
  - { offset: 0x1858E1, size: 0x8, addend: 0x0, symName: _OUTLINED_FUNCTION_1364, symObjAddr: 0xA8240, symBinAddr: 0x1000A2928, symSize: 0xC }
  - { offset: 0x1858F9, size: 0x8, addend: 0x0, symName: _OUTLINED_FUNCTION_1365, symObjAddr: 0xA824C, symBinAddr: 0x1000A2934, symSize: 0xC }
  - { offset: 0x185911, size: 0x8, addend: 0x0, symName: _OUTLINED_FUNCTION_1369, symObjAddr: 0xA8294, symBinAddr: 0x1000A297C, symSize: 0x18 }
  - { offset: 0x185929, size: 0x8, addend: 0x0, symName: _OUTLINED_FUNCTION_1382, symObjAddr: 0xA8360, symBinAddr: 0x1000A2A48, symSize: 0x18 }
  - { offset: 0x185941, size: 0x8, addend: 0x0, symName: _OUTLINED_FUNCTION_1386, symObjAddr: 0xA83A8, symBinAddr: 0x1000A2A90, symSize: 0xC }
  - { offset: 0x185959, size: 0x8, addend: 0x0, symName: _OUTLINED_FUNCTION_1387, symObjAddr: 0xA83B4, symBinAddr: 0x1000A2A9C, symSize: 0xC }
  - { offset: 0x185971, size: 0x8, addend: 0x0, symName: _OUTLINED_FUNCTION_1397, symObjAddr: 0xA8474, symBinAddr: 0x1000A2B5C, symSize: 0x18 }
  - { offset: 0x185989, size: 0x8, addend: 0x0, symName: _OUTLINED_FUNCTION_1402, symObjAddr: 0xA84BC, symBinAddr: 0x1000A2BA4, symSize: 0xC }
  - { offset: 0x1859A1, size: 0x8, addend: 0x0, symName: _OUTLINED_FUNCTION_1403, symObjAddr: 0xA84C8, symBinAddr: 0x1000A2BB0, symSize: 0x18 }
  - { offset: 0x1859B9, size: 0x8, addend: 0x0, symName: _OUTLINED_FUNCTION_1407, symObjAddr: 0xA8510, symBinAddr: 0x1000A2BF8, symSize: 0x18 }
  - { offset: 0x1859D1, size: 0x8, addend: 0x0, symName: _OUTLINED_FUNCTION_1417, symObjAddr: 0xA85D0, symBinAddr: 0x1000A2CB8, symSize: 0xC }
  - { offset: 0x1859E9, size: 0x8, addend: 0x0, symName: _OUTLINED_FUNCTION_1419, symObjAddr: 0xA85F4, symBinAddr: 0x1000A2CDC, symSize: 0x18 }
  - { offset: 0x185A01, size: 0x8, addend: 0x0, symName: _OUTLINED_FUNCTION_1425, symObjAddr: 0xA8678, symBinAddr: 0x1000A2D60, symSize: 0x18 }
  - { offset: 0x185A19, size: 0x8, addend: 0x0, symName: _OUTLINED_FUNCTION_1426, symObjAddr: 0xA8690, symBinAddr: 0x1000A2D78, symSize: 0x18 }
  - { offset: 0x185A31, size: 0x8, addend: 0x0, symName: _OUTLINED_FUNCTION_1430, symObjAddr: 0xA86D8, symBinAddr: 0x1000A2DC0, symSize: 0x18 }
  - { offset: 0x185A49, size: 0x8, addend: 0x0, symName: _OUTLINED_FUNCTION_1432, symObjAddr: 0xA86FC, symBinAddr: 0x1000A2DE4, symSize: 0xC }
  - { offset: 0x185A61, size: 0x8, addend: 0x0, symName: _OUTLINED_FUNCTION_1441, symObjAddr: 0xA8798, symBinAddr: 0x1000A2E80, symSize: 0xC }
  - { offset: 0x185A79, size: 0x8, addend: 0x0, symName: _OUTLINED_FUNCTION_1446, symObjAddr: 0xA87EC, symBinAddr: 0x1000A2ED4, symSize: 0xC }
  - { offset: 0x185A91, size: 0x8, addend: 0x0, symName: _OUTLINED_FUNCTION_1453, symObjAddr: 0xA8870, symBinAddr: 0x1000A2F58, symSize: 0xC }
  - { offset: 0x185AA9, size: 0x8, addend: 0x0, symName: _OUTLINED_FUNCTION_1459, symObjAddr: 0xA8900, symBinAddr: 0x1000A2FE8, symSize: 0x8 }
  - { offset: 0x185AC1, size: 0x8, addend: 0x0, symName: _OUTLINED_FUNCTION_1460, symObjAddr: 0xA8908, symBinAddr: 0x1000A2FF0, symSize: 0x8 }
  - { offset: 0x185AD9, size: 0x8, addend: 0x0, symName: _OUTLINED_FUNCTION_1464, symObjAddr: 0xA8934, symBinAddr: 0x1000A301C, symSize: 0xC }
  - { offset: 0x185AF1, size: 0x8, addend: 0x0, symName: _OUTLINED_FUNCTION_1466, symObjAddr: 0xA8948, symBinAddr: 0x1000A3030, symSize: 0x8 }
  - { offset: 0x185B09, size: 0x8, addend: 0x0, symName: _OUTLINED_FUNCTION_1476, symObjAddr: 0xA89A0, symBinAddr: 0x1000A3088, symSize: 0x8 }
  - { offset: 0x185B21, size: 0x8, addend: 0x0, symName: _OUTLINED_FUNCTION_1479, symObjAddr: 0xA89C0, symBinAddr: 0x1000A30A8, symSize: 0x8 }
  - { offset: 0x185B39, size: 0x8, addend: 0x0, symName: _OUTLINED_FUNCTION_1482, symObjAddr: 0xA89E0, symBinAddr: 0x1000A30C8, symSize: 0xC }
  - { offset: 0x185B51, size: 0x8, addend: 0x0, symName: _OUTLINED_FUNCTION_1483, symObjAddr: 0xA89EC, symBinAddr: 0x1000A30D4, symSize: 0xC }
  - { offset: 0x185B69, size: 0x8, addend: 0x0, symName: _OUTLINED_FUNCTION_1484, symObjAddr: 0xA89F8, symBinAddr: 0x1000A30E0, symSize: 0xC }
  - { offset: 0x185B81, size: 0x8, addend: 0x0, symName: _OUTLINED_FUNCTION_1486, symObjAddr: 0xA8A10, symBinAddr: 0x1000A30F8, symSize: 0x8 }
  - { offset: 0x185B99, size: 0x8, addend: 0x0, symName: _OUTLINED_FUNCTION_1491, symObjAddr: 0xA8A54, symBinAddr: 0x1000A313C, symSize: 0xC }
  - { offset: 0x185BB1, size: 0x8, addend: 0x0, symName: _OUTLINED_FUNCTION_1492, symObjAddr: 0xA8A60, symBinAddr: 0x1000A3148, symSize: 0x8 }
  - { offset: 0x185BC9, size: 0x8, addend: 0x0, symName: _OUTLINED_FUNCTION_1493, symObjAddr: 0xA8A68, symBinAddr: 0x1000A3150, symSize: 0x8 }
  - { offset: 0x185BE1, size: 0x8, addend: 0x0, symName: _OUTLINED_FUNCTION_1494, symObjAddr: 0xA8A70, symBinAddr: 0x1000A3158, symSize: 0x8 }
  - { offset: 0x185BF9, size: 0x8, addend: 0x0, symName: _OUTLINED_FUNCTION_1500, symObjAddr: 0xA8AA8, symBinAddr: 0x1000A3190, symSize: 0x8 }
  - { offset: 0x185C11, size: 0x8, addend: 0x0, symName: _OUTLINED_FUNCTION_1504, symObjAddr: 0xA8AD0, symBinAddr: 0x1000A31B8, symSize: 0xC }
  - { offset: 0x185C29, size: 0x8, addend: 0x0, symName: _OUTLINED_FUNCTION_1505, symObjAddr: 0xA8ADC, symBinAddr: 0x1000A31C4, symSize: 0xC }
  - { offset: 0x185C41, size: 0x8, addend: 0x0, symName: _OUTLINED_FUNCTION_1507, symObjAddr: 0xA8AF0, symBinAddr: 0x1000A31D8, symSize: 0xC }
  - { offset: 0x185C59, size: 0x8, addend: 0x0, symName: _OUTLINED_FUNCTION_1518, symObjAddr: 0xA8B60, symBinAddr: 0x1000A3248, symSize: 0x8 }
  - { offset: 0x185C71, size: 0x8, addend: 0x0, symName: _OUTLINED_FUNCTION_1519, symObjAddr: 0xA8B68, symBinAddr: 0x1000A3250, symSize: 0xC }
  - { offset: 0x185C89, size: 0x8, addend: 0x0, symName: _OUTLINED_FUNCTION_1525, symObjAddr: 0xA8BAC, symBinAddr: 0x1000A3294, symSize: 0xC }
  - { offset: 0x185CA1, size: 0x8, addend: 0x0, symName: _OUTLINED_FUNCTION_1528, symObjAddr: 0xA8BD0, symBinAddr: 0x1000A32B8, symSize: 0xC }
  - { offset: 0x185CB9, size: 0x8, addend: 0x0, symName: _OUTLINED_FUNCTION_1529, symObjAddr: 0xA8BDC, symBinAddr: 0x1000A32C4, symSize: 0xC }
  - { offset: 0x185CD1, size: 0x8, addend: 0x0, symName: _OUTLINED_FUNCTION_1538, symObjAddr: 0xA8C40, symBinAddr: 0x1000A3328, symSize: 0xC }
  - { offset: 0x185CE9, size: 0x8, addend: 0x0, symName: _OUTLINED_FUNCTION_1545, symObjAddr: 0xA8C88, symBinAddr: 0x1000A3370, symSize: 0x8 }
  - { offset: 0x185D01, size: 0x8, addend: 0x0, symName: _OUTLINED_FUNCTION_1547, symObjAddr: 0xA8C9C, symBinAddr: 0x1000A3384, symSize: 0x8 }
  - { offset: 0x185D19, size: 0x8, addend: 0x0, symName: _OUTLINED_FUNCTION_1553, symObjAddr: 0xA8CD8, symBinAddr: 0x1000A33C0, symSize: 0xC }
  - { offset: 0x185D31, size: 0x8, addend: 0x0, symName: _OUTLINED_FUNCTION_1554, symObjAddr: 0xA8CE4, symBinAddr: 0x1000A33CC, symSize: 0xC }
  - { offset: 0x185D49, size: 0x8, addend: 0x0, symName: _OUTLINED_FUNCTION_1570, symObjAddr: 0xA8D88, symBinAddr: 0x1000A3470, symSize: 0xC }
  - { offset: 0x185D61, size: 0x8, addend: 0x0, symName: _OUTLINED_FUNCTION_1576, symObjAddr: 0xA8DC0, symBinAddr: 0x1000A34A8, symSize: 0x8 }
  - { offset: 0x185D79, size: 0x8, addend: 0x0, symName: _OUTLINED_FUNCTION_1580, symObjAddr: 0xA8DE4, symBinAddr: 0x1000A34CC, symSize: 0xC }
  - { offset: 0x185D91, size: 0x8, addend: 0x0, symName: _OUTLINED_FUNCTION_1590, symObjAddr: 0xA8E40, symBinAddr: 0x1000A3528, symSize: 0x8 }
  - { offset: 0x185DA9, size: 0x8, addend: 0x0, symName: _OUTLINED_FUNCTION_1593, symObjAddr: 0xA8E60, symBinAddr: 0x1000A3548, symSize: 0xC }
  - { offset: 0x185DC1, size: 0x8, addend: 0x0, symName: _OUTLINED_FUNCTION_1598, symObjAddr: 0xA8E90, symBinAddr: 0x1000A3578, symSize: 0x8 }
  - { offset: 0x185DD9, size: 0x8, addend: 0x0, symName: _OUTLINED_FUNCTION_1599, symObjAddr: 0xA8E98, symBinAddr: 0x1000A3580, symSize: 0xC }
  - { offset: 0x185DF1, size: 0x8, addend: 0x0, symName: _OUTLINED_FUNCTION_1600, symObjAddr: 0xA8EA4, symBinAddr: 0x1000A358C, symSize: 0xC }
  - { offset: 0x185E09, size: 0x8, addend: 0x0, symName: _OUTLINED_FUNCTION_1602, symObjAddr: 0xA8EBC, symBinAddr: 0x1000A35A4, symSize: 0xC }
  - { offset: 0x185E21, size: 0x8, addend: 0x0, symName: _OUTLINED_FUNCTION_1609, symObjAddr: 0xA8F10, symBinAddr: 0x1000A35F8, symSize: 0xC }
  - { offset: 0x185E39, size: 0x8, addend: 0x0, symName: _OUTLINED_FUNCTION_1610, symObjAddr: 0xA8F1C, symBinAddr: 0x1000A3604, symSize: 0xC }
  - { offset: 0x185E51, size: 0x8, addend: 0x0, symName: _OUTLINED_FUNCTION_1611, symObjAddr: 0xA8F28, symBinAddr: 0x1000A3610, symSize: 0xC }
  - { offset: 0x185E69, size: 0x8, addend: 0x0, symName: _OUTLINED_FUNCTION_1618, symObjAddr: 0xA8F74, symBinAddr: 0x1000A365C, symSize: 0xC }
  - { offset: 0x185E81, size: 0x8, addend: 0x0, symName: _OUTLINED_FUNCTION_1620, symObjAddr: 0xA8F8C, symBinAddr: 0x1000A3674, symSize: 0xC }
  - { offset: 0x185E99, size: 0x8, addend: 0x0, symName: _OUTLINED_FUNCTION_1625, symObjAddr: 0xA8FBC, symBinAddr: 0x1000A36A4, symSize: 0x8 }
  - { offset: 0x185EB1, size: 0x8, addend: 0x0, symName: _OUTLINED_FUNCTION_1632, symObjAddr: 0xA9004, symBinAddr: 0x1000A36EC, symSize: 0xC }
  - { offset: 0x185EC9, size: 0x8, addend: 0x0, symName: _OUTLINED_FUNCTION_1686, symObjAddr: 0xA9264, symBinAddr: 0x1000A394C, symSize: 0x8 }
  - { offset: 0x185EE1, size: 0x8, addend: 0x0, symName: _OUTLINED_FUNCTION_1687, symObjAddr: 0xA926C, symBinAddr: 0x1000A3954, symSize: 0x8 }
  - { offset: 0x185EF9, size: 0x8, addend: 0x0, symName: _OUTLINED_FUNCTION_1688, symObjAddr: 0xA9274, symBinAddr: 0x1000A395C, symSize: 0x8 }
  - { offset: 0x185F11, size: 0x8, addend: 0x0, symName: _OUTLINED_FUNCTION_1693, symObjAddr: 0xA92A0, symBinAddr: 0x1000A3988, symSize: 0xC }
  - { offset: 0x185F29, size: 0x8, addend: 0x0, symName: _OUTLINED_FUNCTION_1703, symObjAddr: 0xA9308, symBinAddr: 0x1000A39F0, symSize: 0xC }
  - { offset: 0x185F41, size: 0x8, addend: 0x0, symName: _OUTLINED_FUNCTION_1714, symObjAddr: 0xA936C, symBinAddr: 0x1000A3A54, symSize: 0xC }
  - { offset: 0x185F59, size: 0x8, addend: 0x0, symName: _OUTLINED_FUNCTION_1715, symObjAddr: 0xA9378, symBinAddr: 0x1000A3A60, symSize: 0x8 }
  - { offset: 0x185F71, size: 0x8, addend: 0x0, symName: _OUTLINED_FUNCTION_1718, symObjAddr: 0xA9398, symBinAddr: 0x1000A3A80, symSize: 0x8 }
  - { offset: 0x185F89, size: 0x8, addend: 0x0, symName: _OUTLINED_FUNCTION_1720, symObjAddr: 0xA93A8, symBinAddr: 0x1000A3A90, symSize: 0xC }
  - { offset: 0x185FA1, size: 0x8, addend: 0x0, symName: _OUTLINED_FUNCTION_1721, symObjAddr: 0xA93B4, symBinAddr: 0x1000A3A9C, symSize: 0xC }
  - { offset: 0x185FB9, size: 0x8, addend: 0x0, symName: _OUTLINED_FUNCTION_1728, symObjAddr: 0xA93F8, symBinAddr: 0x1000A3AE0, symSize: 0x8 }
  - { offset: 0x185FD1, size: 0x8, addend: 0x0, symName: _OUTLINED_FUNCTION_1747, symObjAddr: 0xA94CC, symBinAddr: 0x1000A3BB4, symSize: 0xC }
  - { offset: 0x185FE9, size: 0x8, addend: 0x0, symName: _OUTLINED_FUNCTION_1748, symObjAddr: 0xA94D8, symBinAddr: 0x1000A3BC0, symSize: 0x8 }
  - { offset: 0x186001, size: 0x8, addend: 0x0, symName: _OUTLINED_FUNCTION_1752, symObjAddr: 0xA94F8, symBinAddr: 0x1000A3BE0, symSize: 0xC }
  - { offset: 0x186019, size: 0x8, addend: 0x0, symName: _OUTLINED_FUNCTION_1755, symObjAddr: 0xA9514, symBinAddr: 0x1000A3BFC, symSize: 0x8 }
  - { offset: 0x186031, size: 0x8, addend: 0x0, symName: _OUTLINED_FUNCTION_1760, symObjAddr: 0xA953C, symBinAddr: 0x1000A3C24, symSize: 0xC }
  - { offset: 0x186049, size: 0x8, addend: 0x0, symName: _OUTLINED_FUNCTION_1761, symObjAddr: 0xA9548, symBinAddr: 0x1000A3C30, symSize: 0x8 }
  - { offset: 0x186061, size: 0x8, addend: 0x0, symName: _OUTLINED_FUNCTION_1769, symObjAddr: 0xA95A0, symBinAddr: 0x1000A3C88, symSize: 0x8 }
  - { offset: 0x186079, size: 0x8, addend: 0x0, symName: _OUTLINED_FUNCTION_1770, symObjAddr: 0xA95A8, symBinAddr: 0x1000A3C90, symSize: 0xC }
  - { offset: 0x186091, size: 0x8, addend: 0x0, symName: _OUTLINED_FUNCTION_1772, symObjAddr: 0xA95C0, symBinAddr: 0x1000A3CA8, symSize: 0x8 }
  - { offset: 0x1860A9, size: 0x8, addend: 0x0, symName: _OUTLINED_FUNCTION_1788, symObjAddr: 0xA9658, symBinAddr: 0x1000A3D40, symSize: 0x8 }
  - { offset: 0x1860C1, size: 0x8, addend: 0x0, symName: _OUTLINED_FUNCTION_1812, symObjAddr: 0xA979C, symBinAddr: 0x1000A3E84, symSize: 0x14 }
  - { offset: 0x1860D9, size: 0x8, addend: 0x0, symName: _OUTLINED_FUNCTION_1814, symObjAddr: 0xA97C4, symBinAddr: 0x1000A3EAC, symSize: 0x14 }
  - { offset: 0x1860F1, size: 0x8, addend: 0x0, symName: _OUTLINED_FUNCTION_1818, symObjAddr: 0xA980C, symBinAddr: 0x1000A3EF4, symSize: 0x14 }
  - { offset: 0x186109, size: 0x8, addend: 0x0, symName: _OUTLINED_FUNCTION_1820, symObjAddr: 0xA9834, symBinAddr: 0x1000A3F1C, symSize: 0xC }
  - { offset: 0x186121, size: 0x8, addend: 0x0, symName: _OUTLINED_FUNCTION_1822, symObjAddr: 0xA9854, symBinAddr: 0x1000A3F3C, symSize: 0x14 }
  - { offset: 0x186139, size: 0x8, addend: 0x0, symName: _OUTLINED_FUNCTION_1823, symObjAddr: 0xA9868, symBinAddr: 0x1000A3F50, symSize: 0x14 }
  - { offset: 0x186151, size: 0x8, addend: 0x0, symName: _OUTLINED_FUNCTION_1824, symObjAddr: 0xA987C, symBinAddr: 0x1000A3F64, symSize: 0xC }
  - { offset: 0x186169, size: 0x8, addend: 0x0, symName: _OUTLINED_FUNCTION_1825, symObjAddr: 0xA9888, symBinAddr: 0x1000A3F70, symSize: 0x14 }
  - { offset: 0x186181, size: 0x8, addend: 0x0, symName: _OUTLINED_FUNCTION_1826, symObjAddr: 0xA989C, symBinAddr: 0x1000A3F84, symSize: 0xC }
  - { offset: 0x186199, size: 0x8, addend: 0x0, symName: _OUTLINED_FUNCTION_1830, symObjAddr: 0xA98D4, symBinAddr: 0x1000A3FBC, symSize: 0x14 }
  - { offset: 0x1861B1, size: 0x8, addend: 0x0, symName: _OUTLINED_FUNCTION_1831, symObjAddr: 0xA98E8, symBinAddr: 0x1000A3FD0, symSize: 0x14 }
  - { offset: 0x1861C9, size: 0x8, addend: 0x0, symName: _OUTLINED_FUNCTION_1833, symObjAddr: 0xA9908, symBinAddr: 0x1000A3FF0, symSize: 0x14 }
  - { offset: 0x1861E1, size: 0x8, addend: 0x0, symName: _OUTLINED_FUNCTION_1834, symObjAddr: 0xA991C, symBinAddr: 0x1000A4004, symSize: 0x14 }
  - { offset: 0x1861F9, size: 0x8, addend: 0x0, symName: _OUTLINED_FUNCTION_1835, symObjAddr: 0xA9930, symBinAddr: 0x1000A4018, symSize: 0x14 }
  - { offset: 0x186211, size: 0x8, addend: 0x0, symName: _OUTLINED_FUNCTION_1836, symObjAddr: 0xA9944, symBinAddr: 0x1000A402C, symSize: 0x14 }
  - { offset: 0x186229, size: 0x8, addend: 0x0, symName: _OUTLINED_FUNCTION_1837, symObjAddr: 0xA9958, symBinAddr: 0x1000A4040, symSize: 0x14 }
  - { offset: 0x186241, size: 0x8, addend: 0x0, symName: _OUTLINED_FUNCTION_1844, symObjAddr: 0xA99CC, symBinAddr: 0x1000A40B4, symSize: 0x14 }
  - { offset: 0x186259, size: 0x8, addend: 0x0, symName: _OUTLINED_FUNCTION_1850, symObjAddr: 0xA9A1C, symBinAddr: 0x1000A4104, symSize: 0x14 }
  - { offset: 0x186271, size: 0x8, addend: 0x0, symName: _OUTLINED_FUNCTION_1851, symObjAddr: 0xA9A30, symBinAddr: 0x1000A4118, symSize: 0xC }
  - { offset: 0x186289, size: 0x8, addend: 0x0, symName: _OUTLINED_FUNCTION_1852, symObjAddr: 0xA9A3C, symBinAddr: 0x1000A4124, symSize: 0xC }
  - { offset: 0x1862A1, size: 0x8, addend: 0x0, symName: _OUTLINED_FUNCTION_1853, symObjAddr: 0xA9A48, symBinAddr: 0x1000A4130, symSize: 0x14 }
  - { offset: 0x1862B9, size: 0x8, addend: 0x0, symName: _OUTLINED_FUNCTION_1854, symObjAddr: 0xA9A5C, symBinAddr: 0x1000A4144, symSize: 0x14 }
  - { offset: 0x1862D1, size: 0x8, addend: 0x0, symName: _OUTLINED_FUNCTION_1855, symObjAddr: 0xA9A70, symBinAddr: 0x1000A4158, symSize: 0x14 }
  - { offset: 0x1862E9, size: 0x8, addend: 0x0, symName: _OUTLINED_FUNCTION_1858, symObjAddr: 0xA9AA4, symBinAddr: 0x1000A418C, symSize: 0x14 }
  - { offset: 0x186301, size: 0x8, addend: 0x0, symName: _OUTLINED_FUNCTION_1878, symObjAddr: 0xA9BDC, symBinAddr: 0x1000A42C4, symSize: 0x14 }
  - { offset: 0x186319, size: 0x8, addend: 0x0, symName: _OUTLINED_FUNCTION_1879, symObjAddr: 0xA9BF0, symBinAddr: 0x1000A42D8, symSize: 0xC }
  - { offset: 0x186331, size: 0x8, addend: 0x0, symName: _OUTLINED_FUNCTION_1889, symObjAddr: 0xA9C98, symBinAddr: 0x1000A4380, symSize: 0xC }
  - { offset: 0x186349, size: 0x8, addend: 0x0, symName: _OUTLINED_FUNCTION_1901, symObjAddr: 0xA9D50, symBinAddr: 0x1000A4438, symSize: 0x14 }
  - { offset: 0x186361, size: 0x8, addend: 0x0, symName: _OUTLINED_FUNCTION_1902, symObjAddr: 0xA9D64, symBinAddr: 0x1000A444C, symSize: 0x14 }
  - { offset: 0x186379, size: 0x8, addend: 0x0, symName: _OUTLINED_FUNCTION_1903, symObjAddr: 0xA9D78, symBinAddr: 0x1000A4460, symSize: 0x14 }
  - { offset: 0x186391, size: 0x8, addend: 0x0, symName: _OUTLINED_FUNCTION_1907, symObjAddr: 0xA9DB8, symBinAddr: 0x1000A44A0, symSize: 0xC }
  - { offset: 0x1863A9, size: 0x8, addend: 0x0, symName: _OUTLINED_FUNCTION_1911, symObjAddr: 0xA9E00, symBinAddr: 0x1000A44E8, symSize: 0xC }
  - { offset: 0x1863C1, size: 0x8, addend: 0x0, symName: _OUTLINED_FUNCTION_1915, symObjAddr: 0xA9E38, symBinAddr: 0x1000A4520, symSize: 0x14 }
  - { offset: 0x1863D9, size: 0x8, addend: 0x0, symName: _OUTLINED_FUNCTION_1917, symObjAddr: 0xA9E58, symBinAddr: 0x1000A4540, symSize: 0x14 }
  - { offset: 0x1863F1, size: 0x8, addend: 0x0, symName: _OUTLINED_FUNCTION_1919, symObjAddr: 0xA9E80, symBinAddr: 0x1000A4568, symSize: 0xC }
  - { offset: 0x186409, size: 0x8, addend: 0x0, symName: _OUTLINED_FUNCTION_1921, symObjAddr: 0xA9EA0, symBinAddr: 0x1000A4588, symSize: 0xC }
  - { offset: 0x186421, size: 0x8, addend: 0x0, symName: _OUTLINED_FUNCTION_1927, symObjAddr: 0xA9F00, symBinAddr: 0x1000A45E8, symSize: 0xC }
  - { offset: 0x186439, size: 0x8, addend: 0x0, symName: _OUTLINED_FUNCTION_1933, symObjAddr: 0xA9F68, symBinAddr: 0x1000A4650, symSize: 0xC }
  - { offset: 0x186451, size: 0x8, addend: 0x0, symName: _OUTLINED_FUNCTION_1941, symObjAddr: 0xA9FF8, symBinAddr: 0x1000A46E0, symSize: 0x14 }
  - { offset: 0x186469, size: 0x8, addend: 0x0, symName: _OUTLINED_FUNCTION_1943, symObjAddr: 0xAA020, symBinAddr: 0x1000A4708, symSize: 0xC }
  - { offset: 0x186481, size: 0x8, addend: 0x0, symName: _OUTLINED_FUNCTION_1949, symObjAddr: 0xAA088, symBinAddr: 0x1000A4770, symSize: 0x14 }
  - { offset: 0x186499, size: 0x8, addend: 0x0, symName: _OUTLINED_FUNCTION_1953, symObjAddr: 0xAA0C0, symBinAddr: 0x1000A47A8, symSize: 0xC }
  - { offset: 0x1864B1, size: 0x8, addend: 0x0, symName: _OUTLINED_FUNCTION_1956, symObjAddr: 0xAA0E4, symBinAddr: 0x1000A47CC, symSize: 0x14 }
  - { offset: 0x1864C9, size: 0x8, addend: 0x0, symName: _OUTLINED_FUNCTION_1957, symObjAddr: 0xAA0F8, symBinAddr: 0x1000A47E0, symSize: 0x14 }
  - { offset: 0x1864E1, size: 0x8, addend: 0x0, symName: _OUTLINED_FUNCTION_1960, symObjAddr: 0xAA124, symBinAddr: 0x1000A480C, symSize: 0xC }
  - { offset: 0x1864F9, size: 0x8, addend: 0x0, symName: _OUTLINED_FUNCTION_1962, symObjAddr: 0xAA13C, symBinAddr: 0x1000A4824, symSize: 0x14 }
  - { offset: 0x186511, size: 0x8, addend: 0x0, symName: _OUTLINED_FUNCTION_1964, symObjAddr: 0xAA164, symBinAddr: 0x1000A484C, symSize: 0xC }
  - { offset: 0x186529, size: 0x8, addend: 0x0, symName: _OUTLINED_FUNCTION_1970, symObjAddr: 0xAA1BC, symBinAddr: 0x1000A48A4, symSize: 0x14 }
  - { offset: 0x186541, size: 0x8, addend: 0x0, symName: _OUTLINED_FUNCTION_1972, symObjAddr: 0xAA1DC, symBinAddr: 0x1000A48C4, symSize: 0x14 }
  - { offset: 0x186559, size: 0x8, addend: 0x0, symName: _OUTLINED_FUNCTION_1977, symObjAddr: 0xAA238, symBinAddr: 0x1000A4920, symSize: 0x14 }
  - { offset: 0x186571, size: 0x8, addend: 0x0, symName: _OUTLINED_FUNCTION_1982, symObjAddr: 0xAA294, symBinAddr: 0x1000A497C, symSize: 0xC }
  - { offset: 0x186589, size: 0x8, addend: 0x0, symName: _OUTLINED_FUNCTION_1985, symObjAddr: 0xAA2B8, symBinAddr: 0x1000A49A0, symSize: 0xC }
  - { offset: 0x1865A1, size: 0x8, addend: 0x0, symName: _OUTLINED_FUNCTION_1988, symObjAddr: 0xAA2DC, symBinAddr: 0x1000A49C4, symSize: 0xC }
  - { offset: 0x1865B9, size: 0x8, addend: 0x0, symName: _OUTLINED_FUNCTION_1992, symObjAddr: 0xAA314, symBinAddr: 0x1000A49FC, symSize: 0xC }
  - { offset: 0x1865D1, size: 0x8, addend: 0x0, symName: _OUTLINED_FUNCTION_1993, symObjAddr: 0xAA320, symBinAddr: 0x1000A4A08, symSize: 0xC }
  - { offset: 0x1865E9, size: 0x8, addend: 0x0, symName: _OUTLINED_FUNCTION_2002, symObjAddr: 0xAA3CC, symBinAddr: 0x1000A4AB4, symSize: 0x1C }
  - { offset: 0x186601, size: 0x8, addend: 0x0, symName: _OUTLINED_FUNCTION_2005, symObjAddr: 0xAA420, symBinAddr: 0x1000A4B08, symSize: 0x1C }
  - { offset: 0x186619, size: 0x8, addend: 0x0, symName: _OUTLINED_FUNCTION_2007, symObjAddr: 0xAA458, symBinAddr: 0x1000A4B40, symSize: 0x1C }
  - { offset: 0x186631, size: 0x8, addend: 0x0, symName: _OUTLINED_FUNCTION_2008, symObjAddr: 0xAA474, symBinAddr: 0x1000A4B5C, symSize: 0x18 }
  - { offset: 0x212F7C, size: 0x8, addend: 0x0, symName: __ZN4itoa13DECIMAL_PAIRS17h7e6ca7e032d6981aE, symObjAddr: 0xB964E, symBinAddr: 0x1000BAA16, symSize: 0x0 }
  - { offset: 0x213207, size: 0x8, addend: 0x0, symName: '__ZN44_$LT$$RF$T$u20$as$u20$core..fmt..Display$GT$3fmt17hcce543379b947f1cE', symObjAddr: 0x4DB58, symBinAddr: 0x10004CCBC, symSize: 0x10 }
  - { offset: 0x213373, size: 0x8, addend: 0x0, symName: '__ZN44_$LT$$RF$T$u20$as$u20$core..fmt..Display$GT$3fmt17hcce543379b947f1cE', symObjAddr: 0x4DB58, symBinAddr: 0x10004CCBC, symSize: 0x10 }
  - { offset: 0x349750, size: 0x8, addend: 0x0, symName: '__ZN42_$LT$$RF$T$u20$as$u20$core..fmt..Debug$GT$3fmt17h9bfcb62614c80c86E', symObjAddr: 0xA26A4, symBinAddr: 0x10009CDEC, symSize: 0x14 }
  - { offset: 0x349868, size: 0x8, addend: 0x0, symName: '__ZN73_$LT$tower..buffer..error..ServiceError$u20$as$u20$core..error..Error$GT$6source17hb3d7dc09288a7fc7E', symObjAddr: 0xA27FC, symBinAddr: 0x10009CF44, symSize: 0x8 }
  - { offset: 0x349886, size: 0x8, addend: 0x0, symName: '__ZN73_$LT$tower..buffer..error..ServiceError$u20$as$u20$core..error..Error$GT$6source17hb3d7dc09288a7fc7E', symObjAddr: 0xA27FC, symBinAddr: 0x10009CF44, symSize: 0x8 }
  - { offset: 0x3498A1, size: 0x8, addend: 0x0, symName: '__ZN73_$LT$tower..buffer..error..ServiceError$u20$as$u20$core..error..Error$GT$6source17hb3d7dc09288a7fc7E', symObjAddr: 0xA27FC, symBinAddr: 0x10009CF44, symSize: 0x8 }
  - { offset: 0x3498BD, size: 0x8, addend: 0x0, symName: '__ZN73_$LT$tower..buffer..error..ServiceError$u20$as$u20$core..error..Error$GT$6source17hb3d7dc09288a7fc7E', symObjAddr: 0xA27FC, symBinAddr: 0x10009CF44, symSize: 0x8 }
  - { offset: 0x3498D7, size: 0x8, addend: 0x0, symName: '__ZN71_$LT$tower..buffer..error..ServiceError$u20$as$u20$core..fmt..Debug$GT$3fmt17h2e419fd106cc6acbE', symObjAddr: 0xA2774, symBinAddr: 0x10009CEBC, symSize: 0x40 }
  - { offset: 0x34991A, size: 0x8, addend: 0x0, symName: '__ZN73_$LT$tower..buffer..error..ServiceError$u20$as$u20$core..fmt..Display$GT$3fmt17h6e4d48f89850af7cE', symObjAddr: 0xA27B4, symBinAddr: 0x10009CEFC, symSize: 0x48 }
  - { offset: 0x3499D9, size: 0x8, addend: 0x0, symName: '__ZN65_$LT$tower..buffer..error..Closed$u20$as$u20$core..fmt..Debug$GT$3fmt17h799889044a8abf21E', symObjAddr: 0xA2820, symBinAddr: 0x10009CF68, symSize: 0x38 }
  - { offset: 0x349A58, size: 0x8, addend: 0x0, symName: '__ZN67_$LT$tower..buffer..error..Closed$u20$as$u20$core..fmt..Display$GT$3fmt17hcf9481accaf74f92E', symObjAddr: 0xA2858, symBinAddr: 0x10009CFA0, symSize: 0x18 }
  - { offset: 0x34A27E, size: 0x8, addend: 0x0, symName: '__ZN4core3ptr55drop_in_place$LT$tower..buffer..error..ServiceError$GT$17h82d1848f9a7df60cE', symObjAddr: 0xA2758, symBinAddr: 0x10009CEA0, symSize: 0x1C }
  - { offset: 0x34A2A6, size: 0x8, addend: 0x0, symName: '__ZN4core3ptr55drop_in_place$LT$tower..buffer..error..ServiceError$GT$17h82d1848f9a7df60cE', symObjAddr: 0xA2758, symBinAddr: 0x10009CEA0, symSize: 0x1C }
  - { offset: 0x34A2C2, size: 0x8, addend: 0x0, symName: '__ZN4core3ptr55drop_in_place$LT$tower..buffer..error..ServiceError$GT$17h82d1848f9a7df60cE', symObjAddr: 0xA2758, symBinAddr: 0x10009CEA0, symSize: 0x1C }
  - { offset: 0x34A2DE, size: 0x8, addend: 0x0, symName: '__ZN4core3ptr55drop_in_place$LT$tower..buffer..error..ServiceError$GT$17h82d1848f9a7df60cE', symObjAddr: 0xA2758, symBinAddr: 0x10009CEA0, symSize: 0x1C }
  - { offset: 0x34A2FA, size: 0x8, addend: 0x0, symName: '__ZN4core3ptr55drop_in_place$LT$tower..buffer..error..ServiceError$GT$17h82d1848f9a7df60cE', symObjAddr: 0xA2758, symBinAddr: 0x10009CEA0, symSize: 0x1C }
  - { offset: 0x34A318, size: 0x8, addend: 0x0, symName: '__ZN4core3ptr127drop_in_place$LT$std..sync..poison..mutex..MutexGuard$LT$core..option..Option$LT$tower..buffer..error..ServiceError$GT$$GT$$GT$17h6e40d8dc2bdea916E', symObjAddr: 0xA291C, symBinAddr: 0x10009D064, symSize: 0x3C }
  - { offset: 0x34A46E, size: 0x8, addend: 0x0, symName: '__ZN4core3ptr165drop_in_place$LT$std..sync..poison..PoisonError$LT$std..sync..poison..mutex..MutexGuard$LT$core..option..Option$LT$tower..buffer..error..ServiceError$GT$$GT$$GT$$GT$17h6b4dea570182c931E', symObjAddr: 0xA2958, symBinAddr: 0x10009D0A0, symSize: 0x10 }
  - { offset: 0x34A6D0, size: 0x8, addend: 0x0, symName: '__ZN42_$LT$$RF$T$u20$as$u20$core..fmt..Debug$GT$3fmt17h9bfcb62614c80c86E', symObjAddr: 0xA26A4, symBinAddr: 0x10009CDEC, symSize: 0x14 }
  - { offset: 0x34A95C, size: 0x8, addend: 0x0, symName: __ZN4core5error5Error5cause17hea5fefb42356ce11E, symObjAddr: 0xA26B8, symBinAddr: 0x10009CE00, symSize: 0x8 }
  - { offset: 0x34A98A, size: 0x8, addend: 0x0, symName: __ZN4core5error5Error5cause17hea5fefb42356ce11E, symObjAddr: 0xA26B8, symBinAddr: 0x10009CE00, symSize: 0x8 }
  - { offset: 0x34A9A5, size: 0x8, addend: 0x0, symName: __ZN4core5error5Error5cause17hea5fefb42356ce11E, symObjAddr: 0xA26B8, symBinAddr: 0x10009CE00, symSize: 0x8 }
  - { offset: 0x34A9C0, size: 0x8, addend: 0x0, symName: __ZN4core5error5Error5cause17hea5fefb42356ce11E, symObjAddr: 0xA26B8, symBinAddr: 0x10009CE00, symSize: 0x8 }
  - { offset: 0x34A9DC, size: 0x8, addend: 0x0, symName: __ZN4core5error5Error5cause17hea5fefb42356ce11E, symObjAddr: 0xA26B8, symBinAddr: 0x10009CE00, symSize: 0x8 }
  - { offset: 0x34A9FA, size: 0x8, addend: 0x0, symName: __ZN4core5error5Error7type_id17hd3253f4b2bb70b47E, symObjAddr: 0xA2804, symBinAddr: 0x10009CF4C, symSize: 0xC }
  - { offset: 0x34AA2E, size: 0x8, addend: 0x0, symName: __ZN4core5error5Error7type_id17hd3253f4b2bb70b47E, symObjAddr: 0xA2804, symBinAddr: 0x10009CF4C, symSize: 0xC }
  - { offset: 0x34AA48, size: 0x8, addend: 0x0, symName: __ZN4core5error5Error7type_id17hfda99f7c8174fae6E, symObjAddr: 0xA2870, symBinAddr: 0x10009CFB8, symSize: 0xC }
  - { offset: 0x34AA7C, size: 0x8, addend: 0x0, symName: __ZN4core5error5Error7type_id17hfda99f7c8174fae6E, symObjAddr: 0xA2870, symBinAddr: 0x10009CFB8, symSize: 0xC }
  - { offset: 0x34AD90, size: 0x8, addend: 0x0, symName: '__ZN76_$LT$std..sync..poison..PoisonError$LT$T$GT$$u20$as$u20$core..fmt..Debug$GT$3fmt17h0736b56c646c816dE', symObjAddr: 0xA2968, symBinAddr: 0x10009D0B0, symSize: 0x34 }
  - { offset: 0x34B297, size: 0x8, addend: 0x0, symName: '__ZN68_$LT$alloc..sync..Arc$LT$T$C$A$GT$$u20$as$u20$core..fmt..Display$GT$3fmt17h693fb4f46aec15cfE', symObjAddr: 0xA2810, symBinAddr: 0x10009CF58, symSize: 0x10 }
  - { offset: 0x34B2D7, size: 0x8, addend: 0x0, symName: '__ZN68_$LT$alloc..sync..Arc$LT$T$C$A$GT$$u20$as$u20$core..fmt..Display$GT$3fmt17h693fb4f46aec15cfE', symObjAddr: 0xA2810, symBinAddr: 0x10009CF58, symSize: 0x10 }
  - { offset: 0x34B2F3, size: 0x8, addend: 0x0, symName: '__ZN68_$LT$alloc..sync..Arc$LT$T$C$A$GT$$u20$as$u20$core..fmt..Display$GT$3fmt17h693fb4f46aec15cfE', symObjAddr: 0xA2810, symBinAddr: 0x10009CF58, symSize: 0x10 }
  - { offset: 0x34B30F, size: 0x8, addend: 0x0, symName: '__ZN68_$LT$alloc..sync..Arc$LT$T$C$A$GT$$u20$as$u20$core..fmt..Display$GT$3fmt17h693fb4f46aec15cfE', symObjAddr: 0xA2810, symBinAddr: 0x10009CF58, symSize: 0x10 }
  - { offset: 0x34B3B6, size: 0x8, addend: 0x0, symName: __ZN5alloc5alloc15exchange_malloc17hca9577c5b3236b08E.2176, symObjAddr: 0xA2738, symBinAddr: 0x10009CE80, symSize: 0x20 }
  - { offset: 0x34B4C5, size: 0x8, addend: 0x0, symName: '__ZN5alloc5boxed7convert156_$LT$impl$u20$core..convert..From$LT$E$GT$$u20$for$u20$alloc..boxed..Box$LT$dyn$u20$core..error..Error$u2b$core..marker..Sync$u2b$core..marker..Send$GT$$GT$4from17h0da3913d8f04cc94E', symObjAddr: 0xA2714, symBinAddr: 0x10009CE5C, symSize: 0x24 }
  - { offset: 0x34B96D, size: 0x8, addend: 0x0, symName: '__ZN5alloc4sync16Arc$LT$T$C$A$GT$9drop_slow17h260d2f6b5fcda0cbE', symObjAddr: 0xA26C0, symBinAddr: 0x10009CE08, symSize: 0x54 }
  - { offset: 0x34BDBE, size: 0x8, addend: 0x0, symName: __ZN5tower6buffer6worker6Handle19get_error_on_closed17h72f2979a80f000e8E, symObjAddr: 0xA287C, symBinAddr: 0x10009CFC4, symSize: 0xA0 }
  - { offset: 0x1E5B5E, size: 0x8, addend: 0x0, symName: '__ZN42_$LT$$RF$T$u20$as$u20$core..fmt..Debug$GT$3fmt17hb27052d0d7af3bebE', symObjAddr: 0x4A1EC, symBinAddr: 0x1000493B0, symSize: 0x10 }
  - { offset: 0x1E5BA2, size: 0x8, addend: 0x0, symName: '__ZN42_$LT$$RF$T$u20$as$u20$core..fmt..Debug$GT$3fmt17hb27052d0d7af3bebE', symObjAddr: 0x4A1EC, symBinAddr: 0x1000493B0, symSize: 0x10 }
  - { offset: 0x2BBB17, size: 0x8, addend: 0x0, symName: '__ZN97_$LT$tower..buffer..worker..Worker$LT$T$C$Request$GT$$u20$as$u20$core..future..future..Future$GT$4poll17h63bda95c532ec38cE', symObjAddr: 0x95A60, symBinAddr: 0x1000901C0, symSize: 0x3D0 }
  - { offset: 0x2BCC33, size: 0x8, addend: 0x0, symName: '__ZN98_$LT$tower..util..either..Either$LT$A$C$B$GT$$u20$as$u20$tower_service..Service$LT$Request$GT$$GT$10poll_ready17ha55f6fe855b0b8acE', symObjAddr: 0x9E2D8, symBinAddr: 0x100098A38, symSize: 0xB0 }
  - { offset: 0x2BCD79, size: 0x8, addend: 0x0, symName: '__ZN98_$LT$tower..util..either..Either$LT$A$C$B$GT$$u20$as$u20$tower_service..Service$LT$Request$GT$$GT$4call17h403c8f094e1cf6d1E', symObjAddr: 0x9E388, symBinAddr: 0x100098AE8, symSize: 0xDC }
  - { offset: 0x2BD1DD, size: 0x8, addend: 0x0, symName: '__ZN89_$LT$tower..util..either..Either$LT$A$C$B$GT$$u20$as$u20$core..future..future..Future$GT$4poll17h3a4611eeec83c730E', symObjAddr: 0x9DF54, symBinAddr: 0x1000986B4, symSize: 0x78 }
  - { offset: 0x2BD5D8, size: 0x8, addend: 0x0, symName: '__ZN99_$LT$tower..util..map_future..MapFuture$LT$S$C$F$GT$$u20$as$u20$tower_service..Service$LT$R$GT$$GT$10poll_ready17h07ebb9d3814c700eE', symObjAddr: 0xA1E90, symBinAddr: 0x10009C5D8, symSize: 0xC8 }
  - { offset: 0x2BD738, size: 0x8, addend: 0x0, symName: '__ZN99_$LT$tower..util..map_future..MapFuture$LT$S$C$F$GT$$u20$as$u20$tower_service..Service$LT$R$GT$$GT$4call17h41b6c94cbd2d3da0E', symObjAddr: 0xA1F58, symBinAddr: 0x10009C6A0, symSize: 0x420 }
  - { offset: 0x2BE5D2, size: 0x8, addend: 0x0, symName: '__ZN144_$LT$tonic..transport..channel..service..connection..MakeSendRequestService$LT$C$GT$$u20$as$u20$tower_service..Service$LT$http..uri..Uri$GT$$GT$4call28_$u7b$$u7b$closure$u7d$$u7d$28_$u7b$$u7b$closure$u7d$$u7d$17h4f849c6848238bb2E', symObjAddr: 0x9864C, symBinAddr: 0x100092DAC, symSize: 0x13C0 }
  - { offset: 0x2C03F2, size: 0x8, addend: 0x0, symName: '__ZN144_$LT$tonic..transport..channel..service..connection..MakeSendRequestService$LT$C$GT$$u20$as$u20$tower_service..Service$LT$http..uri..Uri$GT$$GT$4call28_$u7b$$u7b$closure$u7d$$u7d$17h964e970562f89897E', symObjAddr: 0x9696C, symBinAddr: 0x1000910CC, symSize: 0x1AAC }
  - { offset: 0x2C2232, size: 0x8, addend: 0x0, symName: '__ZN243_$LT$tonic..transport..channel..service..connection..SendRequest$u20$as$u20$tower_service..Service$LT$http..request..Request$LT$http_body_util..combinators..box_body..UnsyncBoxBody$LT$bytes..bytes..Bytes$C$tonic..status..Status$GT$$GT$$GT$$GT$4call28_$u7b$$u7b$closure$u7d$$u7d$17ha540d0cde3ff9bafE', symObjAddr: 0x9C890, symBinAddr: 0x100096FF0, symSize: 0x29C }
  - { offset: 0x2C2AFA, size: 0x8, addend: 0x0, symName: '__ZN242_$LT$tonic..transport..channel..service..connection..Connection$u20$as$u20$tower_service..Service$LT$http..request..Request$LT$http_body_util..combinators..box_body..UnsyncBoxBody$LT$bytes..bytes..Bytes$C$tonic..status..Status$GT$$GT$$GT$$GT$10poll_ready17hb40740428d2de58eE', symObjAddr: 0x9610C, symBinAddr: 0x10009086C, symSize: 0x58 }
  - { offset: 0x2C2D8E, size: 0x8, addend: 0x0, symName: '__ZN105_$LT$tonic..transport..channel..service..executor..SharedExec$u20$as$u20$hyper..rt..Executor$LT$F$GT$$GT$7execute17haf5e2b8b5eda2982E', symObjAddr: 0x8A928, symBinAddr: 0x100085150, symSize: 0x60 }
  - { offset: 0x2C3068, size: 0x8, addend: 0x0, symName: '__ZN130_$LT$tonic..transport..channel..service..connector..Connector$LT$C$GT$$u20$as$u20$tower_service..Service$LT$http..uri..Uri$GT$$GT$4call28_$u7b$$u7b$closure$u7d$$u7d$17hd44f541eec3003deE', symObjAddr: 0x99C28, symBinAddr: 0x100094388, symSize: 0x190 }
  - { offset: 0x2C32DE, size: 0x8, addend: 0x0, symName: '__ZN132_$LT$tonic..transport..channel..service..reconnect..Reconnect$LT$M$C$Target$GT$$u20$as$u20$tower_service..Service$LT$Request$GT$$GT$10poll_ready17h421a35c07f5ce5d5E', symObjAddr: 0x963F4, symBinAddr: 0x100090B54, symSize: 0x1E8 }
  - { offset: 0x2C3906, size: 0x8, addend: 0x0, symName: '__ZN132_$LT$tonic..transport..channel..service..reconnect..Reconnect$LT$M$C$Target$GT$$u20$as$u20$tower_service..Service$LT$Request$GT$$GT$4call17ha5e30957daddd16bE', symObjAddr: 0x9C668, symBinAddr: 0x100096DC8, symSize: 0x20C }
  - { offset: 0x2C42DF, size: 0x8, addend: 0x0, symName: '__ZN119_$LT$tonic..transport..channel..service..reconnect..ResponseFuture$LT$F$GT$$u20$as$u20$core..future..future..Future$GT$4poll17hed97855c078d3b41E', symObjAddr: 0x9DFCC, symBinAddr: 0x10009872C, symSize: 0x6C }
  - { offset: 0x2C45E7, size: 0x8, addend: 0x0, symName: '__ZN154_$LT$tonic..transport..channel..service..add_origin..AddOrigin$LT$T$GT$$u20$as$u20$tower_service..Service$LT$http..request..Request$LT$ReqBody$GT$$GT$$GT$4call28_$u7b$$u7b$closure$u7d$$u7d$17h522a404cfd6ccf87E', symObjAddr: 0x9E520, symBinAddr: 0x100098C80, symSize: 0x140 }
  - { offset: 0x2C479D, size: 0x8, addend: 0x0, symName: '__ZN154_$LT$tonic..transport..channel..service..add_origin..AddOrigin$LT$T$GT$$u20$as$u20$tower_service..Service$LT$http..request..Request$LT$ReqBody$GT$$GT$$GT$4call28_$u7b$$u7b$closure$u7d$$u7d$17h5a293bbd4623ae95E', symObjAddr: 0x9E6E8, symBinAddr: 0x100098E48, symSize: 0x64 }
  - { offset: 0x2C4A99, size: 0x8, addend: 0x0, symName: '__ZN218_$LT$tonic..transport..channel..Channel$u20$as$u20$tower_service..Service$LT$http..request..Request$LT$http_body_util..combinators..box_body..UnsyncBoxBody$LT$bytes..bytes..Bytes$C$tonic..status..Status$GT$$GT$$GT$$GT$4call17he55bacff113e8096E', symObjAddr: 0x9E884, symBinAddr: 0x100098FE4, symSize: 0x190 }
  - { offset: 0x2C523E, size: 0x8, addend: 0x0, symName: '__ZN90_$LT$tonic..transport..channel..ResponseFuture$u20$as$u20$core..future..future..Future$GT$4poll17h6957d79401c5f51cE', symObjAddr: 0xA2414, symBinAddr: 0x10009CB5C, symSize: 0x290 }
  - { offset: 0x2C5DEF, size: 0x8, addend: 0x0, symName: '__ZN67_$LT$tonic..transport..error..Error$u20$as$u20$core..fmt..Debug$GT$3fmt17hc8bb7a5e62853f39E', symObjAddr: 0x9E778, symBinAddr: 0x100098ED8, symSize: 0x58 }
  - { offset: 0x2C5EAA, size: 0x8, addend: 0x0, symName: '__ZN69_$LT$tonic..transport..error..Error$u20$as$u20$core..fmt..Display$GT$3fmt17h62f653759a082901E', symObjAddr: 0x9E7D0, symBinAddr: 0x100098F30, symSize: 0x1C }
  - { offset: 0x2C5EE5, size: 0x8, addend: 0x0, symName: '__ZN69_$LT$tonic..transport..error..Error$u20$as$u20$core..fmt..Display$GT$3fmt17h62f653759a082901E', symObjAddr: 0x9E7D0, symBinAddr: 0x100098F30, symSize: 0x1C }
  - { offset: 0x2C5F05, size: 0x8, addend: 0x0, symName: '__ZN69_$LT$tonic..transport..error..Error$u20$as$u20$core..error..Error$GT$6source17h990bc07fde5f035aE', symObjAddr: 0x9E7EC, symBinAddr: 0x100098F4C, symSize: 0x4 }
  - { offset: 0x2C5F28, size: 0x8, addend: 0x0, symName: '__ZN66_$LT$tonic..transport..error..Kind$u20$as$u20$core..fmt..Debug$GT$3fmt17hcd9a51e55877a2c8E', symObjAddr: 0x9E804, symBinAddr: 0x100098F64, symSize: 0x1C }
  - { offset: 0x2C6442, size: 0x8, addend: 0x0, symName: '__ZN58_$LT$tonic..status..Status$u20$as$u20$core..fmt..Debug$GT$3fmt17h9512d7d3b1138567E', symObjAddr: 0x8B8EC, symBinAddr: 0x100086114, symSize: 0xF0 }
  - { offset: 0x2C6578, size: 0x8, addend: 0x0, symName: '__ZN60_$LT$tonic..status..Status$u20$as$u20$core..fmt..Display$GT$3fmt17hd5fc7e5e9d8a8918E', symObjAddr: 0x8B9DC, symBinAddr: 0x100086204, symSize: 0x90 }
  - { offset: 0x2C67A2, size: 0x8, addend: 0x0, symName: '__ZN60_$LT$tonic..status..Status$u20$as$u20$core..error..Error$GT$6source17hf093983877368e74E', symObjAddr: 0x8BA6C, symBinAddr: 0x100086294, symSize: 0x28 }
  - { offset: 0x2C67D4, size: 0x8, addend: 0x0, symName: '__ZN60_$LT$tonic..status..Status$u20$as$u20$core..error..Error$GT$6source17hf093983877368e74E', symObjAddr: 0x8BA6C, symBinAddr: 0x100086294, symSize: 0x28 }
  - { offset: 0x2C6864, size: 0x8, addend: 0x0, symName: '__ZN56_$LT$tonic..status..Code$u20$as$u20$core..fmt..Debug$GT$3fmt17he6454a140202a751E', symObjAddr: 0x8BA98, symBinAddr: 0x1000862C0, symSize: 0x1C }
  - { offset: 0x2C68A2, size: 0x8, addend: 0x0, symName: '__ZN64_$LT$tonic..status..ConnectError$u20$as$u20$core..fmt..Debug$GT$3fmt17h9b9f5e3e5ffbcdfbE', symObjAddr: 0x99AC8, symBinAddr: 0x100094228, symSize: 0x34 }
  - { offset: 0x2C68E8, size: 0x8, addend: 0x0, symName: '__ZN66_$LT$tonic..status..ConnectError$u20$as$u20$core..fmt..Display$GT$3fmt17hb78d8497ee8d3c66E', symObjAddr: 0x99AFC, symBinAddr: 0x10009425C, symSize: 0x4 }
  - { offset: 0x2C692D, size: 0x8, addend: 0x0, symName: '__ZN66_$LT$tonic..status..ConnectError$u20$as$u20$core..error..Error$GT$6source17h2274b11182a19cabE', symObjAddr: 0x99B00, symBinAddr: 0x100094260, symSize: 0x4 }
  - { offset: 0x2C69CA, size: 0x8, addend: 0x0, symName: '__ZN68_$LT$tonic..status..TimeoutExpired$u20$as$u20$core..fmt..Display$GT$3fmt17h43ef8edbd1576a3aE', symObjAddr: 0x9DA74, symBinAddr: 0x1000981D4, symSize: 0x2C }
  - { offset: 0x2C6A2A, size: 0x8, addend: 0x0, symName: '__ZN66_$LT$tonic..status..TimeoutExpired$u20$as$u20$core..fmt..Debug$GT$3fmt17habf2779e3bbc72b6E', symObjAddr: 0x9E298, symBinAddr: 0x1000989F8, symSize: 0x34 }
  - { offset: 0x2C6C71, size: 0x8, addend: 0x0, symName: '__ZN70_$LT$tonic..metadata..map..MetadataMap$u20$as$u20$core..fmt..Debug$GT$3fmt17h731043ef9f20c2f7E', symObjAddr: 0x8BABC, symBinAddr: 0x1000862E4, symSize: 0x40 }
  - { offset: 0x2C715C, size: 0x8, addend: 0x0, symName: __ZN5tonic5codec6encode15finish_encoding17hffc4e0db50b64b40E, symObjAddr: 0xA156C, symBinAddr: 0x10009BCB4, symSize: 0x130 }
  - { offset: 0x2C73FE, size: 0x8, addend: 0x0, symName: __ZN5tonic5codec5prost17from_decode_error17h784a20fc072a628fE, symObjAddr: 0x9F39C, symBinAddr: 0x100099AE4, symSize: 0x124 }
  - { offset: 0x2C7F1D, size: 0x8, addend: 0x0, symName: '__ZN76_$LT$http..header..map..HeaderMap$LT$T$GT$$u20$as$u20$core..clone..Clone$GT$5clone17h41cb56259ad6ff00E', symObjAddr: 0x9DA1C, symBinAddr: 0x10009817C, symSize: 0x58 }
  - { offset: 0x2C82D8, size: 0x8, addend: 0x0, symName: '__ZN71_$LT$http..header..value..HeaderValue$u20$as$u20$core..clone..Clone$GT$5clone17ha3d6d028836ae086E.2058', symObjAddr: 0x9DD68, symBinAddr: 0x1000984C8, symSize: 0x24 }
  - { offset: 0x2C89D2, size: 0x8, addend: 0x0, symName: '__ZN64_$LT$http..uri..scheme..Scheme$u20$as$u20$core..clone..Clone$GT$5clone17h5c7935bd7f799bbaE.2041', symObjAddr: 0x9C604, symBinAddr: 0x100096D64, symSize: 0x64 }
  - { offset: 0x2C8CE3, size: 0x8, addend: 0x0, symName: '__ZN58_$LT$http..uri..InvalidUri$u20$as$u20$core..fmt..Debug$GT$3fmt17h8bb688ab0bcc57f7E.2026', symObjAddr: 0x9595C, symBinAddr: 0x1000900BC, symSize: 0x34 }
  - { offset: 0x2C8D25, size: 0x8, addend: 0x0, symName: '__ZN53_$LT$http..uri..Uri$u20$as$u20$core..clone..Clone$GT$5clone17h8388d21e497be486E.2037', symObjAddr: 0x965DC, symBinAddr: 0x100090D3C, symSize: 0x50 }
  - { offset: 0x2C8DCE, size: 0x8, addend: 0x0, symName: '__ZN63_$LT$http..uri..InvalidUriParts$u20$as$u20$core..fmt..Debug$GT$3fmt17ha602cc4d53562eb8E.2072', symObjAddr: 0x9E820, symBinAddr: 0x100098F80, symSize: 0x34 }
  - { offset: 0x2C9081, size: 0x8, addend: 0x0, symName: '__ZN48_$LT$T$u20$as$u20$http..extensions..AnyClone$GT$9clone_box17hfc253de55095ed44E', symObjAddr: 0x9446C, symBinAddr: 0x10008EC6C, symSize: 0x3C }
  - { offset: 0x2C9124, size: 0x8, addend: 0x0, symName: '__ZN48_$LT$T$u20$as$u20$http..extensions..AnyClone$GT$6as_any17hbe6f7824f1160253E', symObjAddr: 0x944A8, symBinAddr: 0x10008ECA8, symSize: 0x4 }
  - { offset: 0x2C914C, size: 0x8, addend: 0x0, symName: '__ZN48_$LT$T$u20$as$u20$http..extensions..AnyClone$GT$10as_any_mut17hfe819cdb7d7e0fd6E', symObjAddr: 0x944AC, symBinAddr: 0x10008ECAC, symSize: 0x4 }
  - { offset: 0x2C9174, size: 0x8, addend: 0x0, symName: '__ZN48_$LT$T$u20$as$u20$http..extensions..AnyClone$GT$8into_any17h10681b72a0109257E', symObjAddr: 0x944B0, symBinAddr: 0x10008ECB0, symSize: 0x4 }
  - { offset: 0x2C919C, size: 0x8, addend: 0x0, symName: '__ZN48_$LT$T$u20$as$u20$http..extensions..AnyClone$GT$9type_name17hc80a92d9445ce027E', symObjAddr: 0x944B4, symBinAddr: 0x10008ECB4, symSize: 0x10 }
  - { offset: 0x2C94AC, size: 0x8, addend: 0x0, symName: '__ZN93_$LT$http_body_util..combinators..map_err..MapErr$LT$B$C$F$GT$$u20$as$u20$http_body..Body$GT$10poll_frame17h09acd662d3dfcc0dE', symObjAddr: 0x9CBC4, symBinAddr: 0x100097324, symSize: 0x550 }
  - { offset: 0x2C9DF3, size: 0x8, addend: 0x0, symName: '__ZN93_$LT$http_body_util..combinators..map_err..MapErr$LT$B$C$F$GT$$u20$as$u20$http_body..Body$GT$13is_end_stream17ha8602164af4fa511E', symObjAddr: 0x9D114, symBinAddr: 0x100097874, symSize: 0x24 }
  - { offset: 0x2C9E25, size: 0x8, addend: 0x0, symName: '__ZN93_$LT$http_body_util..combinators..map_err..MapErr$LT$B$C$F$GT$$u20$as$u20$http_body..Body$GT$13is_end_stream17ha8602164af4fa511E', symObjAddr: 0x9D114, symBinAddr: 0x100097874, symSize: 0x24 }
  - { offset: 0x2C9E5C, size: 0x8, addend: 0x0, symName: '__ZN93_$LT$http_body_util..combinators..map_err..MapErr$LT$B$C$F$GT$$u20$as$u20$http_body..Body$GT$9size_hint17h027b5e15d33f9246E', symObjAddr: 0x9D138, symBinAddr: 0x100097898, symSize: 0x44 }
  - { offset: 0x2CA319, size: 0x8, addend: 0x0, symName: '__ZN74_$LT$bytes..bytes_mut..BytesMut$u20$as$u20$bytes..buf..buf_mut..BufMut$GT$3put17h87e48c8ab4de95c9E', symObjAddr: 0x93AF4, symBinAddr: 0x10008E31C, symSize: 0xDC }
  - { offset: 0x2CA804, size: 0x8, addend: 0x0, symName: '__ZN77_$LT$bytes..buf..take..Take$LT$T$GT$$u20$as$u20$bytes..buf..buf_impl..Buf$GT$7advance17h30e2226306290246E', symObjAddr: 0x92E10, symBinAddr: 0x10008D638, symSize: 0x8C }
  - { offset: 0x2CA978, size: 0x8, addend: 0x0, symName: '__ZN77_$LT$bytes..buf..take..Take$LT$T$GT$$u20$as$u20$bytes..buf..buf_impl..Buf$GT$5chunk17h44438e52dcddbbc7E', symObjAddr: 0x92E9C, symBinAddr: 0x10008D6C4, symSize: 0x4C }
  - { offset: 0x2CAA8A, size: 0x8, addend: 0x0, symName: '__ZN77_$LT$bytes..buf..take..Take$LT$T$GT$$u20$as$u20$bytes..buf..buf_impl..Buf$GT$9remaining17h3bd45dd2fc5a27a8E', symObjAddr: 0x92EEC, symBinAddr: 0x10008D714, symSize: 0x28 }
  - { offset: 0x2CAC50, size: 0x8, addend: 0x0, symName: '__ZN78_$LT$std..io..cursor..Cursor$LT$T$GT$$u20$as$u20$bytes..buf..buf_impl..Buf$GT$5chunk17h0ea275b1b880ef87E', symObjAddr: 0x92D20, symBinAddr: 0x10008D548, symSize: 0xC }
  - { offset: 0x2CAC80, size: 0x8, addend: 0x0, symName: '__ZN78_$LT$std..io..cursor..Cursor$LT$T$GT$$u20$as$u20$bytes..buf..buf_impl..Buf$GT$5chunk17h0ea275b1b880ef87E', symObjAddr: 0x92D20, symBinAddr: 0x10008D548, symSize: 0xC }
  - { offset: 0x2CAC9C, size: 0x8, addend: 0x0, symName: '__ZN78_$LT$std..io..cursor..Cursor$LT$T$GT$$u20$as$u20$bytes..buf..buf_impl..Buf$GT$5chunk17h0ea275b1b880ef87E', symObjAddr: 0x92D20, symBinAddr: 0x10008D548, symSize: 0xC }
  - { offset: 0x2CACFC, size: 0x8, addend: 0x0, symName: '__ZN78_$LT$std..io..cursor..Cursor$LT$T$GT$$u20$as$u20$bytes..buf..buf_impl..Buf$GT$7advance17h1e4c0d444b781330E', symObjAddr: 0x92D2C, symBinAddr: 0x10008D554, symSize: 0x38 }
  - { offset: 0x2CAD38, size: 0x8, addend: 0x0, symName: '__ZN78_$LT$std..io..cursor..Cursor$LT$T$GT$$u20$as$u20$bytes..buf..buf_impl..Buf$GT$7advance17h1e4c0d444b781330E', symObjAddr: 0x92D2C, symBinAddr: 0x10008D554, symSize: 0x38 }
  - { offset: 0x2CAD54, size: 0x8, addend: 0x0, symName: '__ZN78_$LT$std..io..cursor..Cursor$LT$T$GT$$u20$as$u20$bytes..buf..buf_impl..Buf$GT$7advance17h1e4c0d444b781330E', symObjAddr: 0x92D2C, symBinAddr: 0x10008D554, symSize: 0x38 }
  - { offset: 0x2CAE63, size: 0x8, addend: 0x0, symName: '__ZN78_$LT$std..io..cursor..Cursor$LT$T$GT$$u20$as$u20$bytes..buf..buf_impl..Buf$GT$5chunk17h1dd022b483571d2fE', symObjAddr: 0x92E04, symBinAddr: 0x10008D62C, symSize: 0xC }
  - { offset: 0x2CAE93, size: 0x8, addend: 0x0, symName: '__ZN78_$LT$std..io..cursor..Cursor$LT$T$GT$$u20$as$u20$bytes..buf..buf_impl..Buf$GT$5chunk17h1dd022b483571d2fE', symObjAddr: 0x92E04, symBinAddr: 0x10008D62C, symSize: 0xC }
  - { offset: 0x2CB137, size: 0x8, addend: 0x0, symName: '__ZN59_$LT$$RF$mut$u20$T$u20$as$u20$bytes..buf..buf_impl..Buf$GT$9remaining17ha2528413b5cb3ef8E', symObjAddr: 0x92EE8, symBinAddr: 0x10008D710, symSize: 0x4 }
  - { offset: 0x2CB154, size: 0x8, addend: 0x0, symName: '__ZN59_$LT$$RF$mut$u20$T$u20$as$u20$bytes..buf..buf_impl..Buf$GT$9remaining17ha2528413b5cb3ef8E', symObjAddr: 0x92EE8, symBinAddr: 0x10008D710, symSize: 0x4 }
  - { offset: 0x2CB2F4, size: 0x8, addend: 0x0, symName: __ZN5bytes3buf8buf_impl3Buf15chunks_vectored17hb0096107071de6c9E, symObjAddr: 0x92D64, symBinAddr: 0x10008D58C, symSize: 0x38 }
  - { offset: 0x2CB334, size: 0x8, addend: 0x0, symName: __ZN5bytes3buf8buf_impl3Buf15chunks_vectored17hb0096107071de6c9E, symObjAddr: 0x92D64, symBinAddr: 0x10008D58C, symSize: 0x38 }
  - { offset: 0x2CB34F, size: 0x8, addend: 0x0, symName: __ZN5bytes3buf8buf_impl3Buf15chunks_vectored17hb0096107071de6c9E, symObjAddr: 0x92D64, symBinAddr: 0x10008D58C, symSize: 0x38 }
  - { offset: 0x2CB36B, size: 0x8, addend: 0x0, symName: __ZN5bytes3buf8buf_impl3Buf15chunks_vectored17hb0096107071de6c9E, symObjAddr: 0x92D64, symBinAddr: 0x10008D58C, symSize: 0x38 }
